 CourseworkBase2020

 Timestamp is 64e76c93 (Thu Aug 24 15:43:31 2023)

 Preferred load address is 00400000

 Start         Length     Name                   Class
 0001:00000000 00005e50H .text$di                CODE
 0001:00005e50 00036150H .text$mn                CODE
 0001:0003bfa0 00003b00H .text$x                 CODE
 0001:0003faa0 00001012H .text$yd                CODE
 0002:00000000 00000104H .CRT$XCA                DATA
 0002:00000104 00000104H .CRT$XCAA               DATA
 0002:00000208 00000104H .CRT$XCL                DATA
 0002:0000030c 00000104H .CRT$XCZ                DATA
 0002:00000410 00000104H .CRT$XIA                DATA
 0002:00000514 00000104H .CRT$XIAA               DATA
 0002:00000618 00000104H .CRT$XIAC               DATA
 0002:0000071c 00000104H .CRT$XIZ                DATA
 0002:00000820 00000104H .CRT$XPA                DATA
 0002:00000924 00000104H .CRT$XPZ                DATA
 0002:00000a28 00000104H .CRT$XTA                DATA
 0002:00000b2c 00000114H .CRT$XTZ                DATA
 0002:00000c40 0000c1c0H .rdata                  DATA
 0002:0000ce00 00000180H .rdata$CastGuardVftablesA DATA
 0002:0000cf80 0000014cH .rdata$CastGuardVftablesC DATA
 0002:0000d0cc 000016e8H .rdata$r                DATA
 0002:0000e7b4 0000040cH .rdata$sxdata           DATA
 0002:0000ebc0 000001a4H .rdata$zzzdbg           DATA
 0002:0000ed64 00000104H .rtc$IAA                DATA
 0002:0000ee68 00000104H .rtc$IZZ                DATA
 0002:0000ef6c 00000104H .rtc$TAA                DATA
 0002:0000f070 00000108H .rtc$TZZ                DATA
 0002:0000f178 0000277fH .xdata$x                DATA
 0002:000118f7 00000000H .edata                  DATA
 0003:00000000 00000130H .data                   DATA
 0003:00000130 000001f4H .data$r                 DATA
 0003:00000324 00000904H .data$rs                DATA
 0003:00000c28 0000045cH .bss                    DATA
 0004:00000000 000004c0H .idata$5                DATA
 0004:000004c0 0000008cH .idata$2                DATA
 0004:0000054c 00000014H .idata$3                DATA
 0004:00000560 000004c0H .idata$4                DATA
 0004:00000a20 00001c02H .idata$6                DATA
 0005:00000000 0000010eH .00cfg                  DATA
 0006:00000000 00000170H .rsrc$01                DATA
 0006:00000170 000002ccH .rsrc$02                DATA

  Address         Publics by Value              Rva+Base       Lib:Object

 0000:00000000       ___AbsoluteZero            00000000     <absolute>
 0000:00000000       ___arm64x_extra_rfe_table  00000000     <absolute>
 0000:00000000       ___arm64x_extra_rfe_table_size 00000000     <absolute>
 0000:00000000       ___arm64x_native_entrypoint 00000000     <absolute>
 0000:00000000       ___arm64x_redirection_metadata 00000000     <absolute>
 0000:00000000       ___arm64x_redirection_metadata_count 00000000     <absolute>
 0000:00000000       ___dynamic_value_reloc_table 00000000     <absolute>
 0000:00000000       ___enclave_config          00000000     <absolute>
 0000:00000000       ___guard_check_icall_a64n_fptr 00000000     <absolute>
 0000:00000000       ___guard_eh_cont_count     00000000     <absolute>
 0000:00000000       ___guard_eh_cont_table     00000000     <absolute>
 0000:00000000       ___guard_fids_count        00000000     <absolute>
 0000:00000000       ___guard_fids_table        00000000     <absolute>
 0000:00000000       ___guard_iat_count         00000000     <absolute>
 0000:00000000       ___guard_iat_table         00000000     <absolute>
 0000:00000000       ___guard_longjmp_count     00000000     <absolute>
 0000:00000000       ___guard_longjmp_table     00000000     <absolute>
 0000:00000000       ___hybrid_auxiliary_iat    00000000     <absolute>
 0000:00000000       ___hybrid_auxiliary_iat_copy 00000000     <absolute>
 0000:00000000       ___hybrid_code_map         00000000     <absolute>
 0000:00000000       ___hybrid_code_map_count   00000000     <absolute>
 0000:00000000       ___volatile_metadata       00000000     <absolute>
 0000:00000000       ___x64_code_ranges_to_entry_points 00000000     <absolute>
 0000:00000000       ___x64_code_ranges_to_entry_points_count 00000000     <absolute>
 0000:000000a2       ___safe_se_handler_count   000000a2     <absolute>
 0000:00000100       ___guard_flags             00000100     <absolute>
 0000:00000000       ___ImageBase               00400000     <linker-defined>
 0001:00005e50       ?virtDraw@Arrow@@UAEXXZ    00406e50 f   Arrow.obj
 0001:00005fd0       ?virtDoUpdate@Arrow@@UAEXH@Z 00406fd0 f   Arrow.obj
 0001:00006050       ??$?0$$V@?$_Compressed_pair@V?$allocator@D@std@@V?$_String_val@U?$_Simple_types@D@std@@@2@$00@std@@QAE@U_Zero_then_variadic_args_t@1@@Z 00407050 f i Arrow.obj
 0001:00006080       ??$?0$$V@?$_Compressed_pair@V?$allocator@U?$_Tree_node@U?$pair@$$CBV?$basic_string@DU?$char_traits@D@std@@V?$allocator@D@2@@std@@V?$shared_ptr@VRawImageData@@@2@@std@@PAX@std@@@std@@V?$_Tree_val@U?$_Tree_simple_types@U?$pair@$$CBV?$basic_string@DU?$char_traits@D@std@@V?$allocator@D@2@@std@@V?$shared_ptr@VRawImageData@@@2@@std@@@std@@@2@$00@std@@QAE@U_Zero_then_variadic_args_t@1@@Z 00407080 f i Arrow.obj
 0001:000060b0       ??$?0$$V@?$_Compressed_pair@V?$allocator@U?$_Tree_node@U?$pair@$$CBV?$basic_string@DU?$char_traits@D@std@@V?$allocator@D@2@@std@@V?$weak_ptr@VRawImageData@@@2@@std@@PAX@std@@@std@@V?$_Tree_val@U?$_Tree_simple_types@U?$pair@$$CBV?$basic_string@DU?$char_traits@D@std@@V?$allocator@D@2@@std@@V?$weak_ptr@VRawImageData@@@2@@std@@@std@@@2@$00@std@@QAE@U_Zero_then_variadic_args_t@1@@Z 004070b0 f i Arrow.obj
 0001:000060e0       ??$?0AAPAU?$_Tree_node@U?$pair@$$CBV?$basic_string@DU?$char_traits@D@std@@V?$allocator@D@2@@std@@V?$shared_ptr@VRawImageData@@@2@@std@@PAX@std@@_N$0A@@?$pair@PAU?$_Tree_node@U?$pair@$$CBV?$basic_string@DU?$char_traits@D@std@@V?$allocator@D@2@@std@@V?$shared_ptr@VRawImageData@@@2@@std@@PAX@std@@_N@std@@QAE@AAPAU?$_Tree_node@U?$pair@$$CBV?$basic_string@DU?$char_traits@D@std@@V?$allocator@D@2@@std@@V?$shared_ptr@VRawImageData@@@2@@std@@PAX@1@$$QA_N@Z 004070e0 f i Arrow.obj
 0001:00006130       ??$?0AAPAU?$_Tree_node@U?$pair@$$CBV?$basic_string@DU?$char_traits@D@std@@V?$allocator@D@2@@std@@V?$weak_ptr@VRawImageData@@@2@@std@@PAX@std@@_N$0A@@?$pair@PAU?$_Tree_node@U?$pair@$$CBV?$basic_string@DU?$char_traits@D@std@@V?$allocator@D@2@@std@@V?$weak_ptr@VRawImageData@@@2@@std@@PAX@std@@_N@std@@QAE@AAPAU?$_Tree_node@U?$pair@$$CBV?$basic_string@DU?$char_traits@D@std@@V?$allocator@D@2@@std@@V?$weak_ptr@VRawImageData@@@2@@std@@PAX@1@$$QA_N@Z 00407130 f i Arrow.obj
 0001:00006180       ??$?0AAV?$basic_string@DU?$char_traits@D@std@@V?$allocator@D@2@@std@@AAV?$shared_ptr@VRawImageData@@@1@$0A@@?$pair@V?$basic_string@DU?$char_traits@D@std@@V?$allocator@D@2@@std@@V?$shared_ptr@VRawImageData@@@2@@std@@QAE@AAV?$basic_string@DU?$char_traits@D@std@@V?$allocator@D@2@@1@AAV?$shared_ptr@VRawImageData@@@1@@Z 00407180 f i Arrow.obj
 0001:000061d0       ??$?0AAV?$basic_string@DU?$char_traits@D@std@@V?$allocator@D@2@@std@@AAV?$weak_ptr@VRawImageData@@@1@$0A@@?$pair@V?$basic_string@DU?$char_traits@D@std@@V?$allocator@D@2@@std@@V?$weak_ptr@VRawImageData@@@2@@std@@QAE@AAV?$basic_string@DU?$char_traits@D@std@@V?$allocator@D@2@@1@AAV?$weak_ptr@VRawImageData@@@1@@Z 004071d0 f i Arrow.obj
 0001:00006220       ??$?0ABU?$less@V?$basic_string@DU?$char_traits@D@std@@V?$allocator@D@2@@std@@@std@@U_Zero_then_variadic_args_t@1@@?$_Compressed_pair@U?$less@V?$basic_string@DU?$char_traits@D@std@@V?$allocator@D@2@@std@@@std@@V?$_Compressed_pair@V?$allocator@U?$_Tree_node@U?$pair@$$CBV?$basic_string@DU?$char_traits@D@std@@V?$allocator@D@2@@std@@V?$shared_ptr@VRawImageData@@@2@@std@@PAX@std@@@std@@V?$_Tree_val@U?$_Tree_simple_types@U?$pair@$$CBV?$basic_string@DU?$char_traits@D@std@@V?$allocator@D@2@@std@@V?$shared_ptr@VRawImageData@@@2@@std@@@std@@@2@$00@2@$00@std@@QAE@U_One_then_variadic_args_t@1@ABU?$less@V?$basic_string@DU?$char_traits@D@std@@V?$allocator@D@2@@std@@@1@$$QAU_Zero_then_variadic_args_t@1@@Z 00407220 f i Arrow.obj
 0001:00006270       ??$?0ABU?$less@V?$basic_string@DU?$char_traits@D@std@@V?$allocator@D@2@@std@@@std@@U_Zero_then_variadic_args_t@1@@?$_Compressed_pair@U?$less@V?$basic_string@DU?$char_traits@D@std@@V?$allocator@D@2@@std@@@std@@V?$_Compressed_pair@V?$allocator@U?$_Tree_node@U?$pair@$$CBV?$basic_string@DU?$char_traits@D@std@@V?$allocator@D@2@@std@@V?$weak_ptr@VRawImageData@@@2@@std@@PAX@std@@@std@@V?$_Tree_val@U?$_Tree_simple_types@U?$pair@$$CBV?$basic_string@DU?$char_traits@D@std@@V?$allocator@D@2@@std@@V?$weak_ptr@VRawImageData@@@2@@std@@@std@@@2@$00@2@$00@std@@QAE@U_One_then_variadic_args_t@1@ABU?$less@V?$basic_string@DU?$char_traits@D@std@@V?$allocator@D@2@@std@@@1@$$QAU_Zero_then_variadic_args_t@1@@Z 00407270 f i Arrow.obj
 0001:000062c0       ??$?0D@?$allocator@U_Container_proxy@std@@@std@@QAE@ABV?$allocator@D@1@@Z 004072c0 f i Arrow.obj
 0001:000062e0       ??$?0PAU?$_Tree_node@U?$pair@$$CBV?$basic_string@DU?$char_traits@D@std@@V?$allocator@D@2@@std@@V?$shared_ptr@VRawImageData@@@2@@std@@PAX@std@@_N$0A@@?$pair@PAU?$_Tree_node@U?$pair@$$CBV?$basic_string@DU?$char_traits@D@std@@V?$allocator@D@2@@std@@V?$shared_ptr@VRawImageData@@@2@@std@@PAX@std@@_N@std@@QAE@$$QAPAU?$_Tree_node@U?$pair@$$CBV?$basic_string@DU?$char_traits@D@std@@V?$allocator@D@2@@std@@V?$shared_ptr@VRawImageData@@@2@@std@@PAX@1@$$QA_N@Z 004072e0 f i Arrow.obj
 0001:00006330       ??$?0PAU?$_Tree_node@U?$pair@$$CBV?$basic_string@DU?$char_traits@D@std@@V?$allocator@D@2@@std@@V?$weak_ptr@VRawImageData@@@2@@std@@PAX@std@@_N$0A@@?$pair@PAU?$_Tree_node@U?$pair@$$CBV?$basic_string@DU?$char_traits@D@std@@V?$allocator@D@2@@std@@V?$weak_ptr@VRawImageData@@@2@@std@@PAX@std@@_N@std@@QAE@$$QAPAU?$_Tree_node@U?$pair@$$CBV?$basic_string@DU?$char_traits@D@std@@V?$allocator@D@2@@std@@V?$weak_ptr@VRawImageData@@@2@@std@@PAX@1@$$QA_N@Z 00407330 f i Arrow.obj
 0001:00006380       ??$?0U?$_Tree_node@U?$pair@$$CBV?$basic_string@DU?$char_traits@D@std@@V?$allocator@D@2@@std@@V?$shared_ptr@VRawImageData@@@2@@std@@PAX@std@@@?$allocator@U_Container_proxy@std@@@std@@QAE@ABV?$allocator@U?$_Tree_node@U?$pair@$$CBV?$basic_string@DU?$char_traits@D@std@@V?$allocator@D@2@@std@@V?$shared_ptr@VRawImageData@@@2@@std@@PAX@std@@@1@@Z 00407380 f i Arrow.obj
 0001:000063a0       ??$?0U?$_Tree_node@U?$pair@$$CBV?$basic_string@DU?$char_traits@D@std@@V?$allocator@D@2@@std@@V?$weak_ptr@VRawImageData@@@2@@std@@PAX@std@@@?$allocator@U_Container_proxy@std@@@std@@QAE@ABV?$allocator@U?$_Tree_node@U?$pair@$$CBV?$basic_string@DU?$char_traits@D@std@@V?$allocator@D@2@@std@@V?$weak_ptr@VRawImageData@@@2@@std@@PAX@std@@@1@@Z 004073a0 f i Arrow.obj
 0001:000063c0       ??$?0U?$pair@V?$basic_string@DU?$char_traits@D@std@@V?$allocator@D@2@@std@@V?$shared_ptr@VRawImageData@@@2@@std@@@?$_Tree_temp_node@V?$allocator@U?$_Tree_node@U?$pair@$$CBV?$basic_string@DU?$char_traits@D@std@@V?$allocator@D@2@@std@@V?$shared_ptr@VRawImageData@@@2@@std@@PAX@std@@@std@@@std@@QAE@AAV?$allocator@U?$_Tree_node@U?$pair@$$CBV?$basic_string@DU?$char_traits@D@std@@V?$allocator@D@2@@std@@V?$shared_ptr@VRawImageData@@@2@@std@@PAX@std@@@1@PAU?$_Tree_node@U?$pair@$$CBV?$basic_string@DU?$char_traits@D@std@@V?$allocator@D@2@@std@@V?$shared_ptr@VRawImageData@@@2@@std@@PAX@1@$$QAU?$pair@V?$basic_string@DU?$char_traits@D@std@@V?$allocator@D@2@@std@@V?$shared_ptr@VRawImageData@@@2@@1@@Z 004073c0 f i Arrow.obj
 0001:000064d0       ??$?0U?$pair@V?$basic_string@DU?$char_traits@D@std@@V?$allocator@D@2@@std@@V?$weak_ptr@VRawImageData@@@2@@std@@@?$_Tree_temp_node@V?$allocator@U?$_Tree_node@U?$pair@$$CBV?$basic_string@DU?$char_traits@D@std@@V?$allocator@D@2@@std@@V?$weak_ptr@VRawImageData@@@2@@std@@PAX@std@@@std@@@std@@QAE@AAV?$allocator@U?$_Tree_node@U?$pair@$$CBV?$basic_string@DU?$char_traits@D@std@@V?$allocator@D@2@@std@@V?$weak_ptr@VRawImageData@@@2@@std@@PAX@std@@@1@PAU?$_Tree_node@U?$pair@$$CBV?$basic_string@DU?$char_traits@D@std@@V?$allocator@D@2@@std@@V?$weak_ptr@VRawImageData@@@2@@std@@PAX@1@$$QAU?$pair@V?$basic_string@DU?$char_traits@D@std@@V?$allocator@D@2@@std@@V?$weak_ptr@VRawImageData@@@2@@1@@Z 004074d0 f i Arrow.obj
 0001:000065e0       ??$?0V?$_Tree_iterator@V?$_Tree_val@U?$_Tree_simple_types@U?$pair@$$CBV?$basic_string@DU?$char_traits@D@std@@V?$allocator@D@2@@std@@V?$shared_ptr@VRawImageData@@@2@@std@@@std@@@std@@@std@@AB_N$0A@@?$pair@V?$_Tree_iterator@V?$_Tree_val@U?$_Tree_simple_types@U?$pair@$$CBV?$basic_string@DU?$char_traits@D@std@@V?$allocator@D@2@@std@@V?$shared_ptr@VRawImageData@@@2@@std@@@std@@@std@@@std@@_N@std@@QAE@$$QAV?$_Tree_iterator@V?$_Tree_val@U?$_Tree_simple_types@U?$pair@$$CBV?$basic_string@DU?$char_traits@D@std@@V?$allocator@D@2@@std@@V?$shared_ptr@VRawImageData@@@2@@std@@@std@@@std@@@1@AB_N@Z 004075e0 f i Arrow.obj
 0001:00006630       ??$?0V?$_Tree_iterator@V?$_Tree_val@U?$_Tree_simple_types@U?$pair@$$CBV?$basic_string@DU?$char_traits@D@std@@V?$allocator@D@2@@std@@V?$weak_ptr@VRawImageData@@@2@@std@@@std@@@std@@@std@@AB_N$0A@@?$pair@V?$_Tree_iterator@V?$_Tree_val@U?$_Tree_simple_types@U?$pair@$$CBV?$basic_string@DU?$char_traits@D@std@@V?$allocator@D@2@@std@@V?$weak_ptr@VRawImageData@@@2@@std@@@std@@@std@@@std@@_N@std@@QAE@$$QAV?$_Tree_iterator@V?$_Tree_val@U?$_Tree_simple_types@U?$pair@$$CBV?$basic_string@DU?$char_traits@D@std@@V?$allocator@D@2@@std@@V?$weak_ptr@VRawImageData@@@2@@std@@@std@@@std@@@1@AB_N@Z 00407630 f i Arrow.obj
 0001:00006680       ??$?0V?$allocator@D@std@@$$V@?$_Compressed_pair@V?$allocator@D@std@@V?$_String_val@U?$_Simple_types@D@std@@@2@$00@std@@QAE@U_One_then_variadic_args_t@1@$$QAV?$allocator@D@1@@Z 00407680 f i Arrow.obj
 0001:000066b0       ??$?0V?$basic_string@DU?$char_traits@D@std@@V?$allocator@D@2@@std@@V?$shared_ptr@VRawImageData@@@1@$0A@@?$pair@$$CBV?$basic_string@DU?$char_traits@D@std@@V?$allocator@D@2@@std@@V?$shared_ptr@VRawImageData@@@2@@std@@QAE@$$QAU?$pair@V?$basic_string@DU?$char_traits@D@std@@V?$allocator@D@2@@std@@V?$shared_ptr@VRawImageData@@@2@@1@@Z 004076b0 f i Arrow.obj
 0001:00006700       ??$?0V?$basic_string@DU?$char_traits@D@std@@V?$allocator@D@2@@std@@V?$weak_ptr@VRawImageData@@@1@$0A@@?$pair@$$CBV?$basic_string@DU?$char_traits@D@std@@V?$allocator@D@2@@std@@V?$weak_ptr@VRawImageData@@@2@@std@@QAE@$$QAU?$pair@V?$basic_string@DU?$char_traits@D@std@@V?$allocator@D@2@@std@@V?$weak_ptr@VRawImageData@@@2@@1@@Z 00407700 f i Arrow.obj
 0001:00006750       ??$?0VRawImageData@@$0A@@?$shared_ptr@VRawImageData@@@std@@QAE@PAVRawImageData@@@Z 00407750 f i Arrow.obj
 0001:00006840       ??$?0VRawImageData@@$0A@@?$weak_ptr@VRawImageData@@@std@@QAE@ABV?$shared_ptr@VRawImageData@@@1@@Z 00407840 f i Arrow.obj
 0001:00006870       ??$?6DU?$char_traits@D@std@@V?$allocator@D@1@@std@@YAAAV?$basic_ostream@DU?$char_traits@D@std@@@0@AAV10@ABV?$basic_string@DU?$char_traits@D@std@@V?$allocator@D@2@@0@@Z 00407870 f i Arrow.obj
 0001:000068a0       ??$?6U?$char_traits@D@std@@@std@@YAAAV?$basic_ostream@DU?$char_traits@D@std@@@0@AAV10@PBD@Z 004078a0 f i Arrow.obj
 0001:00006ca0       ??$?9VRawImageData@@@std@@YA_NABV?$shared_ptr@VRawImageData@@@0@$$T@Z 00407ca0 f i Arrow.obj
 0001:00006cd0       ??$?CVRawImageData@@$0A@@?$shared_ptr@VRawImageData@@@std@@QBEPAVRawImageData@@XZ 00407cd0 f i Arrow.obj
 0001:00006cf0       ??$?MDU?$char_traits@D@std@@V?$allocator@D@1@@std@@YA_NABV?$basic_string@DU?$char_traits@D@std@@V?$allocator@D@2@@0@0@Z 00407cf0 f i Arrow.obj
 0001:00006d30       ??$_Alloc_proxy@V?$allocator@U_Container_proxy@std@@@std@@@_Container_base12@std@@QAEX$$QAV?$allocator@U_Container_proxy@std@@@1@@Z 00407d30 f i Arrow.obj
 0001:00006d90       ??$_Allocate@$07U_Default_allocate_traits@std@@$0A@@std@@YAPAXI@Z 00407d90 f i Arrow.obj
 0001:00006dd0       ??$_Allocate_manually_vector_aligned@U_Default_allocate_traits@std@@@std@@YAPAXI@Z 00407dd0 f i Arrow.obj
 0001:00006ec0       ??$_Buyheadnode@V?$allocator@U?$_Tree_node@U?$pair@$$CBV?$basic_string@DU?$char_traits@D@std@@V?$allocator@D@2@@std@@V?$shared_ptr@VRawImageData@@@2@@std@@PAX@std@@@std@@@?$_Tree_node@U?$pair@$$CBV?$basic_string@DU?$char_traits@D@std@@V?$allocator@D@2@@std@@V?$shared_ptr@VRawImageData@@@2@@std@@PAX@std@@SAPAU01@AAV?$allocator@U?$_Tree_node@U?$pair@$$CBV?$basic_string@DU?$char_traits@D@std@@V?$allocator@D@2@@std@@V?$shared_ptr@VRawImageData@@@2@@std@@PAX@std@@@1@@Z 00407ec0 f i Arrow.obj
 0001:00006f40       ??$_Buyheadnode@V?$allocator@U?$_Tree_node@U?$pair@$$CBV?$basic_string@DU?$char_traits@D@std@@V?$allocator@D@2@@std@@V?$weak_ptr@VRawImageData@@@2@@std@@PAX@std@@@std@@@?$_Tree_node@U?$pair@$$CBV?$basic_string@DU?$char_traits@D@std@@V?$allocator@D@2@@std@@V?$weak_ptr@VRawImageData@@@2@@std@@PAX@std@@SAPAU01@AAV?$allocator@U?$_Tree_node@U?$pair@$$CBV?$basic_string@DU?$char_traits@D@std@@V?$allocator@D@2@@std@@V?$weak_ptr@VRawImageData@@@2@@std@@PAX@std@@@1@@Z 00407f40 f i Arrow.obj
 0001:00006fc0       ??$_Construct@$00PBD@?$basic_string@DU?$char_traits@D@std@@V?$allocator@D@2@@std@@AAEXQBDI@Z 00407fc0 f i Arrow.obj
 0001:000071e0       ??$_Construct@$01PBD@?$basic_string@DU?$char_traits@D@std@@V?$allocator@D@2@@std@@AAEXQBDI@Z 004081e0 f i Arrow.obj
 0001:000073b0       ??$_Construct_from_weak@VRawImageData@@@?$_Ptr_base@VRawImageData@@@std@@IAE_NABV?$weak_ptr@VRawImageData@@@1@@Z 004083b0 f i Arrow.obj
 0001:00007410       ??$_Construct_in_place@PADAAPAD@std@@YAXAAPAD0@Z 00408410 f i Arrow.obj
 0001:00007460       ??$_Construct_in_place@PADABQAD@std@@YAXAAPADABQAD@Z 00408460 f i Arrow.obj
 0001:000074b0       ??$_Construct_in_place@PAU?$_Tree_node@U?$pair@$$CBV?$basic_string@DU?$char_traits@D@std@@V?$allocator@D@2@@std@@V?$shared_ptr@VRawImageData@@@2@@std@@PAX@std@@AAPAU12@@std@@YAXAAPAU?$_Tree_node@U?$pair@$$CBV?$basic_string@DU?$char_traits@D@std@@V?$allocator@D@2@@std@@V?$shared_ptr@VRawImageData@@@2@@std@@PAX@0@0@Z 004084b0 f i Arrow.obj
 0001:00007500       ??$_Construct_in_place@PAU?$_Tree_node@U?$pair@$$CBV?$basic_string@DU?$char_traits@D@std@@V?$allocator@D@2@@std@@V?$shared_ptr@VRawImageData@@@2@@std@@PAX@std@@ABQAU12@@std@@YAXAAPAU?$_Tree_node@U?$pair@$$CBV?$basic_string@DU?$char_traits@D@std@@V?$allocator@D@2@@std@@V?$shared_ptr@VRawImageData@@@2@@std@@PAX@0@ABQAU10@@Z 00408500 f i Arrow.obj
 0001:00007550       ??$_Construct_in_place@PAU?$_Tree_node@U?$pair@$$CBV?$basic_string@DU?$char_traits@D@std@@V?$allocator@D@2@@std@@V?$weak_ptr@VRawImageData@@@2@@std@@PAX@std@@AAPAU12@@std@@YAXAAPAU?$_Tree_node@U?$pair@$$CBV?$basic_string@DU?$char_traits@D@std@@V?$allocator@D@2@@std@@V?$weak_ptr@VRawImageData@@@2@@std@@PAX@0@0@Z 00408550 f i Arrow.obj
 0001:000075a0       ??$_Construct_in_place@PAU?$_Tree_node@U?$pair@$$CBV?$basic_string@DU?$char_traits@D@std@@V?$allocator@D@2@@std@@V?$weak_ptr@VRawImageData@@@2@@std@@PAX@std@@ABQAU12@@std@@YAXAAPAU?$_Tree_node@U?$pair@$$CBV?$basic_string@DU?$char_traits@D@std@@V?$allocator@D@2@@std@@V?$weak_ptr@VRawImageData@@@2@@std@@PAX@0@ABQAU10@@Z 004085a0 f i Arrow.obj
 0001:000075f0       ??$_Construct_in_place@U_Container_proxy@std@@PAU_Container_base12@2@@std@@YAXAAU_Container_proxy@0@$$QAPAU_Container_base12@0@@Z 004085f0 f i Arrow.obj
 0001:00007650       ??$_Convert_size@I@std@@YAII@Z 00408650 f i Arrow.obj
 0001:00007660       ??$_Copy_construct_from@VRawImageData@@@?$_Ptr_base@VRawImageData@@@std@@IAEXABV?$shared_ptr@VRawImageData@@@1@@Z 00408660 f i Arrow.obj
 0001:000076a0       ??$_Deallocate@$07$0A@@std@@YAXPAXI@Z 004086a0 f i Arrow.obj
 0001:00007720       ??$_Deallocate_plain@V?$allocator@U_Container_proxy@std@@@std@@@std@@YAXAAV?$allocator@U_Container_proxy@std@@@0@QAU_Container_proxy@0@@Z 00408720 f i Arrow.obj
 0001:00007780       ??$_Debug_lt_pred@ABU?$less@V?$basic_string@DU?$char_traits@D@std@@V?$allocator@D@2@@std@@@std@@ABV?$basic_string@DU?$char_traits@D@std@@V?$allocator@D@2@@2@ABV32@$0A@@std@@YA_NABU?$less@V?$basic_string@DU?$char_traits@D@std@@V?$allocator@D@2@@std@@@0@ABV?$basic_string@DU?$char_traits@D@std@@V?$allocator@D@2@@0@1@Z 00408780 f i Arrow.obj
 0001:00007830       ??$_Delete_plain_internal@V?$allocator@U_Container_proxy@std@@@std@@@std@@YAXAAV?$allocator@U_Container_proxy@std@@@0@QAU_Container_proxy@0@@Z 00408830 f i Arrow.obj
 0001:00007850       ??$_Destroy_in_place@PAD@std@@YAXAAPAD@Z 00408850 f i Arrow.obj
 0001:00007860       ??$_Destroy_in_place@PAU?$_Tree_node@U?$pair@$$CBV?$basic_string@DU?$char_traits@D@std@@V?$allocator@D@2@@std@@V?$shared_ptr@VRawImageData@@@2@@std@@PAX@std@@@std@@YAXAAPAU?$_Tree_node@U?$pair@$$CBV?$basic_string@DU?$char_traits@D@std@@V?$allocator@D@2@@std@@V?$shared_ptr@VRawImageData@@@2@@std@@PAX@0@@Z 00408860 f i Arrow.obj
 0001:00007870       ??$_Destroy_in_place@PAU?$_Tree_node@U?$pair@$$CBV?$basic_string@DU?$char_traits@D@std@@V?$allocator@D@2@@std@@V?$weak_ptr@VRawImageData@@@2@@std@@PAX@std@@@std@@YAXAAPAU?$_Tree_node@U?$pair@$$CBV?$basic_string@DU?$char_traits@D@std@@V?$allocator@D@2@@std@@V?$weak_ptr@VRawImageData@@@2@@std@@PAX@0@@Z 00408870 f i Arrow.obj
 0001:00007880       ??$_Emplace@U?$pair@V?$basic_string@DU?$char_traits@D@std@@V?$allocator@D@2@@std@@V?$shared_ptr@VRawImageData@@@2@@std@@@?$_Tree@V?$_Tmap_traits@V?$basic_string@DU?$char_traits@D@std@@V?$allocator@D@2@@std@@V?$shared_ptr@VRawImageData@@@2@U?$less@V?$basic_string@DU?$char_traits@D@std@@V?$allocator@D@2@@std@@@2@V?$allocator@U?$pair@$$CBV?$basic_string@DU?$char_traits@D@std@@V?$allocator@D@2@@std@@V?$shared_ptr@VRawImageData@@@2@@std@@@2@$0A@@std@@@std@@IAE?AU?$pair@PAU?$_Tree_node@U?$pair@$$CBV?$basic_string@DU?$char_traits@D@std@@V?$allocator@D@2@@std@@V?$shared_ptr@VRawImageData@@@2@@std@@PAX@std@@_N@1@$$QAU?$pair@V?$basic_string@DU?$char_traits@D@std@@V?$allocator@D@2@@std@@V?$shared_ptr@VRawImageData@@@2@@1@@Z 00408880 f i Arrow.obj
 0001:000079b0       ??$_Emplace@U?$pair@V?$basic_string@DU?$char_traits@D@std@@V?$allocator@D@2@@std@@V?$weak_ptr@VRawImageData@@@2@@std@@@?$_Tree@V?$_Tmap_traits@V?$basic_string@DU?$char_traits@D@std@@V?$allocator@D@2@@std@@V?$weak_ptr@VRawImageData@@@2@U?$less@V?$basic_string@DU?$char_traits@D@std@@V?$allocator@D@2@@std@@@2@V?$allocator@U?$pair@$$CBV?$basic_string@DU?$char_traits@D@std@@V?$allocator@D@2@@std@@V?$weak_ptr@VRawImageData@@@2@@std@@@2@$0A@@std@@@std@@IAE?AU?$pair@PAU?$_Tree_node@U?$pair@$$CBV?$basic_string@DU?$char_traits@D@std@@V?$allocator@D@2@@std@@V?$weak_ptr@VRawImageData@@@2@@std@@PAX@std@@_N@1@$$QAU?$pair@V?$basic_string@DU?$char_traits@D@std@@V?$allocator@D@2@@std@@V?$weak_ptr@VRawImageData@@@2@@1@@Z 004089b0 f i Arrow.obj
 0001:00007ae0       ??$_Erase_head@V?$allocator@U?$_Tree_node@U?$pair@$$CBV?$basic_string@DU?$char_traits@D@std@@V?$allocator@D@2@@std@@V?$weak_ptr@VRawImageData@@@2@@std@@PAX@std@@@std@@@?$_Tree_val@U?$_Tree_simple_types@U?$pair@$$CBV?$basic_string@DU?$char_traits@D@std@@V?$allocator@D@2@@std@@V?$weak_ptr@VRawImageData@@@2@@std@@@std@@@std@@QAEXAAV?$allocator@U?$_Tree_node@U?$pair@$$CBV?$basic_string@DU?$char_traits@D@std@@V?$allocator@D@2@@std@@V?$weak_ptr@VRawImageData@@@2@@std@@PAX@std@@@1@@Z 00408ae0 f i Arrow.obj
 0001:00007b30       ??$_Erase_tree@V?$allocator@U?$_Tree_node@U?$pair@$$CBV?$basic_string@DU?$char_traits@D@std@@V?$allocator@D@2@@std@@V?$weak_ptr@VRawImageData@@@2@@std@@PAX@std@@@std@@@?$_Tree_val@U?$_Tree_simple_types@U?$pair@$$CBV?$basic_string@DU?$char_traits@D@std@@V?$allocator@D@2@@std@@V?$weak_ptr@VRawImageData@@@2@@std@@@std@@@std@@QAEXAAV?$allocator@U?$_Tree_node@U?$pair@$$CBV?$basic_string@DU?$char_traits@D@std@@V?$allocator@D@2@@std@@V?$weak_ptr@VRawImageData@@@2@@std@@PAX@std@@@1@PAU?$_Tree_node@U?$pair@$$CBV?$basic_string@DU?$char_traits@D@std@@V?$allocator@D@2@@std@@V?$weak_ptr@VRawImageData@@@2@@std@@PAX@1@@Z 00408b30 f i Arrow.obj
 0001:00007b90       ??$_Find@V?$basic_string@DU?$char_traits@D@std@@V?$allocator@D@2@@std@@@?$_Tree@V?$_Tmap_traits@V?$basic_string@DU?$char_traits@D@std@@V?$allocator@D@2@@std@@V?$weak_ptr@VRawImageData@@@2@U?$less@V?$basic_string@DU?$char_traits@D@std@@V?$allocator@D@2@@std@@@2@V?$allocator@U?$pair@$$CBV?$basic_string@DU?$char_traits@D@std@@V?$allocator@D@2@@std@@V?$weak_ptr@VRawImageData@@@2@@std@@@2@$0A@@std@@@std@@ABEPAU?$_Tree_node@U?$pair@$$CBV?$basic_string@DU?$char_traits@D@std@@V?$allocator@D@2@@std@@V?$weak_ptr@VRawImageData@@@2@@std@@PAX@1@ABV?$basic_string@DU?$char_traits@D@std@@V?$allocator@D@2@@1@@Z 00408b90 f i Arrow.obj
 0001:00007bf0       ??$_Find_lower_bound@V?$basic_string@DU?$char_traits@D@std@@V?$allocator@D@2@@std@@@?$_Tree@V?$_Tmap_traits@V?$basic_string@DU?$char_traits@D@std@@V?$allocator@D@2@@std@@V?$shared_ptr@VRawImageData@@@2@U?$less@V?$basic_string@DU?$char_traits@D@std@@V?$allocator@D@2@@std@@@2@V?$allocator@U?$pair@$$CBV?$basic_string@DU?$char_traits@D@std@@V?$allocator@D@2@@std@@V?$shared_ptr@VRawImageData@@@2@@std@@@2@$0A@@std@@@std@@IBE?AU?$_Tree_find_result@PAU?$_Tree_node@U?$pair@$$CBV?$basic_string@DU?$char_traits@D@std@@V?$allocator@D@2@@std@@V?$shared_ptr@VRawImageData@@@2@@std@@PAX@std@@@1@ABV?$basic_string@DU?$char_traits@D@std@@V?$allocator@D@2@@1@@Z 00408bf0 f i Arrow.obj
 0001:00007ce0       ??$_Find_lower_bound@V?$basic_string@DU?$char_traits@D@std@@V?$allocator@D@2@@std@@@?$_Tree@V?$_Tmap_traits@V?$basic_string@DU?$char_traits@D@std@@V?$allocator@D@2@@std@@V?$weak_ptr@VRawImageData@@@2@U?$less@V?$basic_string@DU?$char_traits@D@std@@V?$allocator@D@2@@std@@@2@V?$allocator@U?$pair@$$CBV?$basic_string@DU?$char_traits@D@std@@V?$allocator@D@2@@std@@V?$weak_ptr@VRawImageData@@@2@@std@@@2@$0A@@std@@@std@@IBE?AU?$_Tree_find_result@PAU?$_Tree_node@U?$pair@$$CBV?$basic_string@DU?$char_traits@D@std@@V?$allocator@D@2@@std@@V?$weak_ptr@VRawImageData@@@2@@std@@PAX@std@@@1@ABV?$basic_string@DU?$char_traits@D@std@@V?$allocator@D@2@@1@@Z 00408ce0 f i Arrow.obj
 0001:00007dd0       ??$_Freenode0@V?$allocator@U?$_Tree_node@U?$pair@$$CBV?$basic_string@DU?$char_traits@D@std@@V?$allocator@D@2@@std@@V?$weak_ptr@VRawImageData@@@2@@std@@PAX@std@@@std@@@?$_Tree_node@U?$pair@$$CBV?$basic_string@DU?$char_traits@D@std@@V?$allocator@D@2@@std@@V?$weak_ptr@VRawImageData@@@2@@std@@PAX@std@@SAXAAV?$allocator@U?$_Tree_node@U?$pair@$$CBV?$basic_string@DU?$char_traits@D@std@@V?$allocator@D@2@@std@@V?$weak_ptr@VRawImageData@@@2@@std@@PAX@std@@@1@PAU01@@Z 00408dd0 f i Arrow.obj
 0001:00007e60       ??$_Freenode@V?$allocator@U?$_Tree_node@U?$pair@$$CBV?$basic_string@DU?$char_traits@D@std@@V?$allocator@D@2@@std@@V?$weak_ptr@VRawImageData@@@2@@std@@PAX@std@@@std@@@?$_Tree_node@U?$pair@$$CBV?$basic_string@DU?$char_traits@D@std@@V?$allocator@D@2@@std@@V?$weak_ptr@VRawImageData@@@2@@std@@PAX@std@@SAXAAV?$allocator@U?$_Tree_node@U?$pair@$$CBV?$basic_string@DU?$char_traits@D@std@@V?$allocator@D@2@@std@@V?$weak_ptr@VRawImageData@@@2@@std@@PAX@std@@@1@PAU01@@Z 00408e60 f i Arrow.obj
 0001:00007ee0       ??$_Get_size_of_n@$00@std@@YAII@Z 00408ee0 f i Arrow.obj
 0001:00007f00       ??$_Get_size_of_n@$07@std@@YAII@Z 00408f00 f i Arrow.obj
 0001:00007f40       ??$_Get_size_of_n@$0DE@@std@@YAII@Z 00408f40 f i Arrow.obj
 0001:00007f70       ??$_Insert_string@DU?$char_traits@D@std@@I@std@@YAAAV?$basic_ostream@DU?$char_traits@D@std@@@0@AAV10@QBDI@Z 00408f70 f i Arrow.obj
 0001:000082f0       ??$_Kfn@$$CBV?$basic_string@DU?$char_traits@D@std@@V?$allocator@D@2@@std@@V?$shared_ptr@VRawImageData@@@2@@?$_Tmap_traits@V?$basic_string@DU?$char_traits@D@std@@V?$allocator@D@2@@std@@V?$shared_ptr@VRawImageData@@@2@U?$less@V?$basic_string@DU?$char_traits@D@std@@V?$allocator@D@2@@std@@@2@V?$allocator@U?$pair@$$CBV?$basic_string@DU?$char_traits@D@std@@V?$allocator@D@2@@std@@V?$shared_ptr@VRawImageData@@@2@@std@@@2@$0A@@std@@SAABV?$basic_string@DU?$char_traits@D@std@@V?$allocator@D@2@@1@ABU?$pair@$$CBV?$basic_string@DU?$char_traits@D@std@@V?$allocator@D@2@@std@@V?$shared_ptr@VRawImageData@@@2@@1@@Z 004092f0 f i Arrow.obj
 0001:00008300       ??$_Kfn@$$CBV?$basic_string@DU?$char_traits@D@std@@V?$allocator@D@2@@std@@V?$weak_ptr@VRawImageData@@@2@@?$_Tmap_traits@V?$basic_string@DU?$char_traits@D@std@@V?$allocator@D@2@@std@@V?$weak_ptr@VRawImageData@@@2@U?$less@V?$basic_string@DU?$char_traits@D@std@@V?$allocator@D@2@@std@@@2@V?$allocator@U?$pair@$$CBV?$basic_string@DU?$char_traits@D@std@@V?$allocator@D@2@@std@@V?$weak_ptr@VRawImageData@@@2@@std@@@2@$0A@@std@@SAABV?$basic_string@DU?$char_traits@D@std@@V?$allocator@D@2@@1@ABU?$pair@$$CBV?$basic_string@DU?$char_traits@D@std@@V?$allocator@D@2@@std@@V?$weak_ptr@VRawImageData@@@2@@1@@Z 00409300 f i Arrow.obj
 0001:00008310       ??$_Lower_bound_duplicate@V?$basic_string@DU?$char_traits@D@std@@V?$allocator@D@2@@std@@@?$_Tree@V?$_Tmap_traits@V?$basic_string@DU?$char_traits@D@std@@V?$allocator@D@2@@std@@V?$shared_ptr@VRawImageData@@@2@U?$less@V?$basic_string@DU?$char_traits@D@std@@V?$allocator@D@2@@std@@@2@V?$allocator@U?$pair@$$CBV?$basic_string@DU?$char_traits@D@std@@V?$allocator@D@2@@std@@V?$shared_ptr@VRawImageData@@@2@@std@@@2@$0A@@std@@@std@@IBE_NQAU?$_Tree_node@U?$pair@$$CBV?$basic_string@DU?$char_traits@D@std@@V?$allocator@D@2@@std@@V?$shared_ptr@VRawImageData@@@2@@std@@PAX@1@ABV?$basic_string@DU?$char_traits@D@std@@V?$allocator@D@2@@1@@Z 00409310 f i Arrow.obj
 0001:00008380       ??$_Lower_bound_duplicate@V?$basic_string@DU?$char_traits@D@std@@V?$allocator@D@2@@std@@@?$_Tree@V?$_Tmap_traits@V?$basic_string@DU?$char_traits@D@std@@V?$allocator@D@2@@std@@V?$weak_ptr@VRawImageData@@@2@U?$less@V?$basic_string@DU?$char_traits@D@std@@V?$allocator@D@2@@std@@@2@V?$allocator@U?$pair@$$CBV?$basic_string@DU?$char_traits@D@std@@V?$allocator@D@2@@std@@V?$weak_ptr@VRawImageData@@@2@@std@@@2@$0A@@std@@@std@@IBE_NQAU?$_Tree_node@U?$pair@$$CBV?$basic_string@DU?$char_traits@D@std@@V?$allocator@D@2@@std@@V?$weak_ptr@VRawImageData@@@2@@std@@PAX@1@ABV?$basic_string@DU?$char_traits@D@std@@V?$allocator@D@2@@1@@Z 00409380 f i Arrow.obj
 0001:000083f0       ??$_Move_construct_from@VRawImageData@@@?$_Ptr_base@VRawImageData@@@std@@IAEX$$QAV01@@Z 004093f0 f i Arrow.obj
 0001:00008440       ??$_Set_ptr_rep_and_enable_shared@VRawImageData@@@?$shared_ptr@VRawImageData@@@std@@AAEXQAVRawImageData@@QAV_Ref_count_base@1@@Z 00409440 f i Arrow.obj
 0001:00008470       ??$_Traits_compare@U?$char_traits@D@std@@@std@@YAHQBDI0I@Z 00409470 f i Arrow.obj
 0001:000084e0       ??$_Unfancy@D@std@@YAPADPAD@Z 004094e0 f i Arrow.obj
 0001:000084f0       ??$_Unfancy@U_Container_proxy@std@@@std@@YAPAU_Container_proxy@0@PAU10@@Z 004094f0 f i Arrow.obj
 0001:00008500       ??$_Voidify_iter@PAPAD@std@@YAPAXPAPAD@Z 00409500 f i Arrow.obj
 0001:00008510       ??$_Voidify_iter@PAPAU?$_Tree_node@U?$pair@$$CBV?$basic_string@DU?$char_traits@D@std@@V?$allocator@D@2@@std@@V?$shared_ptr@VRawImageData@@@2@@std@@PAX@std@@@std@@YAPAXPAPAU?$_Tree_node@U?$pair@$$CBV?$basic_string@DU?$char_traits@D@std@@V?$allocator@D@2@@std@@V?$shared_ptr@VRawImageData@@@2@@std@@PAX@0@@Z 00409510 f i Arrow.obj
 0001:00008520       ??$_Voidify_iter@PAPAU?$_Tree_node@U?$pair@$$CBV?$basic_string@DU?$char_traits@D@std@@V?$allocator@D@2@@std@@V?$weak_ptr@VRawImageData@@@2@@std@@PAX@std@@@std@@YAPAXPAPAU?$_Tree_node@U?$pair@$$CBV?$basic_string@DU?$char_traits@D@std@@V?$allocator@D@2@@std@@V?$weak_ptr@VRawImageData@@@2@@std@@PAX@0@@Z 00409520 f i Arrow.obj
 0001:00008530       ??$_Voidify_iter@PAU?$pair@$$CBV?$basic_string@DU?$char_traits@D@std@@V?$allocator@D@2@@std@@V?$shared_ptr@VRawImageData@@@2@@std@@@std@@YAPAXPAU?$pair@$$CBV?$basic_string@DU?$char_traits@D@std@@V?$allocator@D@2@@std@@V?$shared_ptr@VRawImageData@@@2@@0@@Z 00409530 f i Arrow.obj
 0001:00008540       ??$_Voidify_iter@PAU?$pair@$$CBV?$basic_string@DU?$char_traits@D@std@@V?$allocator@D@2@@std@@V?$weak_ptr@VRawImageData@@@2@@std@@@std@@YAPAXPAU?$pair@$$CBV?$basic_string@DU?$char_traits@D@std@@V?$allocator@D@2@@std@@V?$weak_ptr@VRawImageData@@@2@@0@@Z 00409540 f i Arrow.obj
 0001:00008550       ??$_Voidify_iter@PAU_Container_proxy@std@@@std@@YAPAXPAU_Container_proxy@0@@Z 00409550 f i Arrow.obj
 0001:00008560       ??$_Weakly_construct_from@VRawImageData@@@?$_Ptr_base@VRawImageData@@@std@@IAEXABV01@@Z 00409560 f i Arrow.obj
 0001:000085b0       ??$addressof@$$CBV?$_String_val@U?$_Simple_types@D@std@@@std@@@std@@YAPBV?$_String_val@U?$_Simple_types@D@std@@@0@ABV10@@Z 004095b0 f i Arrow.obj
 0001:000085c0       ??$addressof@$$CBV?$_Tree_val@U?$_Tree_simple_types@U?$pair@$$CBV?$basic_string@DU?$char_traits@D@std@@V?$allocator@D@2@@std@@V?$shared_ptr@VRawImageData@@@2@@std@@@std@@@std@@@std@@YAPBV?$_Tree_val@U?$_Tree_simple_types@U?$pair@$$CBV?$basic_string@DU?$char_traits@D@std@@V?$allocator@D@2@@std@@V?$shared_ptr@VRawImageData@@@2@@std@@@std@@@0@ABV10@@Z 004095c0 f i Arrow.obj
 0001:000085d0       ??$addressof@$$CBV?$_Tree_val@U?$_Tree_simple_types@U?$pair@$$CBV?$basic_string@DU?$char_traits@D@std@@V?$allocator@D@2@@std@@V?$weak_ptr@VRawImageData@@@2@@std@@@std@@@std@@@std@@YAPBV?$_Tree_val@U?$_Tree_simple_types@U?$pair@$$CBV?$basic_string@DU?$char_traits@D@std@@V?$allocator@D@2@@std@@V?$weak_ptr@VRawImageData@@@2@@std@@@std@@@0@ABV10@@Z 004095d0 f i Arrow.obj
 0001:000085e0       ??$addressof@PAD@std@@YAPAPADAAPAD@Z 004095e0 f i Arrow.obj
 0001:000085f0       ??$addressof@PAU?$_Tree_node@U?$pair@$$CBV?$basic_string@DU?$char_traits@D@std@@V?$allocator@D@2@@std@@V?$shared_ptr@VRawImageData@@@2@@std@@PAX@std@@@std@@YAPAPAU?$_Tree_node@U?$pair@$$CBV?$basic_string@DU?$char_traits@D@std@@V?$allocator@D@2@@std@@V?$shared_ptr@VRawImageData@@@2@@std@@PAX@0@AAPAU10@@Z 004095f0 f i Arrow.obj
 0001:00008600       ??$addressof@PAU?$_Tree_node@U?$pair@$$CBV?$basic_string@DU?$char_traits@D@std@@V?$allocator@D@2@@std@@V?$weak_ptr@VRawImageData@@@2@@std@@PAX@std@@@std@@YAPAPAU?$_Tree_node@U?$pair@$$CBV?$basic_string@DU?$char_traits@D@std@@V?$allocator@D@2@@std@@V?$weak_ptr@VRawImageData@@@2@@std@@PAX@0@AAPAU10@@Z 00409600 f i Arrow.obj
 0001:00008610       ??$addressof@U?$pair@$$CBV?$basic_string@DU?$char_traits@D@std@@V?$allocator@D@2@@std@@V?$shared_ptr@VRawImageData@@@2@@std@@@std@@YAPAU?$pair@$$CBV?$basic_string@DU?$char_traits@D@std@@V?$allocator@D@2@@std@@V?$shared_ptr@VRawImageData@@@2@@0@AAU10@@Z 00409610 f i Arrow.obj
 0001:00008620       ??$addressof@U?$pair@$$CBV?$basic_string@DU?$char_traits@D@std@@V?$allocator@D@2@@std@@V?$weak_ptr@VRawImageData@@@2@@std@@@std@@YAPAU?$pair@$$CBV?$basic_string@DU?$char_traits@D@std@@V?$allocator@D@2@@std@@V?$weak_ptr@VRawImageData@@@2@@0@AAU10@@Z 00409620 f i Arrow.obj
 0001:00008630       ??$addressof@U_Container_base12@std@@@std@@YAPAU_Container_base12@0@AAU10@@Z 00409630 f i Arrow.obj
 0001:00008640       ??$addressof@U_Container_proxy@std@@@std@@YAPAU_Container_proxy@0@AAU10@@Z 00409640 f i Arrow.obj
 0001:00008650       ??$addressof@V?$_String_val@U?$_Simple_types@D@std@@@std@@@std@@YAPAV?$_String_val@U?$_Simple_types@D@std@@@0@AAV10@@Z 00409650 f i Arrow.obj
 0001:00008660       ??$addressof@V?$_Tree_val@U?$_Tree_simple_types@U?$pair@$$CBV?$basic_string@DU?$char_traits@D@std@@V?$allocator@D@2@@std@@V?$shared_ptr@VRawImageData@@@2@@std@@@std@@@std@@@std@@YAPAV?$_Tree_val@U?$_Tree_simple_types@U?$pair@$$CBV?$basic_string@DU?$char_traits@D@std@@V?$allocator@D@2@@std@@V?$shared_ptr@VRawImageData@@@2@@std@@@std@@@0@AAV10@@Z 00409660 f i Arrow.obj
 0001:00008670       ??$addressof@V?$_Tree_val@U?$_Tree_simple_types@U?$pair@$$CBV?$basic_string@DU?$char_traits@D@std@@V?$allocator@D@2@@std@@V?$weak_ptr@VRawImageData@@@2@@std@@@std@@@std@@@std@@YAPAV?$_Tree_val@U?$_Tree_simple_types@U?$pair@$$CBV?$basic_string@DU?$char_traits@D@std@@V?$allocator@D@2@@std@@V?$weak_ptr@VRawImageData@@@2@@std@@@std@@@0@AAV10@@Z 00409670 f i Arrow.obj
 0001:00008680       ??$construct@U?$pair@$$CBV?$basic_string@DU?$char_traits@D@std@@V?$allocator@D@2@@std@@V?$shared_ptr@VRawImageData@@@2@@std@@U?$pair@V?$basic_string@DU?$char_traits@D@std@@V?$allocator@D@2@@std@@V?$shared_ptr@VRawImageData@@@2@@2@@?$_Default_allocator_traits@V?$allocator@U?$_Tree_node@U?$pair@$$CBV?$basic_string@DU?$char_traits@D@std@@V?$allocator@D@2@@std@@V?$shared_ptr@VRawImageData@@@2@@std@@PAX@std@@@std@@@std@@SAXAAV?$allocator@U?$_Tree_node@U?$pair@$$CBV?$basic_string@DU?$char_traits@D@std@@V?$allocator@D@2@@std@@V?$shared_ptr@VRawImageData@@@2@@std@@PAX@std@@@1@QAU?$pair@$$CBV?$basic_string@DU?$char_traits@D@std@@V?$allocator@D@2@@std@@V?$shared_ptr@VRawImageData@@@2@@1@$$QAU?$pair@V?$basic_string@DU?$char_traits@D@std@@V?$allocator@D@2@@std@@V?$shared_ptr@VRawImageData@@@2@@1@@Z 00409680 f i Arrow.obj
 0001:000086d0       ??$construct@U?$pair@$$CBV?$basic_string@DU?$char_traits@D@std@@V?$allocator@D@2@@std@@V?$weak_ptr@VRawImageData@@@2@@std@@U?$pair@V?$basic_string@DU?$char_traits@D@std@@V?$allocator@D@2@@std@@V?$weak_ptr@VRawImageData@@@2@@2@@?$_Default_allocator_traits@V?$allocator@U?$_Tree_node@U?$pair@$$CBV?$basic_string@DU?$char_traits@D@std@@V?$allocator@D@2@@std@@V?$weak_ptr@VRawImageData@@@2@@std@@PAX@std@@@std@@@std@@SAXAAV?$allocator@U?$_Tree_node@U?$pair@$$CBV?$basic_string@DU?$char_traits@D@std@@V?$allocator@D@2@@std@@V?$weak_ptr@VRawImageData@@@2@@std@@PAX@std@@@1@QAU?$pair@$$CBV?$basic_string@DU?$char_traits@D@std@@V?$allocator@D@2@@std@@V?$weak_ptr@VRawImageData@@@2@@1@$$QAU?$pair@V?$basic_string@DU?$char_traits@D@std@@V?$allocator@D@2@@std@@V?$weak_ptr@VRawImageData@@@2@@1@@Z 004096d0 f i Arrow.obj
 0001:00008720       ??$destroy@U?$pair@$$CBV?$basic_string@DU?$char_traits@D@std@@V?$allocator@D@2@@std@@V?$shared_ptr@VRawImageData@@@2@@std@@@?$_Default_allocator_traits@V?$allocator@U?$_Tree_node@U?$pair@$$CBV?$basic_string@DU?$char_traits@D@std@@V?$allocator@D@2@@std@@V?$shared_ptr@VRawImageData@@@2@@std@@PAX@std@@@std@@@std@@SAXAAV?$allocator@U?$_Tree_node@U?$pair@$$CBV?$basic_string@DU?$char_traits@D@std@@V?$allocator@D@2@@std@@V?$shared_ptr@VRawImageData@@@2@@std@@PAX@std@@@1@QAU?$pair@$$CBV?$basic_string@DU?$char_traits@D@std@@V?$allocator@D@2@@std@@V?$shared_ptr@VRawImageData@@@2@@1@@Z 00409720 f i Arrow.obj
 0001:00008740       ??$destroy@U?$pair@$$CBV?$basic_string@DU?$char_traits@D@std@@V?$allocator@D@2@@std@@V?$weak_ptr@VRawImageData@@@2@@std@@@?$_Default_allocator_traits@V?$allocator@U?$_Tree_node@U?$pair@$$CBV?$basic_string@DU?$char_traits@D@std@@V?$allocator@D@2@@std@@V?$weak_ptr@VRawImageData@@@2@@std@@PAX@std@@@std@@@std@@SAXAAV?$allocator@U?$_Tree_node@U?$pair@$$CBV?$basic_string@DU?$char_traits@D@std@@V?$allocator@D@2@@std@@V?$weak_ptr@VRawImageData@@@2@@std@@PAX@std@@@1@QAU?$pair@$$CBV?$basic_string@DU?$char_traits@D@std@@V?$allocator@D@2@@std@@V?$weak_ptr@VRawImageData@@@2@@1@@Z 00409740 f i Arrow.obj
 0001:00008760       ??$emplace@U?$pair@V?$basic_string@DU?$char_traits@D@std@@V?$allocator@D@2@@std@@V?$shared_ptr@VRawImageData@@@2@@std@@@?$_Tree@V?$_Tmap_traits@V?$basic_string@DU?$char_traits@D@std@@V?$allocator@D@2@@std@@V?$shared_ptr@VRawImageData@@@2@U?$less@V?$basic_string@DU?$char_traits@D@std@@V?$allocator@D@2@@std@@@2@V?$allocator@U?$pair@$$CBV?$basic_string@DU?$char_traits@D@std@@V?$allocator@D@2@@std@@V?$shared_ptr@VRawImageData@@@2@@std@@@2@$0A@@std@@@std@@QAE?AU?$pair@V?$_Tree_iterator@V?$_Tree_val@U?$_Tree_simple_types@U?$pair@$$CBV?$basic_string@DU?$char_traits@D@std@@V?$allocator@D@2@@std@@V?$shared_ptr@VRawImageData@@@2@@std@@@std@@@std@@@std@@_N@1@$$QAU?$pair@V?$basic_string@DU?$char_traits@D@std@@V?$allocator@D@2@@std@@V?$shared_ptr@VRawImageData@@@2@@1@@Z 00409760 f i Arrow.obj
 0001:000087f0       ??$emplace@U?$pair@V?$basic_string@DU?$char_traits@D@std@@V?$allocator@D@2@@std@@V?$weak_ptr@VRawImageData@@@2@@std@@@?$_Tree@V?$_Tmap_traits@V?$basic_string@DU?$char_traits@D@std@@V?$allocator@D@2@@std@@V?$weak_ptr@VRawImageData@@@2@U?$less@V?$basic_string@DU?$char_traits@D@std@@V?$allocator@D@2@@std@@@2@V?$allocator@U?$pair@$$CBV?$basic_string@DU?$char_traits@D@std@@V?$allocator@D@2@@std@@V?$weak_ptr@VRawImageData@@@2@@std@@@2@$0A@@std@@@std@@QAE?AU?$pair@V?$_Tree_iterator@V?$_Tree_val@U?$_Tree_simple_types@U?$pair@$$CBV?$basic_string@DU?$char_traits@D@std@@V?$allocator@D@2@@std@@V?$weak_ptr@VRawImageData@@@2@@std@@@std@@@std@@@std@@_N@1@$$QAU?$pair@V?$basic_string@DU?$char_traits@D@std@@V?$allocator@D@2@@std@@V?$weak_ptr@VRawImageData@@@2@@1@@Z 004097f0 f i Arrow.obj
 0001:00008880       ??$endl@DU?$char_traits@D@std@@@std@@YAAAV?$basic_ostream@DU?$char_traits@D@std@@@0@AAV10@@Z 00409880 f i Arrow.obj
 0001:000088c0       ??$erase@V?$_Tree_iterator@V?$_Tree_val@U?$_Tree_simple_types@U?$pair@$$CBV?$basic_string@DU?$char_traits@D@std@@V?$allocator@D@2@@std@@V?$weak_ptr@VRawImageData@@@2@@std@@@std@@@std@@@std@@$0A@@?$_Tree@V?$_Tmap_traits@V?$basic_string@DU?$char_traits@D@std@@V?$allocator@D@2@@std@@V?$weak_ptr@VRawImageData@@@2@U?$less@V?$basic_string@DU?$char_traits@D@std@@V?$allocator@D@2@@std@@@2@V?$allocator@U?$pair@$$CBV?$basic_string@DU?$char_traits@D@std@@V?$allocator@D@2@@std@@V?$weak_ptr@VRawImageData@@@2@@std@@@2@$0A@@std@@@std@@QAE?AV?$_Tree_iterator@V?$_Tree_val@U?$_Tree_simple_types@U?$pair@$$CBV?$basic_string@DU?$char_traits@D@std@@V?$allocator@D@2@@std@@V?$weak_ptr@VRawImageData@@@2@@std@@@std@@@std@@@1@V21@@Z 004098c0 f i Arrow.obj
 0001:00008a10       ??$exchange@PAU?$_Tree_node@U?$pair@$$CBV?$basic_string@DU?$char_traits@D@std@@V?$allocator@D@2@@std@@V?$shared_ptr@VRawImageData@@@2@@std@@PAX@std@@$$T@std@@YAPAU?$_Tree_node@U?$pair@$$CBV?$basic_string@DU?$char_traits@D@std@@V?$allocator@D@2@@std@@V?$shared_ptr@VRawImageData@@@2@@std@@PAX@0@AAPAU10@$$QA$$T@Z 00409a10 f i Arrow.obj
 0001:00008a40       ??$exchange@PAU?$_Tree_node@U?$pair@$$CBV?$basic_string@DU?$char_traits@D@std@@V?$allocator@D@2@@std@@V?$weak_ptr@VRawImageData@@@2@@std@@PAX@std@@$$T@std@@YAPAU?$_Tree_node@U?$pair@$$CBV?$basic_string@DU?$char_traits@D@std@@V?$allocator@D@2@@std@@V?$weak_ptr@VRawImageData@@@2@@std@@PAX@0@AAPAU10@$$QA$$T@Z 00409a40 f i Arrow.obj
 0001:00008a70       ??$exchange@PAU?$_Tree_node@U?$pair@$$CBV?$basic_string@DU?$char_traits@D@std@@V?$allocator@D@2@@std@@V?$weak_ptr@VRawImageData@@@2@@std@@PAX@std@@AAPAU12@@std@@YAPAU?$_Tree_node@U?$pair@$$CBV?$basic_string@DU?$char_traits@D@std@@V?$allocator@D@2@@std@@V?$weak_ptr@VRawImageData@@@2@@std@@PAX@0@AAPAU10@0@Z 00409a70 f i Arrow.obj
 0001:00008aa0       ??$forward@AAPAD@std@@YAAAPADAAPAD@Z 00409aa0 f i Arrow.obj
 0001:00008ab0       ??$forward@AAPAU?$_Tree_node@U?$pair@$$CBV?$basic_string@DU?$char_traits@D@std@@V?$allocator@D@2@@std@@V?$shared_ptr@VRawImageData@@@2@@std@@PAX@std@@@std@@YAAAPAU?$_Tree_node@U?$pair@$$CBV?$basic_string@DU?$char_traits@D@std@@V?$allocator@D@2@@std@@V?$shared_ptr@VRawImageData@@@2@@std@@PAX@0@AAPAU10@@Z 00409ab0 f i Arrow.obj
 0001:00008ac0       ??$forward@AAPAU?$_Tree_node@U?$pair@$$CBV?$basic_string@DU?$char_traits@D@std@@V?$allocator@D@2@@std@@V?$weak_ptr@VRawImageData@@@2@@std@@PAX@std@@@std@@YAAAPAU?$_Tree_node@U?$pair@$$CBV?$basic_string@DU?$char_traits@D@std@@V?$allocator@D@2@@std@@V?$weak_ptr@VRawImageData@@@2@@std@@PAX@0@AAPAU10@@Z 00409ac0 f i Arrow.obj
 0001:00008ad0       ??$forward@AAV?$basic_string@DU?$char_traits@D@std@@V?$allocator@D@2@@std@@@std@@YAAAV?$basic_string@DU?$char_traits@D@std@@V?$allocator@D@2@@0@AAV10@@Z 00409ad0 f i Arrow.obj
 0001:00008ae0       ??$forward@AAV?$shared_ptr@VRawImageData@@@std@@@std@@YAAAV?$shared_ptr@VRawImageData@@@0@AAV10@@Z 00409ae0 f i Arrow.obj
 0001:00008af0       ??$forward@AAV?$weak_ptr@VRawImageData@@@std@@@std@@YAAAV?$weak_ptr@VRawImageData@@@0@AAV10@@Z 00409af0 f i Arrow.obj
 0001:00008b00       ??$forward@ABQAD@std@@YAABQADABQAD@Z 00409b00 f i Arrow.obj
 0001:00008b10       ??$forward@ABQAU?$_Tree_node@U?$pair@$$CBV?$basic_string@DU?$char_traits@D@std@@V?$allocator@D@2@@std@@V?$shared_ptr@VRawImageData@@@2@@std@@PAX@std@@@std@@YAABQAU?$_Tree_node@U?$pair@$$CBV?$basic_string@DU?$char_traits@D@std@@V?$allocator@D@2@@std@@V?$shared_ptr@VRawImageData@@@2@@std@@PAX@0@ABQAU10@@Z 00409b10 f i Arrow.obj
 0001:00008b20       ??$forward@ABQAU?$_Tree_node@U?$pair@$$CBV?$basic_string@DU?$char_traits@D@std@@V?$allocator@D@2@@std@@V?$weak_ptr@VRawImageData@@@2@@std@@PAX@std@@@std@@YAABQAU?$_Tree_node@U?$pair@$$CBV?$basic_string@DU?$char_traits@D@std@@V?$allocator@D@2@@std@@V?$weak_ptr@VRawImageData@@@2@@std@@PAX@0@ABQAU10@@Z 00409b20 f i Arrow.obj
 0001:00008b30       ??$forward@ABU?$less@V?$basic_string@DU?$char_traits@D@std@@V?$allocator@D@2@@std@@@std@@@std@@YAABU?$less@V?$basic_string@DU?$char_traits@D@std@@V?$allocator@D@2@@std@@@0@ABU10@@Z 00409b30 f i Arrow.obj
 0001:00008b40       ??$forward@AB_N@std@@YAAB_NAB_N@Z 00409b40 f i Arrow.obj
 0001:00008b50       ??$forward@PAU?$_Tree_node@U?$pair@$$CBV?$basic_string@DU?$char_traits@D@std@@V?$allocator@D@2@@std@@V?$shared_ptr@VRawImageData@@@2@@std@@PAX@std@@@std@@YA$$QAPAU?$_Tree_node@U?$pair@$$CBV?$basic_string@DU?$char_traits@D@std@@V?$allocator@D@2@@std@@V?$shared_ptr@VRawImageData@@@2@@std@@PAX@0@AAPAU10@@Z 00409b50 f i Arrow.obj
 0001:00008b60       ??$forward@PAU?$_Tree_node@U?$pair@$$CBV?$basic_string@DU?$char_traits@D@std@@V?$allocator@D@2@@std@@V?$weak_ptr@VRawImageData@@@2@@std@@PAX@std@@@std@@YA$$QAPAU?$_Tree_node@U?$pair@$$CBV?$basic_string@DU?$char_traits@D@std@@V?$allocator@D@2@@std@@V?$weak_ptr@VRawImageData@@@2@@std@@PAX@0@AAPAU10@@Z 00409b60 f i Arrow.obj
 0001:00008b70       ??$forward@PAU_Container_base12@std@@@std@@YA$$QAPAU_Container_base12@0@AAPAU10@@Z 00409b70 f i Arrow.obj
 0001:00008b80       ??$forward@U?$pair@V?$basic_string@DU?$char_traits@D@std@@V?$allocator@D@2@@std@@V?$shared_ptr@VRawImageData@@@2@@std@@@std@@YA$$QAU?$pair@V?$basic_string@DU?$char_traits@D@std@@V?$allocator@D@2@@std@@V?$shared_ptr@VRawImageData@@@2@@0@AAU10@@Z 00409b80 f i Arrow.obj
 0001:00008b90       ??$forward@U?$pair@V?$basic_string@DU?$char_traits@D@std@@V?$allocator@D@2@@std@@V?$weak_ptr@VRawImageData@@@2@@std@@@std@@YA$$QAU?$pair@V?$basic_string@DU?$char_traits@D@std@@V?$allocator@D@2@@std@@V?$weak_ptr@VRawImageData@@@2@@0@AAU10@@Z 00409b90 f i Arrow.obj
 0001:00008ba0       ??$forward@U_Zero_then_variadic_args_t@std@@@std@@YA$$QAU_Zero_then_variadic_args_t@0@AAU10@@Z 00409ba0 f i Arrow.obj
 0001:00008bb0       ??$forward@V?$_Tree_iterator@V?$_Tree_val@U?$_Tree_simple_types@U?$pair@$$CBV?$basic_string@DU?$char_traits@D@std@@V?$allocator@D@2@@std@@V?$shared_ptr@VRawImageData@@@2@@std@@@std@@@std@@@std@@@std@@YA$$QAV?$_Tree_iterator@V?$_Tree_val@U?$_Tree_simple_types@U?$pair@$$CBV?$basic_string@DU?$char_traits@D@std@@V?$allocator@D@2@@std@@V?$shared_ptr@VRawImageData@@@2@@std@@@std@@@std@@@0@AAV10@@Z 00409bb0 f i Arrow.obj
 0001:00008bc0       ??$forward@V?$_Tree_iterator@V?$_Tree_val@U?$_Tree_simple_types@U?$pair@$$CBV?$basic_string@DU?$char_traits@D@std@@V?$allocator@D@2@@std@@V?$weak_ptr@VRawImageData@@@2@@std@@@std@@@std@@@std@@@std@@YA$$QAV?$_Tree_iterator@V?$_Tree_val@U?$_Tree_simple_types@U?$pair@$$CBV?$basic_string@DU?$char_traits@D@std@@V?$allocator@D@2@@std@@V?$weak_ptr@VRawImageData@@@2@@std@@@std@@@std@@@0@AAV10@@Z 00409bc0 f i Arrow.obj
 0001:00008bd0       ??$forward@V?$allocator@D@std@@@std@@YA$$QAV?$allocator@D@0@AAV10@@Z 00409bd0 f i Arrow.obj
 0001:00008be0       ??$forward@V?$basic_string@DU?$char_traits@D@std@@V?$allocator@D@2@@std@@@std@@YA$$QAV?$basic_string@DU?$char_traits@D@std@@V?$allocator@D@2@@0@AAV10@@Z 00409be0 f i Arrow.obj
 0001:00008bf0       ??$forward@V?$shared_ptr@VRawImageData@@@std@@@std@@YA$$QAV?$shared_ptr@VRawImageData@@@0@AAV10@@Z 00409bf0 f i Arrow.obj
 0001:00008c00       ??$forward@V?$weak_ptr@VRawImageData@@@std@@@std@@YA$$QAV?$weak_ptr@VRawImageData@@@0@AAV10@@Z 00409c00 f i Arrow.obj
 0001:00008c10       ??$forward@_N@std@@YA$$QA_NAA_N@Z 00409c10 f i Arrow.obj
 0001:00008c20       ??$insert@U?$pair@V?$basic_string@DU?$char_traits@D@std@@V?$allocator@D@2@@std@@V?$shared_ptr@VRawImageData@@@2@@std@@$0A@@?$map@V?$basic_string@DU?$char_traits@D@std@@V?$allocator@D@2@@std@@V?$shared_ptr@VRawImageData@@@2@U?$less@V?$basic_string@DU?$char_traits@D@std@@V?$allocator@D@2@@std@@@2@V?$allocator@U?$pair@$$CBV?$basic_string@DU?$char_traits@D@std@@V?$allocator@D@2@@std@@V?$shared_ptr@VRawImageData@@@2@@std@@@2@@std@@QAE?AU?$pair@V?$_Tree_iterator@V?$_Tree_val@U?$_Tree_simple_types@U?$pair@$$CBV?$basic_string@DU?$char_traits@D@std@@V?$allocator@D@2@@std@@V?$shared_ptr@VRawImageData@@@2@@std@@@std@@@std@@@std@@_N@1@$$QAU?$pair@V?$basic_string@DU?$char_traits@D@std@@V?$allocator@D@2@@std@@V?$shared_ptr@VRawImageData@@@2@@1@@Z 00409c20 f i Arrow.obj
 0001:00008c70       ??$insert@U?$pair@V?$basic_string@DU?$char_traits@D@std@@V?$allocator@D@2@@std@@V?$weak_ptr@VRawImageData@@@2@@std@@$0A@@?$map@V?$basic_string@DU?$char_traits@D@std@@V?$allocator@D@2@@std@@V?$weak_ptr@VRawImageData@@@2@U?$less@V?$basic_string@DU?$char_traits@D@std@@V?$allocator@D@2@@std@@@2@V?$allocator@U?$pair@$$CBV?$basic_string@DU?$char_traits@D@std@@V?$allocator@D@2@@std@@V?$weak_ptr@VRawImageData@@@2@@std@@@2@@std@@QAE?AU?$pair@V?$_Tree_iterator@V?$_Tree_val@U?$_Tree_simple_types@U?$pair@$$CBV?$basic_string@DU?$char_traits@D@std@@V?$allocator@D@2@@std@@V?$weak_ptr@VRawImageData@@@2@@std@@@std@@@std@@@std@@_N@1@$$QAU?$pair@V?$basic_string@DU?$char_traits@D@std@@V?$allocator@D@2@@std@@V?$weak_ptr@VRawImageData@@@2@@1@@Z 00409c70 f i Arrow.obj
 0001:00008cc0       ??$max@I@std@@YAABIABI0@Z  00409cc0 f i Arrow.obj
 0001:00008d00       ??$min@I@std@@YAABIABI0@Z  00409d00 f i Arrow.obj
 0001:00008d40       ??$move@AAD@std@@YA$$QADAAD@Z 00409d40 f i Arrow.obj
 0001:00008d50       ??$move@AAV?$allocator@D@std@@@std@@YA$$QAV?$allocator@D@0@AAV10@@Z 00409d50 f i Arrow.obj
 0001:00008d60       ??$move@AAV?$shared_ptr@VRawImageData@@@std@@@std@@YA$$QAV?$shared_ptr@VRawImageData@@@0@AAV10@@Z 00409d60 f i Arrow.obj
 0001:00008d70       ??$move@AAV?$weak_ptr@VRawImageData@@@std@@@std@@YA$$QAV?$weak_ptr@VRawImageData@@@0@AAV10@@Z 00409d70 f i Arrow.obj
 0001:00008d80       ??$swap@D$0A@@std@@YAXAAD0@Z 00409d80 f i Arrow.obj
 0001:00008dd0       ??0?$_Alloc_construct_ptr@V?$allocator@U?$_Tree_node@U?$pair@$$CBV?$basic_string@DU?$char_traits@D@std@@V?$allocator@D@2@@std@@V?$shared_ptr@VRawImageData@@@2@@std@@PAX@std@@@std@@@std@@QAE@AAV?$allocator@U?$_Tree_node@U?$pair@$$CBV?$basic_string@DU?$char_traits@D@std@@V?$allocator@D@2@@std@@V?$shared_ptr@VRawImageData@@@2@@std@@PAX@std@@@1@@Z 00409dd0 f i Arrow.obj
 0001:00008e00       ??0?$_Alloc_construct_ptr@V?$allocator@U?$_Tree_node@U?$pair@$$CBV?$basic_string@DU?$char_traits@D@std@@V?$allocator@D@2@@std@@V?$weak_ptr@VRawImageData@@@2@@std@@PAX@std@@@std@@@std@@QAE@AAV?$allocator@U?$_Tree_node@U?$pair@$$CBV?$basic_string@DU?$char_traits@D@std@@V?$allocator@D@2@@std@@V?$weak_ptr@VRawImageData@@@2@@std@@PAX@std@@@1@@Z 00409e00 f i Arrow.obj
 0001:00008e30       ??0?$_Container_proxy_ptr12@V?$allocator@U_Container_proxy@std@@@std@@@std@@QAE@AAV?$allocator@U_Container_proxy@std@@@1@AAU_Container_base12@1@@Z 00409e30 f i Arrow.obj
 0001:00008eb0       ??0?$_Ptr_base@VRawImageData@@@std@@IAE@XZ 00409eb0 f i Arrow.obj
 0001:00008ee0       ??0?$_Ref_count@VRawImageData@@@std@@QAE@PAVRawImageData@@@Z 00409ee0 f i Arrow.obj
 0001:00008f30       ??0?$_String_val@U?$_Simple_types@D@std@@@std@@QAE@XZ 00409f30 f i Arrow.obj
 0001:00008f80       ??0?$_Temporary_owner@VRawImageData@@@std@@QAE@QAVRawImageData@@@Z 00409f80 f i Arrow.obj
 0001:00008fa0       ??0?$_Tree@V?$_Tmap_traits@V?$basic_string@DU?$char_traits@D@std@@V?$allocator@D@2@@std@@V?$shared_ptr@VRawImageData@@@2@U?$less@V?$basic_string@DU?$char_traits@D@std@@V?$allocator@D@2@@std@@@2@V?$allocator@U?$pair@$$CBV?$basic_string@DU?$char_traits@D@std@@V?$allocator@D@2@@std@@V?$shared_ptr@VRawImageData@@@2@@std@@@2@$0A@@std@@@std@@QAE@ABU?$less@V?$basic_string@DU?$char_traits@D@std@@V?$allocator@D@2@@std@@@1@@Z 00409fa0 f i Arrow.obj
 0001:00008fe0       ??0?$_Tree@V?$_Tmap_traits@V?$basic_string@DU?$char_traits@D@std@@V?$allocator@D@2@@std@@V?$weak_ptr@VRawImageData@@@2@U?$less@V?$basic_string@DU?$char_traits@D@std@@V?$allocator@D@2@@std@@@2@V?$allocator@U?$pair@$$CBV?$basic_string@DU?$char_traits@D@std@@V?$allocator@D@2@@std@@V?$weak_ptr@VRawImageData@@@2@@std@@@2@$0A@@std@@@std@@QAE@ABU?$less@V?$basic_string@DU?$char_traits@D@std@@V?$allocator@D@2@@std@@@1@@Z 00409fe0 f i Arrow.obj
 0001:00009020       ??0?$_Tree_const_iterator@V?$_Tree_val@U?$_Tree_simple_types@U?$pair@$$CBV?$basic_string@DU?$char_traits@D@std@@V?$allocator@D@2@@std@@V?$shared_ptr@VRawImageData@@@2@@std@@@std@@@std@@@std@@QAE@$$QAV01@@Z 0040a020 f i Arrow.obj
 0001:00009050       ??0?$_Tree_const_iterator@V?$_Tree_val@U?$_Tree_simple_types@U?$pair@$$CBV?$basic_string@DU?$char_traits@D@std@@V?$allocator@D@2@@std@@V?$shared_ptr@VRawImageData@@@2@@std@@@std@@@std@@@std@@QAE@PAU?$_Tree_node@U?$pair@$$CBV?$basic_string@DU?$char_traits@D@std@@V?$allocator@D@2@@std@@V?$shared_ptr@VRawImageData@@@2@@std@@PAX@1@PBV?$_Tree_val@U?$_Tree_simple_types@U?$pair@$$CBV?$basic_string@DU?$char_traits@D@std@@V?$allocator@D@2@@std@@V?$shared_ptr@VRawImageData@@@2@@std@@@std@@@1@@Z 0040a050 f i Arrow.obj
 0001:00009080       ??0?$_Tree_const_iterator@V?$_Tree_val@U?$_Tree_simple_types@U?$pair@$$CBV?$basic_string@DU?$char_traits@D@std@@V?$allocator@D@2@@std@@V?$weak_ptr@VRawImageData@@@2@@std@@@std@@@std@@@std@@QAE@$$QAV01@@Z 0040a080 f i Arrow.obj
 0001:000090b0       ??0?$_Tree_const_iterator@V?$_Tree_val@U?$_Tree_simple_types@U?$pair@$$CBV?$basic_string@DU?$char_traits@D@std@@V?$allocator@D@2@@std@@V?$weak_ptr@VRawImageData@@@2@@std@@@std@@@std@@@std@@QAE@ABV01@@Z 0040a0b0 f i Arrow.obj
 0001:000090e0       ??0?$_Tree_const_iterator@V?$_Tree_val@U?$_Tree_simple_types@U?$pair@$$CBV?$basic_string@DU?$char_traits@D@std@@V?$allocator@D@2@@std@@V?$weak_ptr@VRawImageData@@@2@@std@@@std@@@std@@@std@@QAE@PAU?$_Tree_node@U?$pair@$$CBV?$basic_string@DU?$char_traits@D@std@@V?$allocator@D@2@@std@@V?$weak_ptr@VRawImageData@@@2@@std@@PAX@1@PBV?$_Tree_val@U?$_Tree_simple_types@U?$pair@$$CBV?$basic_string@DU?$char_traits@D@std@@V?$allocator@D@2@@std@@V?$weak_ptr@VRawImageData@@@2@@std@@@std@@@1@@Z 0040a0e0 f i Arrow.obj
 0001:00009110       ??0?$_Tree_iterator@V?$_Tree_val@U?$_Tree_simple_types@U?$pair@$$CBV?$basic_string@DU?$char_traits@D@std@@V?$allocator@D@2@@std@@V?$shared_ptr@VRawImageData@@@2@@std@@@std@@@std@@@std@@QAE@$$QAV01@@Z 0040a110 f i Arrow.obj
 0001:00009140       ??0?$_Tree_iterator@V?$_Tree_val@U?$_Tree_simple_types@U?$pair@$$CBV?$basic_string@DU?$char_traits@D@std@@V?$allocator@D@2@@std@@V?$shared_ptr@VRawImageData@@@2@@std@@@std@@@std@@@std@@QAE@PAU?$_Tree_node@U?$pair@$$CBV?$basic_string@DU?$char_traits@D@std@@V?$allocator@D@2@@std@@V?$shared_ptr@VRawImageData@@@2@@std@@PAX@1@PBV?$_Tree_val@U?$_Tree_simple_types@U?$pair@$$CBV?$basic_string@DU?$char_traits@D@std@@V?$allocator@D@2@@std@@V?$shared_ptr@VRawImageData@@@2@@std@@@std@@@1@@Z 0040a140 f i Arrow.obj
 0001:00009170       ??0?$_Tree_iterator@V?$_Tree_val@U?$_Tree_simple_types@U?$pair@$$CBV?$basic_string@DU?$char_traits@D@std@@V?$allocator@D@2@@std@@V?$weak_ptr@VRawImageData@@@2@@std@@@std@@@std@@@std@@QAE@$$QAV01@@Z 0040a170 f i Arrow.obj
 0001:000091a0       ??0?$_Tree_iterator@V?$_Tree_val@U?$_Tree_simple_types@U?$pair@$$CBV?$basic_string@DU?$char_traits@D@std@@V?$allocator@D@2@@std@@V?$weak_ptr@VRawImageData@@@2@@std@@@std@@@std@@@std@@QAE@ABV01@@Z 0040a1a0 f i Arrow.obj
 0001:000091d0       ??0?$_Tree_iterator@V?$_Tree_val@U?$_Tree_simple_types@U?$pair@$$CBV?$basic_string@DU?$char_traits@D@std@@V?$allocator@D@2@@std@@V?$weak_ptr@VRawImageData@@@2@@std@@@std@@@std@@@std@@QAE@PAU?$_Tree_node@U?$pair@$$CBV?$basic_string@DU?$char_traits@D@std@@V?$allocator@D@2@@std@@V?$weak_ptr@VRawImageData@@@2@@std@@PAX@1@PBV?$_Tree_val@U?$_Tree_simple_types@U?$pair@$$CBV?$basic_string@DU?$char_traits@D@std@@V?$allocator@D@2@@std@@V?$weak_ptr@VRawImageData@@@2@@std@@@std@@@1@@Z 0040a1d0 f i Arrow.obj
 0001:00009200       ??0?$_Tree_temp_node_alloc@V?$allocator@U?$_Tree_node@U?$pair@$$CBV?$basic_string@DU?$char_traits@D@std@@V?$allocator@D@2@@std@@V?$shared_ptr@VRawImageData@@@2@@std@@PAX@std@@@std@@@std@@QAE@AAV?$allocator@U?$_Tree_node@U?$pair@$$CBV?$basic_string@DU?$char_traits@D@std@@V?$allocator@D@2@@std@@V?$shared_ptr@VRawImageData@@@2@@std@@PAX@std@@@1@@Z 0040a200 f i Arrow.obj
 0001:00009280       ??0?$_Tree_temp_node_alloc@V?$allocator@U?$_Tree_node@U?$pair@$$CBV?$basic_string@DU?$char_traits@D@std@@V?$allocator@D@2@@std@@V?$weak_ptr@VRawImageData@@@2@@std@@PAX@std@@@std@@@std@@QAE@AAV?$allocator@U?$_Tree_node@U?$pair@$$CBV?$basic_string@DU?$char_traits@D@std@@V?$allocator@D@2@@std@@V?$weak_ptr@VRawImageData@@@2@@std@@PAX@std@@@1@@Z 0040a280 f i Arrow.obj
 0001:00009300       ??0?$_Tree_unchecked_const_iterator@V?$_Tree_val@U?$_Tree_simple_types@U?$pair@$$CBV?$basic_string@DU?$char_traits@D@std@@V?$allocator@D@2@@std@@V?$shared_ptr@VRawImageData@@@2@@std@@@std@@@std@@U_Iterator_base12@2@@std@@QAE@$$QAV01@@Z 0040a300 f i Arrow.obj
 0001:00009340       ??0?$_Tree_unchecked_const_iterator@V?$_Tree_val@U?$_Tree_simple_types@U?$pair@$$CBV?$basic_string@DU?$char_traits@D@std@@V?$allocator@D@2@@std@@V?$shared_ptr@VRawImageData@@@2@@std@@@std@@@std@@U_Iterator_base12@2@@std@@QAE@PAU?$_Tree_node@U?$pair@$$CBV?$basic_string@DU?$char_traits@D@std@@V?$allocator@D@2@@std@@V?$shared_ptr@VRawImageData@@@2@@std@@PAX@1@PBV?$_Tree_val@U?$_Tree_simple_types@U?$pair@$$CBV?$basic_string@DU?$char_traits@D@std@@V?$allocator@D@2@@std@@V?$shared_ptr@VRawImageData@@@2@@std@@@std@@@1@@Z 0040a340 f i Arrow.obj
 0001:00009380       ??0?$_Tree_unchecked_const_iterator@V?$_Tree_val@U?$_Tree_simple_types@U?$pair@$$CBV?$basic_string@DU?$char_traits@D@std@@V?$allocator@D@2@@std@@V?$weak_ptr@VRawImageData@@@2@@std@@@std@@@std@@U_Iterator_base0@2@@std@@QAE@PAU?$_Tree_node@U?$pair@$$CBV?$basic_string@DU?$char_traits@D@std@@V?$allocator@D@2@@std@@V?$weak_ptr@VRawImageData@@@2@@std@@PAX@1@PBV?$_Tree_val@U?$_Tree_simple_types@U?$pair@$$CBV?$basic_string@DU?$char_traits@D@std@@V?$allocator@D@2@@std@@V?$weak_ptr@VRawImageData@@@2@@std@@@std@@@1@@Z 0040a380 f i Arrow.obj
 0001:000093b0       ??0?$_Tree_unchecked_const_iterator@V?$_Tree_val@U?$_Tree_simple_types@U?$pair@$$CBV?$basic_string@DU?$char_traits@D@std@@V?$allocator@D@2@@std@@V?$weak_ptr@VRawImageData@@@2@@std@@@std@@@std@@U_Iterator_base12@2@@std@@QAE@$$QAV01@@Z 0040a3b0 f i Arrow.obj
 0001:000093f0       ??0?$_Tree_unchecked_const_iterator@V?$_Tree_val@U?$_Tree_simple_types@U?$pair@$$CBV?$basic_string@DU?$char_traits@D@std@@V?$allocator@D@2@@std@@V?$weak_ptr@VRawImageData@@@2@@std@@@std@@@std@@U_Iterator_base12@2@@std@@QAE@ABV01@@Z 0040a3f0 f i Arrow.obj
 0001:00009430       ??0?$_Tree_unchecked_const_iterator@V?$_Tree_val@U?$_Tree_simple_types@U?$pair@$$CBV?$basic_string@DU?$char_traits@D@std@@V?$allocator@D@2@@std@@V?$weak_ptr@VRawImageData@@@2@@std@@@std@@@std@@U_Iterator_base12@2@@std@@QAE@PAU?$_Tree_node@U?$pair@$$CBV?$basic_string@DU?$char_traits@D@std@@V?$allocator@D@2@@std@@V?$weak_ptr@VRawImageData@@@2@@std@@PAX@1@PBV?$_Tree_val@U?$_Tree_simple_types@U?$pair@$$CBV?$basic_string@DU?$char_traits@D@std@@V?$allocator@D@2@@std@@V?$weak_ptr@VRawImageData@@@2@@std@@@std@@@1@@Z 0040a430 f i Arrow.obj
 0001:00009470       ??0?$_Tree_unchecked_iterator@V?$_Tree_val@U?$_Tree_simple_types@U?$pair@$$CBV?$basic_string@DU?$char_traits@D@std@@V?$allocator@D@2@@std@@V?$weak_ptr@VRawImageData@@@2@@std@@@std@@@std@@@std@@QAE@PAU?$_Tree_node@U?$pair@$$CBV?$basic_string@DU?$char_traits@D@std@@V?$allocator@D@2@@std@@V?$weak_ptr@VRawImageData@@@2@@std@@PAX@1@PBV?$_Tree_val@U?$_Tree_simple_types@U?$pair@$$CBV?$basic_string@DU?$char_traits@D@std@@V?$allocator@D@2@@std@@V?$weak_ptr@VRawImageData@@@2@@std@@@std@@@1@@Z 0040a470 f i Arrow.obj
 0001:000094a0       ??0?$_Tree_val@U?$_Tree_simple_types@U?$pair@$$CBV?$basic_string@DU?$char_traits@D@std@@V?$allocator@D@2@@std@@V?$shared_ptr@VRawImageData@@@2@@std@@@std@@@std@@QAE@XZ 0040a4a0 f i Arrow.obj
 0001:000094e0       ??0?$_Tree_val@U?$_Tree_simple_types@U?$pair@$$CBV?$basic_string@DU?$char_traits@D@std@@V?$allocator@D@2@@std@@V?$weak_ptr@VRawImageData@@@2@@std@@@std@@@std@@QAE@XZ 0040a4e0 f i Arrow.obj
 0001:00009520       ??0?$allocator@D@std@@QAE@XZ 0040a520 f i Arrow.obj
 0001:00009540       ??0?$allocator@U?$_Tree_node@U?$pair@$$CBV?$basic_string@DU?$char_traits@D@std@@V?$allocator@D@2@@std@@V?$shared_ptr@VRawImageData@@@2@@std@@PAX@std@@@std@@QAE@XZ 0040a540 f i Arrow.obj
 0001:00009560       ??0?$allocator@U?$_Tree_node@U?$pair@$$CBV?$basic_string@DU?$char_traits@D@std@@V?$allocator@D@2@@std@@V?$weak_ptr@VRawImageData@@@2@@std@@PAX@std@@@std@@QAE@XZ 0040a560 f i Arrow.obj
 0001:00009580       ??0?$basic_string@DU?$char_traits@D@std@@V?$allocator@D@2@@std@@QAE@$$QAV01@@Z 0040a580 f i Arrow.obj
 0001:00009630       ??0?$basic_string@DU?$char_traits@D@std@@V?$allocator@D@2@@std@@QAE@ABV01@@Z 0040a630 f i Arrow.obj
 0001:000096e0       ??0?$basic_string@DU?$char_traits@D@std@@V?$allocator@D@2@@std@@QAE@QBD@Z 0040a6e0 f i Arrow.obj
 0001:00009780       ??0?$map@V?$basic_string@DU?$char_traits@D@std@@V?$allocator@D@2@@std@@V?$shared_ptr@VRawImageData@@@2@U?$less@V?$basic_string@DU?$char_traits@D@std@@V?$allocator@D@2@@std@@@2@V?$allocator@U?$pair@$$CBV?$basic_string@DU?$char_traits@D@std@@V?$allocator@D@2@@std@@V?$shared_ptr@VRawImageData@@@2@@std@@@2@@std@@QAE@XZ 0040a780 f i Arrow.obj
 0001:000097b0       ??0?$map@V?$basic_string@DU?$char_traits@D@std@@V?$allocator@D@2@@std@@V?$weak_ptr@VRawImageData@@@2@U?$less@V?$basic_string@DU?$char_traits@D@std@@V?$allocator@D@2@@std@@@2@V?$allocator@U?$pair@$$CBV?$basic_string@DU?$char_traits@D@std@@V?$allocator@D@2@@std@@V?$weak_ptr@VRawImageData@@@2@@std@@@2@@std@@QAE@XZ 0040a7b0 f i Arrow.obj
 0001:000097e0       ??0?$shared_ptr@VRawImageData@@@std@@QAE@$$QAV01@@Z 0040a7e0 f i Arrow.obj
 0001:00009820       ??0?$shared_ptr@VRawImageData@@@std@@QAE@$$T@Z 0040a820 f i Arrow.obj
 0001:00009840       ??0?$shared_ptr@VRawImageData@@@std@@QAE@ABV01@@Z 0040a840 f i Arrow.obj
 0001:00009870       ??0?$shared_ptr@VRawImageData@@@std@@QAE@XZ 0040a870 f i Arrow.obj
 0001:00009890       ??0?$weak_ptr@VRawImageData@@@std@@QAE@$$QAV01@@Z 0040a890 f i Arrow.obj
 0001:000098d0       ??0?$weak_ptr@VRawImageData@@@std@@QAE@ABV01@@Z 0040a8d0 f i Arrow.obj
 0001:00009900       ??0ImageManager@@QAE@XZ    0040a900 f i Arrow.obj
 0001:00009970       ??0ImagePixelMapping@@QAE@XZ 0040a970 f i Arrow.obj
 0001:00009990       ??0ImageTracking@@QAE@HHHH@Z 0040a990 f i Arrow.obj
 0001:000099f0       ??0RawImageData@@QAE@V?$basic_string@DU?$char_traits@D@std@@V?$allocator@D@2@@std@@@Z 0040a9f0 f i Arrow.obj
 0001:00009aa0       ??0_Basic_container_proxy_ptr12@std@@IAE@XZ 0040aaa0 f i Arrow.obj
 0001:00009ac0       ??0_Bxty@?$_String_val@U?$_Simple_types@D@std@@@std@@QAE@XZ 0040aac0 f i Arrow.obj
 0001:00009ae0       ??0_Container_base12@std@@QAE@XZ 0040aae0 f i Arrow.obj
 0001:00009b00       ??0_Container_proxy@std@@QAE@PAU_Container_base12@1@@Z 0040ab00 f i Arrow.obj
 0001:00009b30       ??0_Iterator_base12@std@@QAE@ABU01@@Z 0040ab30 f i Arrow.obj
 0001:00009b70       ??0_Iterator_base12@std@@QAE@XZ 0040ab70 f i Arrow.obj
 0001:00009ba0       ??0_Ref_count_base@std@@IAE@XZ 0040aba0 f i Arrow.obj
 0001:00009bd0       ??0_Sentry_base@?$basic_ostream@DU?$char_traits@D@std@@@std@@QAE@AAV12@@Z 0040abd0 f i Arrow.obj
 0001:00009c30       ??0bad_alloc@std@@AAE@QBD@Z 0040ac30 f i Arrow.obj
 0001:00009c60       ??0bad_alloc@std@@QAE@ABV01@@Z 0040ac60 f i Arrow.obj
 0001:00009c90       ??0bad_array_new_length@std@@QAE@ABV01@@Z 0040ac90 f i Arrow.obj
 0001:00009cc0       ??0bad_array_new_length@std@@QAE@XZ 0040acc0 f i Arrow.obj
 0001:00009cf0       ??0exception@std@@QAE@ABV01@@Z 0040acf0 f i Arrow.obj
 0001:00009d40       ??0exception@std@@QAE@QBDH@Z 0040ad40 f i Arrow.obj
 0001:00009d80       ??0sentry@?$basic_ostream@DU?$char_traits@D@std@@@std@@QAE@AAV12@@Z 0040ad80 f i Arrow.obj
 0001:00009e80       ??1?$_Alloc_construct_ptr@V?$allocator@U?$_Tree_node@U?$pair@$$CBV?$basic_string@DU?$char_traits@D@std@@V?$allocator@D@2@@std@@V?$shared_ptr@VRawImageData@@@2@@std@@PAX@std@@@std@@@std@@QAE@XZ 0040ae80 f i Arrow.obj
 0001:00009ef0       ??1?$_Alloc_construct_ptr@V?$allocator@U?$_Tree_node@U?$pair@$$CBV?$basic_string@DU?$char_traits@D@std@@V?$allocator@D@2@@std@@V?$weak_ptr@VRawImageData@@@2@@std@@PAX@std@@@std@@@std@@QAE@XZ 0040aef0 f i Arrow.obj
 0001:00009f60       ??1?$_Compressed_pair@V?$allocator@D@std@@V?$_String_val@U?$_Simple_types@D@std@@@2@$00@std@@QAE@XZ 0040af60 f i Arrow.obj
 0001:00009f80       ??1?$_Container_proxy_ptr12@V?$allocator@U_Container_proxy@std@@@std@@@std@@QAE@XZ 0040af80 f i Arrow.obj
 0001:00009fc0       ??1?$_Ref_count@VRawImageData@@@std@@UAE@XZ 0040afc0 f i Arrow.obj
 0001:00009fe0       ??1?$_String_val@U?$_Simple_types@D@std@@@std@@QAE@XZ 0040afe0 f i Arrow.obj
 0001:0000a000       ??1?$_Temporary_owner@VRawImageData@@@std@@QAE@XZ 0040b000 f i Arrow.obj
 0001:0000a040       ??1?$_Tree@V?$_Tmap_traits@V?$basic_string@DU?$char_traits@D@std@@V?$allocator@D@2@@std@@V?$weak_ptr@VRawImageData@@@2@U?$less@V?$basic_string@DU?$char_traits@D@std@@V?$allocator@D@2@@std@@@2@V?$allocator@U?$pair@$$CBV?$basic_string@DU?$char_traits@D@std@@V?$allocator@D@2@@std@@V?$weak_ptr@VRawImageData@@@2@@std@@@2@$0A@@std@@@std@@QAE@XZ 0040b040 f i Arrow.obj
 0001:0000a0b0       ??1?$_Tree_const_iterator@V?$_Tree_val@U?$_Tree_simple_types@U?$pair@$$CBV?$basic_string@DU?$char_traits@D@std@@V?$allocator@D@2@@std@@V?$shared_ptr@VRawImageData@@@2@@std@@@std@@@std@@@std@@QAE@XZ 0040b0b0 f i Arrow.obj
 0001:0000a0d0       ??1?$_Tree_const_iterator@V?$_Tree_val@U?$_Tree_simple_types@U?$pair@$$CBV?$basic_string@DU?$char_traits@D@std@@V?$allocator@D@2@@std@@V?$weak_ptr@VRawImageData@@@2@@std@@@std@@@std@@@std@@QAE@XZ 0040b0d0 f i Arrow.obj
 0001:0000a0f0       ??1?$_Tree_iterator@V?$_Tree_val@U?$_Tree_simple_types@U?$pair@$$CBV?$basic_string@DU?$char_traits@D@std@@V?$allocator@D@2@@std@@V?$shared_ptr@VRawImageData@@@2@@std@@@std@@@std@@@std@@QAE@XZ 0040b0f0 f i Arrow.obj
 0001:0000a110       ??1?$_Tree_iterator@V?$_Tree_val@U?$_Tree_simple_types@U?$pair@$$CBV?$basic_string@DU?$char_traits@D@std@@V?$allocator@D@2@@std@@V?$weak_ptr@VRawImageData@@@2@@std@@@std@@@std@@@std@@QAE@XZ 0040b110 f i Arrow.obj
 0001:0000a130       ??1?$_Tree_temp_node@V?$allocator@U?$_Tree_node@U?$pair@$$CBV?$basic_string@DU?$char_traits@D@std@@V?$allocator@D@2@@std@@V?$shared_ptr@VRawImageData@@@2@@std@@PAX@std@@@std@@@std@@QAE@XZ 0040b130 f i Arrow.obj
 0001:0000a200       ??1?$_Tree_temp_node@V?$allocator@U?$_Tree_node@U?$pair@$$CBV?$basic_string@DU?$char_traits@D@std@@V?$allocator@D@2@@std@@V?$weak_ptr@VRawImageData@@@2@@std@@PAX@std@@@std@@@std@@QAE@XZ 0040b200 f i Arrow.obj
 0001:0000a2d0       ??1?$_Tree_temp_node_alloc@V?$allocator@U?$_Tree_node@U?$pair@$$CBV?$basic_string@DU?$char_traits@D@std@@V?$allocator@D@2@@std@@V?$shared_ptr@VRawImageData@@@2@@std@@PAX@std@@@std@@@std@@QAE@XZ 0040b2d0 f i Arrow.obj
 0001:0000a2f0       ??1?$_Tree_temp_node_alloc@V?$allocator@U?$_Tree_node@U?$pair@$$CBV?$basic_string@DU?$char_traits@D@std@@V?$allocator@D@2@@std@@V?$weak_ptr@VRawImageData@@@2@@std@@PAX@std@@@std@@@std@@QAE@XZ 0040b2f0 f i Arrow.obj
 0001:0000a310       ??1?$_Tree_unchecked_const_iterator@V?$_Tree_val@U?$_Tree_simple_types@U?$pair@$$CBV?$basic_string@DU?$char_traits@D@std@@V?$allocator@D@2@@std@@V?$shared_ptr@VRawImageData@@@2@@std@@@std@@@std@@U_Iterator_base12@2@@std@@QAE@XZ 0040b310 f i Arrow.obj
 0001:0000a330       ??1?$_Tree_unchecked_const_iterator@V?$_Tree_val@U?$_Tree_simple_types@U?$pair@$$CBV?$basic_string@DU?$char_traits@D@std@@V?$allocator@D@2@@std@@V?$weak_ptr@VRawImageData@@@2@@std@@@std@@@std@@U_Iterator_base12@2@@std@@QAE@XZ 0040b330 f i Arrow.obj
 0001:0000a350       ??1?$basic_string@DU?$char_traits@D@std@@V?$allocator@D@2@@std@@QAE@XZ 0040b350 f i Arrow.obj
 0001:0000a3c0       ??1?$map@V?$basic_string@DU?$char_traits@D@std@@V?$allocator@D@2@@std@@V?$weak_ptr@VRawImageData@@@2@U?$less@V?$basic_string@DU?$char_traits@D@std@@V?$allocator@D@2@@std@@@2@V?$allocator@U?$pair@$$CBV?$basic_string@DU?$char_traits@D@std@@V?$allocator@D@2@@std@@V?$weak_ptr@VRawImageData@@@2@@std@@@2@@std@@QAE@XZ 0040b3c0 f i Arrow.obj
 0001:0000a3e0       ??1?$pair@$$CBV?$basic_string@DU?$char_traits@D@std@@V?$allocator@D@2@@std@@V?$shared_ptr@VRawImageData@@@2@@std@@QAE@XZ 0040b3e0 f i Arrow.obj
 0001:0000a410       ??1?$pair@$$CBV?$basic_string@DU?$char_traits@D@std@@V?$allocator@D@2@@std@@V?$weak_ptr@VRawImageData@@@2@@std@@QAE@XZ 0040b410 f i Arrow.obj
 0001:0000a440       ??1?$pair@V?$_Tree_iterator@V?$_Tree_val@U?$_Tree_simple_types@U?$pair@$$CBV?$basic_string@DU?$char_traits@D@std@@V?$allocator@D@2@@std@@V?$shared_ptr@VRawImageData@@@2@@std@@@std@@@std@@@std@@_N@std@@QAE@XZ 0040b440 f i Arrow.obj
 0001:0000a460       ??1?$pair@V?$_Tree_iterator@V?$_Tree_val@U?$_Tree_simple_types@U?$pair@$$CBV?$basic_string@DU?$char_traits@D@std@@V?$allocator@D@2@@std@@V?$weak_ptr@VRawImageData@@@2@@std@@@std@@@std@@@std@@_N@std@@QAE@XZ 0040b460 f i Arrow.obj
 0001:0000a480       ??1?$pair@V?$basic_string@DU?$char_traits@D@std@@V?$allocator@D@2@@std@@V?$shared_ptr@VRawImageData@@@2@@std@@QAE@XZ 0040b480 f i Arrow.obj
 0001:0000a4b0       ??1?$pair@V?$basic_string@DU?$char_traits@D@std@@V?$allocator@D@2@@std@@V?$weak_ptr@VRawImageData@@@2@@std@@QAE@XZ 0040b4b0 f i Arrow.obj
 0001:0000a4e0       ??1?$shared_ptr@VRawImageData@@@std@@QAE@XZ 0040b4e0 f i Arrow.obj
 0001:0000a500       ??1?$weak_ptr@VRawImageData@@@std@@QAE@XZ 0040b500 f i Arrow.obj
 0001:0000a520       ??1RawImageData@@QAE@XZ    0040b520 f i Arrow.obj
 0001:0000a580       ??1SimpleImage@@QAE@XZ     0040b580 f i Arrow.obj
 0001:0000a5d0       ??1_Bxty@?$_String_val@U?$_Simple_types@D@std@@@std@@QAE@XZ 0040b5d0 f i Arrow.obj
 0001:0000a5e0       ??1_Iterator_base12@std@@QAE@XZ 0040b5e0 f i Arrow.obj
 0001:0000a600       ??1_Ref_count_base@std@@UAE@XZ 0040b600 f i Arrow.obj
 0001:0000a610       ??1_Sentry_base@?$basic_ostream@DU?$char_traits@D@std@@@std@@QAE@XZ 0040b610 f i Arrow.obj
 0001:0000a6a0       ??1bad_alloc@std@@UAE@XZ   0040b6a0 f i Arrow.obj
 0001:0000a6c0       ??1bad_array_new_length@std@@UAE@XZ 0040b6c0 f i Arrow.obj
 0001:0000a6e0       ??1exception@std@@UAE@XZ   0040b6e0 f i Arrow.obj
 0001:0000a710       ??1sentry@?$basic_ostream@DU?$char_traits@D@std@@@std@@QAE@XZ 0040b710 f i Arrow.obj
 0001:0000a7a0       ??2@YAPAXIPAX@Z            0040b7a0 f i Arrow.obj
 0001:0000a7b0       ??4_Iterator_base12@std@@QAEAAU01@ABU01@@Z 0040b7b0 f i Arrow.obj
 0001:0000a7e0       ??8?$_Tree_const_iterator@V?$_Tree_val@U?$_Tree_simple_types@U?$pair@$$CBV?$basic_string@DU?$char_traits@D@std@@V?$allocator@D@2@@std@@V?$weak_ptr@VRawImageData@@@2@@std@@@std@@@std@@@std@@QBE_NABV01@@Z 0040b7e0 f i Arrow.obj
 0001:0000a8a0       ??9?$_Tree_const_iterator@V?$_Tree_val@U?$_Tree_simple_types@U?$pair@$$CBV?$basic_string@DU?$char_traits@D@std@@V?$allocator@D@2@@std@@V?$weak_ptr@VRawImageData@@@2@@std@@@std@@@std@@@std@@QBE_NABV01@@Z 0040b8a0 f i Arrow.obj
 0001:0000a8f0       ??Bsentry@?$basic_ostream@DU?$char_traits@D@std@@@std@@QBE_NXZ 0040b8f0 f i Arrow.obj
 0001:0000a910       ??C?$_Tree_iterator@V?$_Tree_val@U?$_Tree_simple_types@U?$pair@$$CBV?$basic_string@DU?$char_traits@D@std@@V?$allocator@D@2@@std@@V?$weak_ptr@VRawImageData@@@2@@std@@@std@@@std@@@std@@QBEPAU?$pair@$$CBV?$basic_string@DU?$char_traits@D@std@@V?$allocator@D@2@@std@@V?$weak_ptr@VRawImageData@@@2@@1@XZ 0040b910 f i Arrow.obj
 0001:0000a940       ??D?$_Tree_const_iterator@V?$_Tree_val@U?$_Tree_simple_types@U?$pair@$$CBV?$basic_string@DU?$char_traits@D@std@@V?$allocator@D@2@@std@@V?$weak_ptr@VRawImageData@@@2@@std@@@std@@@std@@@std@@QBEABU?$pair@$$CBV?$basic_string@DU?$char_traits@D@std@@V?$allocator@D@2@@std@@V?$weak_ptr@VRawImageData@@@2@@1@XZ 0040b940 f i Arrow.obj
 0001:0000aa50       ??D?$_Tree_iterator@V?$_Tree_val@U?$_Tree_simple_types@U?$pair@$$CBV?$basic_string@DU?$char_traits@D@std@@V?$allocator@D@2@@std@@V?$weak_ptr@VRawImageData@@@2@@std@@@std@@@std@@@std@@QBEAAU?$pair@$$CBV?$basic_string@DU?$char_traits@D@std@@V?$allocator@D@2@@std@@V?$weak_ptr@VRawImageData@@@2@@1@XZ 0040ba50 f i Arrow.obj
 0001:0000aa70       ??E?$_Tree_unchecked_const_iterator@V?$_Tree_val@U?$_Tree_simple_types@U?$pair@$$CBV?$basic_string@DU?$char_traits@D@std@@V?$allocator@D@2@@std@@V?$weak_ptr@VRawImageData@@@2@@std@@@std@@@std@@U_Iterator_base0@2@@std@@QAEAAV01@XZ 0040ba70 f i Arrow.obj
 0001:0000ab00       ??R?$less@V?$basic_string@DU?$char_traits@D@std@@V?$allocator@D@2@@std@@@std@@QBE_NABV?$basic_string@DU?$char_traits@D@std@@V?$allocator@D@2@@1@0@Z 0040bb00 f i Arrow.obj
 0001:0000ab30       ??_E?$_Ref_count@VRawImageData@@@std@@UAEPAXI@Z 0040bb30 f i Arrow.obj
 0001:0000ab30       ??_G?$_Ref_count@VRawImageData@@@std@@UAEPAXI@Z 0040bb30 f i Arrow.obj
 0001:0000ab70       ??_G?$pair@$$CBV?$basic_string@DU?$char_traits@D@std@@V?$allocator@D@2@@std@@V?$shared_ptr@VRawImageData@@@2@@std@@QAEPAXI@Z 0040bb70 f i Arrow.obj
 0001:0000abb0       ??_G?$pair@$$CBV?$basic_string@DU?$char_traits@D@std@@V?$allocator@D@2@@std@@V?$weak_ptr@VRawImageData@@@2@@std@@QAEPAXI@Z 0040bbb0 f i Arrow.obj
 0001:0000abf0       ??_GRawImageData@@QAEPAXI@Z 0040bbf0 f i Arrow.obj
 0001:0000ac30       ??_Ebad_alloc@std@@UAEPAXI@Z 0040bc30 f i Arrow.obj
 0001:0000ac30       ??_Gbad_alloc@std@@UAEPAXI@Z 0040bc30 f i Arrow.obj
 0001:0000ac70       ??_Ebad_array_new_length@std@@UAEPAXI@Z 0040bc70 f i Arrow.obj
 0001:0000ac70       ??_Gbad_array_new_length@std@@UAEPAXI@Z 0040bc70 f i Arrow.obj
 0001:0000acb0       ??_Eexception@std@@UAEPAXI@Z 0040bcb0 f i Arrow.obj
 0001:0000acb0       ??_Gexception@std@@UAEPAXI@Z 0040bcb0 f i Arrow.obj
 0001:0000acf0       ?_Adjust_manually_vector_aligned@std@@YAXAAPAXAAI@Z 0040bcf0 f i Arrow.obj
 0001:0000ae40       ?_Adopt@_Iterator_base0@std@@QAEXPBX@Z 0040be40 f i Arrow.obj
 0001:0000ae50       ?_Adopt@_Iterator_base12@std@@QAEXPBU_Container_base12@2@@Z 0040be50 f i Arrow.obj
 0001:0000ae70       ?_Adopt_locked@_Iterator_base12@std@@AAEXPBU_Container_base12@2@@Z 0040be70 f i Arrow.obj
 0001:0000aeb0       ?_Adopt_unlocked@_Iterator_base12@std@@AAEXPBU_Container_base12@2@@Z 0040beb0 f i Arrow.obj
 0001:0000af30       ?_Alloc_sentinel_and_proxy@?$_Tree@V?$_Tmap_traits@V?$basic_string@DU?$char_traits@D@std@@V?$allocator@D@2@@std@@V?$shared_ptr@VRawImageData@@@2@U?$less@V?$basic_string@DU?$char_traits@D@std@@V?$allocator@D@2@@std@@@2@V?$allocator@U?$pair@$$CBV?$basic_string@DU?$char_traits@D@std@@V?$allocator@D@2@@std@@V?$shared_ptr@VRawImageData@@@2@@std@@@2@$0A@@std@@@std@@IAEXXZ 0040bf30 f i Arrow.obj
 0001:0000b000       ?_Alloc_sentinel_and_proxy@?$_Tree@V?$_Tmap_traits@V?$basic_string@DU?$char_traits@D@std@@V?$allocator@D@2@@std@@V?$weak_ptr@VRawImageData@@@2@U?$less@V?$basic_string@DU?$char_traits@D@std@@V?$allocator@D@2@@std@@@2@V?$allocator@U?$pair@$$CBV?$basic_string@DU?$char_traits@D@std@@V?$allocator@D@2@@std@@V?$weak_ptr@VRawImageData@@@2@@std@@@2@$0A@@std@@@std@@IAEXXZ 0040c000 f i Arrow.obj
 0001:0000b0d0       ?_Allocate@?$_Alloc_construct_ptr@V?$allocator@U?$_Tree_node@U?$pair@$$CBV?$basic_string@DU?$char_traits@D@std@@V?$allocator@D@2@@std@@V?$shared_ptr@VRawImageData@@@2@@std@@PAX@std@@@std@@@std@@QAEXXZ 0040c0d0 f i Arrow.obj
 0001:0000b100       ?_Allocate@?$_Alloc_construct_ptr@V?$allocator@U?$_Tree_node@U?$pair@$$CBV?$basic_string@DU?$char_traits@D@std@@V?$allocator@D@2@@std@@V?$weak_ptr@VRawImageData@@@2@@std@@PAX@std@@@std@@@std@@QAEXXZ 0040c100 f i Arrow.obj
 0001:0000b130       ?_Allocate@_Default_allocate_traits@std@@SAPAXI@Z 0040c130 f i Arrow.obj
 0001:0000b150       ?_Assign_locked@_Iterator_base12@std@@AAEXABU12@@Z 0040c150 f i Arrow.obj
 0001:0000b190       ?_Assign_unlocked@_Iterator_base12@std@@AAEXABU12@@Z 0040c190 f i Arrow.obj
 0001:0000b1e0       ?_Calculate_growth@?$basic_string@DU?$char_traits@D@std@@V?$allocator@D@2@@std@@ABEII@Z 0040c1e0 f i Arrow.obj
 0001:0000b220       ?_Calculate_growth@?$basic_string@DU?$char_traits@D@std@@V?$allocator@D@2@@std@@CAIIII@Z 0040c220 f i Arrow.obj
 0001:0000b290       ?_Check_grow_by_1@?$_Tree@V?$_Tmap_traits@V?$basic_string@DU?$char_traits@D@std@@V?$allocator@D@2@@std@@V?$shared_ptr@VRawImageData@@@2@U?$less@V?$basic_string@DU?$char_traits@D@std@@V?$allocator@D@2@@std@@@2@V?$allocator@U?$pair@$$CBV?$basic_string@DU?$char_traits@D@std@@V?$allocator@D@2@@std@@V?$shared_ptr@VRawImageData@@@2@@std@@@2@$0A@@std@@@std@@IAEXXZ 0040c290 f i Arrow.obj
 0001:0000b2d0       ?_Check_grow_by_1@?$_Tree@V?$_Tmap_traits@V?$basic_string@DU?$char_traits@D@std@@V?$allocator@D@2@@std@@V?$weak_ptr@VRawImageData@@@2@U?$less@V?$basic_string@DU?$char_traits@D@std@@V?$allocator@D@2@@std@@@2@V?$allocator@U?$pair@$$CBV?$basic_string@DU?$char_traits@D@std@@V?$allocator@D@2@@std@@V?$weak_ptr@VRawImageData@@@2@@std@@@2@$0A@@std@@@std@@IAEXXZ 0040c2d0 f i Arrow.obj
 0001:0000b310       ?_Decref@?$_Ptr_base@VRawImageData@@@std@@IAEXXZ 0040c310 f i Arrow.obj
 0001:0000b340       ?_Decref@_Ref_count_base@std@@QAEXXZ 0040c340 f i Arrow.obj
 0001:0000b380       ?_Decwref@?$_Ptr_base@VRawImageData@@@std@@IAEXXZ 0040c380 f i Arrow.obj
 0001:0000b3b0       ?_Decwref@_Ref_count_base@std@@QAEXXZ 0040c3b0 f i Arrow.obj
 0001:0000b3f0       ?_Delete_this@?$_Ref_count@VRawImageData@@@std@@EAEXXZ 0040c3f0 f i Arrow.obj
 0001:0000b440       ?_Destroy@?$_Ref_count@VRawImageData@@@std@@EAEXXZ 0040c440 f i Arrow.obj
 0001:0000b480       ?_Erase_unchecked@?$_Tree@V?$_Tmap_traits@V?$basic_string@DU?$char_traits@D@std@@V?$allocator@D@2@@std@@V?$weak_ptr@VRawImageData@@@2@U?$less@V?$basic_string@DU?$char_traits@D@std@@V?$allocator@D@2@@std@@@2@V?$allocator@U?$pair@$$CBV?$basic_string@DU?$char_traits@D@std@@V?$allocator@D@2@@std@@V?$weak_ptr@VRawImageData@@@2@@std@@@2@$0A@@std@@@std@@AAEPAU?$_Tree_node@U?$pair@$$CBV?$basic_string@DU?$char_traits@D@std@@V?$allocator@D@2@@std@@V?$weak_ptr@VRawImageData@@@2@@std@@PAX@2@V?$_Tree_unchecked_const_iterator@V?$_Tree_val@U?$_Tree_simple_types@U?$pair@$$CBV?$basic_string@DU?$char_traits@D@std@@V?$allocator@D@2@@std@@V?$weak_ptr@VRawImageData@@@2@@std@@@std@@@std@@U_Iterator_base0@2@@2@@Z 0040c480 f i Arrow.obj
 0001:0000b500       ?_Extract@?$_In_place_key_extract_map@V?$basic_string@DU?$char_traits@D@std@@V?$allocator@D@2@@std@@U?$pair@V?$basic_string@DU?$char_traits@D@std@@V?$allocator@D@2@@std@@V?$shared_ptr@VRawImageData@@@2@@2@@std@@SAABV?$basic_string@DU?$char_traits@D@std@@V?$allocator@D@2@@2@ABU?$pair@V?$basic_string@DU?$char_traits@D@std@@V?$allocator@D@2@@std@@V?$shared_ptr@VRawImageData@@@2@@2@@Z 0040c500 f i Arrow.obj
 0001:0000b510       ?_Extract@?$_In_place_key_extract_map@V?$basic_string@DU?$char_traits@D@std@@V?$allocator@D@2@@std@@U?$pair@V?$basic_string@DU?$char_traits@D@std@@V?$allocator@D@2@@std@@V?$weak_ptr@VRawImageData@@@2@@2@@std@@SAABV?$basic_string@DU?$char_traits@D@std@@V?$allocator@D@2@@2@ABU?$pair@V?$basic_string@DU?$char_traits@D@std@@V?$allocator@D@2@@std@@V?$weak_ptr@VRawImageData@@@2@@2@@Z 0040c510 f i Arrow.obj
 0001:0000b520       ?_Extract@?$_Tree_val@U?$_Tree_simple_types@U?$pair@$$CBV?$basic_string@DU?$char_traits@D@std@@V?$allocator@D@2@@std@@V?$weak_ptr@VRawImageData@@@2@@std@@@std@@@std@@QAEPAU?$_Tree_node@U?$pair@$$CBV?$basic_string@DU?$char_traits@D@std@@V?$allocator@D@2@@std@@V?$weak_ptr@VRawImageData@@@2@@std@@PAX@2@V?$_Tree_unchecked_const_iterator@V?$_Tree_val@U?$_Tree_simple_types@U?$pair@$$CBV?$basic_string@DU?$char_traits@D@std@@V?$allocator@D@2@@std@@V?$weak_ptr@VRawImageData@@@2@@std@@@std@@@std@@U_Iterator_base0@2@@2@@Z 0040c520 f i Arrow.obj
 0001:0000ba60       ?_Get_deleter@_Ref_count_base@std@@UBEPAXABVtype_info@@@Z 0040ca60 f i Arrow.obj
 0001:0000ba80       ?_Get_first@?$_Compressed_pair@U?$less@V?$basic_string@DU?$char_traits@D@std@@V?$allocator@D@2@@std@@@std@@V?$_Compressed_pair@V?$allocator@U?$_Tree_node@U?$pair@$$CBV?$basic_string@DU?$char_traits@D@std@@V?$allocator@D@2@@std@@V?$shared_ptr@VRawImageData@@@2@@std@@PAX@std@@@std@@V?$_Tree_val@U?$_Tree_simple_types@U?$pair@$$CBV?$basic_string@DU?$char_traits@D@std@@V?$allocator@D@2@@std@@V?$shared_ptr@VRawImageData@@@2@@std@@@std@@@2@$00@2@$00@std@@QBEABU?$less@V?$basic_string@DU?$char_traits@D@std@@V?$allocator@D@2@@std@@@2@XZ 0040ca80 f i Arrow.obj
 0001:0000baa0       ?_Get_first@?$_Compressed_pair@U?$less@V?$basic_string@DU?$char_traits@D@std@@V?$allocator@D@2@@std@@@std@@V?$_Compressed_pair@V?$allocator@U?$_Tree_node@U?$pair@$$CBV?$basic_string@DU?$char_traits@D@std@@V?$allocator@D@2@@std@@V?$weak_ptr@VRawImageData@@@2@@std@@PAX@std@@@std@@V?$_Tree_val@U?$_Tree_simple_types@U?$pair@$$CBV?$basic_string@DU?$char_traits@D@std@@V?$allocator@D@2@@std@@V?$weak_ptr@VRawImageData@@@2@@std@@@std@@@2@$00@2@$00@std@@QBEABU?$less@V?$basic_string@DU?$char_traits@D@std@@V?$allocator@D@2@@std@@@2@XZ 0040caa0 f i Arrow.obj
 0001:0000bac0       ?_Get_first@?$_Compressed_pair@V?$allocator@D@std@@V?$_String_val@U?$_Simple_types@D@std@@@2@$00@std@@QAEAAV?$allocator@D@2@XZ 0040cac0 f i Arrow.obj
 0001:0000bae0       ?_Get_first@?$_Compressed_pair@V?$allocator@D@std@@V?$_String_val@U?$_Simple_types@D@std@@@2@$00@std@@QBEABV?$allocator@D@2@XZ 0040cae0 f i Arrow.obj
 0001:0000bb00       ?_Get_first@?$_Compressed_pair@V?$allocator@U?$_Tree_node@U?$pair@$$CBV?$basic_string@DU?$char_traits@D@std@@V?$allocator@D@2@@std@@V?$shared_ptr@VRawImageData@@@2@@std@@PAX@std@@@std@@V?$_Tree_val@U?$_Tree_simple_types@U?$pair@$$CBV?$basic_string@DU?$char_traits@D@std@@V?$allocator@D@2@@std@@V?$shared_ptr@VRawImageData@@@2@@std@@@std@@@2@$00@std@@QAEAAV?$allocator@U?$_Tree_node@U?$pair@$$CBV?$basic_string@DU?$char_traits@D@std@@V?$allocator@D@2@@std@@V?$shared_ptr@VRawImageData@@@2@@std@@PAX@std@@@2@XZ 0040cb00 f i Arrow.obj
 0001:0000bb20       ?_Get_first@?$_Compressed_pair@V?$allocator@U?$_Tree_node@U?$pair@$$CBV?$basic_string@DU?$char_traits@D@std@@V?$allocator@D@2@@std@@V?$shared_ptr@VRawImageData@@@2@@std@@PAX@std@@@std@@V?$_Tree_val@U?$_Tree_simple_types@U?$pair@$$CBV?$basic_string@DU?$char_traits@D@std@@V?$allocator@D@2@@std@@V?$shared_ptr@VRawImageData@@@2@@std@@@std@@@2@$00@std@@QBEABV?$allocator@U?$_Tree_node@U?$pair@$$CBV?$basic_string@DU?$char_traits@D@std@@V?$allocator@D@2@@std@@V?$shared_ptr@VRawImageData@@@2@@std@@PAX@std@@@2@XZ 0040cb20 f i Arrow.obj
 0001:0000bb40       ?_Get_first@?$_Compressed_pair@V?$allocator@U?$_Tree_node@U?$pair@$$CBV?$basic_string@DU?$char_traits@D@std@@V?$allocator@D@2@@std@@V?$weak_ptr@VRawImageData@@@2@@std@@PAX@std@@@std@@V?$_Tree_val@U?$_Tree_simple_types@U?$pair@$$CBV?$basic_string@DU?$char_traits@D@std@@V?$allocator@D@2@@std@@V?$weak_ptr@VRawImageData@@@2@@std@@@std@@@2@$00@std@@QAEAAV?$allocator@U?$_Tree_node@U?$pair@$$CBV?$basic_string@DU?$char_traits@D@std@@V?$allocator@D@2@@std@@V?$weak_ptr@VRawImageData@@@2@@std@@PAX@std@@@2@XZ 0040cb40 f i Arrow.obj
 0001:0000bb60       ?_Get_first@?$_Compressed_pair@V?$allocator@U?$_Tree_node@U?$pair@$$CBV?$basic_string@DU?$char_traits@D@std@@V?$allocator@D@2@@std@@V?$weak_ptr@VRawImageData@@@2@@std@@PAX@std@@@std@@V?$_Tree_val@U?$_Tree_simple_types@U?$pair@$$CBV?$basic_string@DU?$char_traits@D@std@@V?$allocator@D@2@@std@@V?$weak_ptr@VRawImageData@@@2@@std@@@std@@@2@$00@std@@QBEABV?$allocator@U?$_Tree_node@U?$pair@$$CBV?$basic_string@DU?$char_traits@D@std@@V?$allocator@D@2@@std@@V?$weak_ptr@VRawImageData@@@2@@std@@PAX@std@@@2@XZ 0040cb60 f i Arrow.obj
 0001:0000bb80       ?_Get_scary@?$_Tree@V?$_Tmap_traits@V?$basic_string@DU?$char_traits@D@std@@V?$allocator@D@2@@std@@V?$shared_ptr@VRawImageData@@@2@U?$less@V?$basic_string@DU?$char_traits@D@std@@V?$allocator@D@2@@std@@@2@V?$allocator@U?$pair@$$CBV?$basic_string@DU?$char_traits@D@std@@V?$allocator@D@2@@std@@V?$shared_ptr@VRawImageData@@@2@@std@@@2@$0A@@std@@@std@@IAEPAV?$_Tree_val@U?$_Tree_simple_types@U?$pair@$$CBV?$basic_string@DU?$char_traits@D@std@@V?$allocator@D@2@@std@@V?$shared_ptr@VRawImageData@@@2@@std@@@std@@@2@XZ 0040cb80 f i Arrow.obj
 0001:0000bba0       ?_Get_scary@?$_Tree@V?$_Tmap_traits@V?$basic_string@DU?$char_traits@D@std@@V?$allocator@D@2@@std@@V?$shared_ptr@VRawImageData@@@2@U?$less@V?$basic_string@DU?$char_traits@D@std@@V?$allocator@D@2@@std@@@2@V?$allocator@U?$pair@$$CBV?$basic_string@DU?$char_traits@D@std@@V?$allocator@D@2@@std@@V?$shared_ptr@VRawImageData@@@2@@std@@@2@$0A@@std@@@std@@IBEPBV?$_Tree_val@U?$_Tree_simple_types@U?$pair@$$CBV?$basic_string@DU?$char_traits@D@std@@V?$allocator@D@2@@std@@V?$shared_ptr@VRawImageData@@@2@@std@@@std@@@2@XZ 0040cba0 f i Arrow.obj
 0001:0000bbc0       ?_Get_scary@?$_Tree@V?$_Tmap_traits@V?$basic_string@DU?$char_traits@D@std@@V?$allocator@D@2@@std@@V?$weak_ptr@VRawImageData@@@2@U?$less@V?$basic_string@DU?$char_traits@D@std@@V?$allocator@D@2@@std@@@2@V?$allocator@U?$pair@$$CBV?$basic_string@DU?$char_traits@D@std@@V?$allocator@D@2@@std@@V?$weak_ptr@VRawImageData@@@2@@std@@@2@$0A@@std@@@std@@IAEPAV?$_Tree_val@U?$_Tree_simple_types@U?$pair@$$CBV?$basic_string@DU?$char_traits@D@std@@V?$allocator@D@2@@std@@V?$weak_ptr@VRawImageData@@@2@@std@@@std@@@2@XZ 0040cbc0 f i Arrow.obj
 0001:0000bbe0       ?_Get_scary@?$_Tree@V?$_Tmap_traits@V?$basic_string@DU?$char_traits@D@std@@V?$allocator@D@2@@std@@V?$weak_ptr@VRawImageData@@@2@U?$less@V?$basic_string@DU?$char_traits@D@std@@V?$allocator@D@2@@std@@@2@V?$allocator@U?$pair@$$CBV?$basic_string@DU?$char_traits@D@std@@V?$allocator@D@2@@std@@V?$weak_ptr@VRawImageData@@@2@@std@@@2@$0A@@std@@@std@@IBEPBV?$_Tree_val@U?$_Tree_simple_types@U?$pair@$$CBV?$basic_string@DU?$char_traits@D@std@@V?$allocator@D@2@@std@@V?$weak_ptr@VRawImageData@@@2@@std@@@std@@@2@XZ 0040cbe0 f i Arrow.obj
 0001:0000bc00       ?_Getal@?$_Tree@V?$_Tmap_traits@V?$basic_string@DU?$char_traits@D@std@@V?$allocator@D@2@@std@@V?$shared_ptr@VRawImageData@@@2@U?$less@V?$basic_string@DU?$char_traits@D@std@@V?$allocator@D@2@@std@@@2@V?$allocator@U?$pair@$$CBV?$basic_string@DU?$char_traits@D@std@@V?$allocator@D@2@@std@@V?$shared_ptr@VRawImageData@@@2@@std@@@2@$0A@@std@@@std@@IAEAAV?$allocator@U?$_Tree_node@U?$pair@$$CBV?$basic_string@DU?$char_traits@D@std@@V?$allocator@D@2@@std@@V?$shared_ptr@VRawImageData@@@2@@std@@PAX@std@@@2@XZ 0040cc00 f i Arrow.obj
 0001:0000bc20       ?_Getal@?$_Tree@V?$_Tmap_traits@V?$basic_string@DU?$char_traits@D@std@@V?$allocator@D@2@@std@@V?$shared_ptr@VRawImageData@@@2@U?$less@V?$basic_string@DU?$char_traits@D@std@@V?$allocator@D@2@@std@@@2@V?$allocator@U?$pair@$$CBV?$basic_string@DU?$char_traits@D@std@@V?$allocator@D@2@@std@@V?$shared_ptr@VRawImageData@@@2@@std@@@2@$0A@@std@@@std@@IBEABV?$allocator@U?$_Tree_node@U?$pair@$$CBV?$basic_string@DU?$char_traits@D@std@@V?$allocator@D@2@@std@@V?$shared_ptr@VRawImageData@@@2@@std@@PAX@std@@@2@XZ 0040cc20 f i Arrow.obj
 0001:0000bc40       ?_Getal@?$_Tree@V?$_Tmap_traits@V?$basic_string@DU?$char_traits@D@std@@V?$allocator@D@2@@std@@V?$weak_ptr@VRawImageData@@@2@U?$less@V?$basic_string@DU?$char_traits@D@std@@V?$allocator@D@2@@std@@@2@V?$allocator@U?$pair@$$CBV?$basic_string@DU?$char_traits@D@std@@V?$allocator@D@2@@std@@V?$weak_ptr@VRawImageData@@@2@@std@@@2@$0A@@std@@@std@@IAEAAV?$allocator@U?$_Tree_node@U?$pair@$$CBV?$basic_string@DU?$char_traits@D@std@@V?$allocator@D@2@@std@@V?$weak_ptr@VRawImageData@@@2@@std@@PAX@std@@@2@XZ 0040cc40 f i Arrow.obj
 0001:0000bc60       ?_Getal@?$_Tree@V?$_Tmap_traits@V?$basic_string@DU?$char_traits@D@std@@V?$allocator@D@2@@std@@V?$weak_ptr@VRawImageData@@@2@U?$less@V?$basic_string@DU?$char_traits@D@std@@V?$allocator@D@2@@std@@@2@V?$allocator@U?$pair@$$CBV?$basic_string@DU?$char_traits@D@std@@V?$allocator@D@2@@std@@V?$weak_ptr@VRawImageData@@@2@@std@@@2@$0A@@std@@@std@@IBEABV?$allocator@U?$_Tree_node@U?$pair@$$CBV?$basic_string@DU?$char_traits@D@std@@V?$allocator@D@2@@std@@V?$weak_ptr@VRawImageData@@@2@@std@@PAX@std@@@2@XZ 0040cc60 f i Arrow.obj
 0001:0000bc80       ?_Getal@?$basic_string@DU?$char_traits@D@std@@V?$allocator@D@2@@std@@AAEAAV?$allocator@D@2@XZ 0040cc80 f i Arrow.obj
 0001:0000bca0       ?_Getal@?$basic_string@DU?$char_traits@D@std@@V?$allocator@D@2@@std@@ABEABV?$allocator@D@2@XZ 0040cca0 f i Arrow.obj
 0001:0000bcc0       ?_Getcomp@?$_Tree@V?$_Tmap_traits@V?$basic_string@DU?$char_traits@D@std@@V?$allocator@D@2@@std@@V?$shared_ptr@VRawImageData@@@2@U?$less@V?$basic_string@DU?$char_traits@D@std@@V?$allocator@D@2@@std@@@2@V?$allocator@U?$pair@$$CBV?$basic_string@DU?$char_traits@D@std@@V?$allocator@D@2@@std@@V?$shared_ptr@VRawImageData@@@2@@std@@@2@$0A@@std@@@std@@IBEABU?$less@V?$basic_string@DU?$char_traits@D@std@@V?$allocator@D@2@@std@@@2@XZ 0040ccc0 f i Arrow.obj
 0001:0000bce0       ?_Getcomp@?$_Tree@V?$_Tmap_traits@V?$basic_string@DU?$char_traits@D@std@@V?$allocator@D@2@@std@@V?$weak_ptr@VRawImageData@@@2@U?$less@V?$basic_string@DU?$char_traits@D@std@@V?$allocator@D@2@@std@@@2@V?$allocator@U?$pair@$$CBV?$basic_string@DU?$char_traits@D@std@@V?$allocator@D@2@@std@@V?$weak_ptr@VRawImageData@@@2@@std@@@2@$0A@@std@@@std@@IBEABU?$less@V?$basic_string@DU?$char_traits@D@std@@V?$allocator@D@2@@std@@@2@XZ 0040cce0 f i Arrow.obj
 0001:0000bd00       ?_Getcont@_Iterator_base12@std@@QBEPBU_Container_base12@2@XZ 0040cd00 f i Arrow.obj
 0001:0000bd40       ?_Incref@?$_Ptr_base@VRawImageData@@@std@@IBEXXZ 0040cd40 f i Arrow.obj
 0001:0000bd70       ?_Incref@_Ref_count_base@std@@QAEXXZ 0040cd70 f i Arrow.obj
 0001:0000bd90       ?_Incref_nz@_Ref_count_base@std@@QAE_NXZ 0040cd90 f i Arrow.obj
 0001:0000be00       ?_Incwref@_Ref_count_base@std@@QAEXXZ 0040ce00 f i Arrow.obj
 0001:0000be20       ?_Insert_node@?$_Tree_val@U?$_Tree_simple_types@U?$pair@$$CBV?$basic_string@DU?$char_traits@D@std@@V?$allocator@D@2@@std@@V?$shared_ptr@VRawImageData@@@2@@std@@@std@@@std@@QAEPAU?$_Tree_node@U?$pair@$$CBV?$basic_string@DU?$char_traits@D@std@@V?$allocator@D@2@@std@@V?$shared_ptr@VRawImageData@@@2@@std@@PAX@2@U?$_Tree_id@PAU?$_Tree_node@U?$pair@$$CBV?$basic_string@DU?$char_traits@D@std@@V?$allocator@D@2@@std@@V?$shared_ptr@VRawImageData@@@2@@std@@PAX@std@@@2@QAU32@@Z 0040ce20 f i Arrow.obj
 0001:0000c0b0       ?_Insert_node@?$_Tree_val@U?$_Tree_simple_types@U?$pair@$$CBV?$basic_string@DU?$char_traits@D@std@@V?$allocator@D@2@@std@@V?$weak_ptr@VRawImageData@@@2@@std@@@std@@@std@@QAEPAU?$_Tree_node@U?$pair@$$CBV?$basic_string@DU?$char_traits@D@std@@V?$allocator@D@2@@std@@V?$weak_ptr@VRawImageData@@@2@@std@@PAX@2@U?$_Tree_id@PAU?$_Tree_node@U?$pair@$$CBV?$basic_string@DU?$char_traits@D@std@@V?$allocator@D@2@@std@@V?$weak_ptr@VRawImageData@@@2@@std@@PAX@std@@@2@QAU32@@Z 0040d0b0 f i Arrow.obj
 0001:0000c340       ?_Large_string_engaged@?$_String_val@U?$_Simple_types@D@std@@@std@@QBE_NXZ 0040d340 f i Arrow.obj
 0001:0000c380       ?_Lrotate@?$_Tree_val@U?$_Tree_simple_types@U?$pair@$$CBV?$basic_string@DU?$char_traits@D@std@@V?$allocator@D@2@@std@@V?$shared_ptr@VRawImageData@@@2@@std@@@std@@@std@@QAEXPAU?$_Tree_node@U?$pair@$$CBV?$basic_string@DU?$char_traits@D@std@@V?$allocator@D@2@@std@@V?$shared_ptr@VRawImageData@@@2@@std@@PAX@2@@Z 0040d380 f i Arrow.obj
 0001:0000c440       ?_Lrotate@?$_Tree_val@U?$_Tree_simple_types@U?$pair@$$CBV?$basic_string@DU?$char_traits@D@std@@V?$allocator@D@2@@std@@V?$weak_ptr@VRawImageData@@@2@@std@@@std@@@std@@QAEXPAU?$_Tree_node@U?$pair@$$CBV?$basic_string@DU?$char_traits@D@std@@V?$allocator@D@2@@std@@V?$weak_ptr@VRawImageData@@@2@@std@@PAX@2@@Z 0040d440 f i Arrow.obj
 0001:0000c500       ?_Max@?$_Tree_val@U?$_Tree_simple_types@U?$pair@$$CBV?$basic_string@DU?$char_traits@D@std@@V?$allocator@D@2@@std@@V?$weak_ptr@VRawImageData@@@2@@std@@@std@@@std@@SAPAU?$_Tree_node@U?$pair@$$CBV?$basic_string@DU?$char_traits@D@std@@V?$allocator@D@2@@std@@V?$weak_ptr@VRawImageData@@@2@@std@@PAX@2@PAU32@@Z 0040d500 f i Arrow.obj
 0001:0000c530       ?_Memcpy_val_from@?$basic_string@DU?$char_traits@D@std@@V?$allocator@D@2@@std@@AAEXABV12@@Z 0040d530 f i Arrow.obj
 0001:0000c590       ?_Min@?$_Tree_val@U?$_Tree_simple_types@U?$pair@$$CBV?$basic_string@DU?$char_traits@D@std@@V?$allocator@D@2@@std@@V?$weak_ptr@VRawImageData@@@2@@std@@@std@@@std@@SAPAU?$_Tree_node@U?$pair@$$CBV?$basic_string@DU?$char_traits@D@std@@V?$allocator@D@2@@std@@V?$weak_ptr@VRawImageData@@@2@@std@@PAX@2@PAU32@@Z 0040d590 f i Arrow.obj
 0001:0000c5c0       ?_Myptr@?$_String_val@U?$_Simple_types@D@std@@@std@@QBEPBDXZ 0040d5c0 f i Arrow.obj
 0001:0000c610       ?_Orphan_all@_Container_base12@std@@QAEXXZ 0040d610 f i Arrow.obj
 0001:0000c630       ?_Orphan_all_locked_v3@_Container_base12@std@@AAEXXZ 0040d630 f i Arrow.obj
 0001:0000c670       ?_Orphan_all_unlocked_v3@_Container_base12@std@@AAEXXZ 0040d670 f i Arrow.obj
 0001:0000c6e0       ?_Orphan_me_locked_v3@_Iterator_base12@std@@AAEXXZ 0040d6e0 f i Arrow.obj
 0001:0000c720       ?_Orphan_me_unlocked_v3@_Iterator_base12@std@@AAEXXZ 0040d720 f i Arrow.obj
 0001:0000c810       ?_Orphan_ptr@?$_Tree_val@U?$_Tree_simple_types@U?$pair@$$CBV?$basic_string@DU?$char_traits@D@std@@V?$allocator@D@2@@std@@V?$weak_ptr@VRawImageData@@@2@@std@@@std@@@std@@QAEXQAU?$_Tree_node@U?$pair@$$CBV?$basic_string@DU?$char_traits@D@std@@V?$allocator@D@2@@std@@V?$weak_ptr@VRawImageData@@@2@@std@@PAX@2@@Z 0040d810 f i Arrow.obj
 0001:0000c8c0       ?_Release@?$_Alloc_construct_ptr@V?$allocator@U?$_Tree_node@U?$pair@$$CBV?$basic_string@DU?$char_traits@D@std@@V?$allocator@D@2@@std@@V?$shared_ptr@VRawImageData@@@2@@std@@PAX@std@@@std@@@std@@QAEPAU?$_Tree_node@U?$pair@$$CBV?$basic_string@DU?$char_traits@D@std@@V?$allocator@D@2@@std@@V?$shared_ptr@VRawImageData@@@2@@std@@PAX@2@XZ 0040d8c0 f i Arrow.obj
 0001:0000c8f0       ?_Release@?$_Alloc_construct_ptr@V?$allocator@U?$_Tree_node@U?$pair@$$CBV?$basic_string@DU?$char_traits@D@std@@V?$allocator@D@2@@std@@V?$weak_ptr@VRawImageData@@@2@@std@@PAX@std@@@std@@@std@@QAEPAU?$_Tree_node@U?$pair@$$CBV?$basic_string@DU?$char_traits@D@std@@V?$allocator@D@2@@std@@V?$weak_ptr@VRawImageData@@@2@@std@@PAX@2@XZ 0040d8f0 f i Arrow.obj
 0001:0000c920       ?_Release@_Basic_container_proxy_ptr12@std@@QAEXXZ 0040d920 f i Arrow.obj
 0001:0000c940       ?_Rrotate@?$_Tree_val@U?$_Tree_simple_types@U?$pair@$$CBV?$basic_string@DU?$char_traits@D@std@@V?$allocator@D@2@@std@@V?$shared_ptr@VRawImageData@@@2@@std@@@std@@@std@@QAEXPAU?$_Tree_node@U?$pair@$$CBV?$basic_string@DU?$char_traits@D@std@@V?$allocator@D@2@@std@@V?$shared_ptr@VRawImageData@@@2@@std@@PAX@2@@Z 0040d940 f i Arrow.obj
 0001:0000ca10       ?_Rrotate@?$_Tree_val@U?$_Tree_simple_types@U?$pair@$$CBV?$basic_string@DU?$char_traits@D@std@@V?$allocator@D@2@@std@@V?$weak_ptr@VRawImageData@@@2@@std@@@std@@@std@@QAEXPAU?$_Tree_node@U?$pair@$$CBV?$basic_string@DU?$char_traits@D@std@@V?$allocator@D@2@@std@@V?$weak_ptr@VRawImageData@@@2@@std@@PAX@2@@Z 0040da10 f i Arrow.obj
 0001:0000cae0       ?_Swap_proxy_and_iterators@?$basic_string@DU?$char_traits@D@std@@V?$allocator@D@2@@std@@AAEXAAV12@@Z 0040dae0 f i Arrow.obj
 0001:0000cb00       ?_Swap_proxy_and_iterators@_Container_base12@std@@QAEXAAU12@@Z 0040db00 f i Arrow.obj
 0001:0000cb20       ?_Swap_proxy_and_iterators_locked@_Container_base12@std@@AAEXAAU12@@Z 0040db20 f i Arrow.obj
 0001:0000cb60       ?_Swap_proxy_and_iterators_unlocked@_Container_base12@std@@AAEXAAU12@@Z 0040db60 f i Arrow.obj
 0001:0000cbc0       ?_Take_contents@?$basic_string@DU?$char_traits@D@std@@V?$allocator@D@2@@std@@AAEXAAV12@@Z 0040dbc0 f i Arrow.obj
 0001:0000cd10       ?_Throw_bad_array_new_length@std@@YAXXZ 0040dd10 f i Arrow.obj
 0001:0000cd40       ?_Throw_tree_length_error@std@@YAXXZ 0040dd40 f i Arrow.obj
 0001:0000cd60       ?_Tidy_deallocate@?$basic_string@DU?$char_traits@D@std@@V?$allocator@D@2@@std@@AAEXXZ 0040dd60 f i Arrow.obj
 0001:0000ce60       ?_Tidy_init@?$basic_string@DU?$char_traits@D@std@@V?$allocator@D@2@@std@@AAEXXZ 0040de60 f i Arrow.obj
 0001:0000cec0       ?_Unwrapped@?$_Tree_iterator@V?$_Tree_val@U?$_Tree_simple_types@U?$pair@$$CBV?$basic_string@DU?$char_traits@D@std@@V?$allocator@D@2@@std@@V?$weak_ptr@VRawImageData@@@2@@std@@@std@@@std@@@std@@QBE?AV?$_Tree_unchecked_iterator@V?$_Tree_val@U?$_Tree_simple_types@U?$pair@$$CBV?$basic_string@DU?$char_traits@D@std@@V?$allocator@D@2@@std@@V?$weak_ptr@VRawImageData@@@2@@std@@@std@@@std@@@2@XZ 0040dec0 f i Arrow.obj
 0001:0000cf00       ?_Use_count@_Ref_count_base@std@@QBEJXZ 0040df00 f i Arrow.obj
 0001:0000cf20       ?_Xlen_string@std@@YAXXZ   0040df20 f i Arrow.obj
 0001:0000cf40       ?__empty_global_delete@@YAXPAX@Z 0040df40 f i Arrow.obj
 0001:0000cf50       ?__empty_global_delete@@YAXPAXI@Z 0040df50 f i Arrow.obj
 0001:0000cf50       ?__global_delete@@YAXPAXI@Z 0040df50 f i Arrow.obj
 0001:0000cf60       ?allocate@?$allocator@D@std@@QAEPADI@Z 0040df60 f i Arrow.obj
 0001:0000cf90       ?allocate@?$allocator@U?$_Tree_node@U?$pair@$$CBV?$basic_string@DU?$char_traits@D@std@@V?$allocator@D@2@@std@@V?$shared_ptr@VRawImageData@@@2@@std@@PAX@std@@@std@@QAEPAU?$_Tree_node@U?$pair@$$CBV?$basic_string@DU?$char_traits@D@std@@V?$allocator@D@2@@std@@V?$shared_ptr@VRawImageData@@@2@@std@@PAX@2@I@Z 0040df90 f i Arrow.obj
 0001:0000cfc0       ?allocate@?$allocator@U?$_Tree_node@U?$pair@$$CBV?$basic_string@DU?$char_traits@D@std@@V?$allocator@D@2@@std@@V?$weak_ptr@VRawImageData@@@2@@std@@PAX@std@@@std@@QAEPAU?$_Tree_node@U?$pair@$$CBV?$basic_string@DU?$char_traits@D@std@@V?$allocator@D@2@@std@@V?$weak_ptr@VRawImageData@@@2@@std@@PAX@2@I@Z 0040dfc0 f i Arrow.obj
 0001:0000cff0       ?allocate@?$allocator@U_Container_proxy@std@@@std@@QAEPAU_Container_proxy@2@I@Z 0040dff0 f i Arrow.obj
 0001:0000d020       ?assign@?$_Narrow_char_traits@DH@std@@SAXAADABD@Z 0040e020 f i Arrow.obj
 0001:0000d040       ?c_str@?$basic_string@DU?$char_traits@D@std@@V?$allocator@D@2@@std@@QBEPBDXZ 0040e040 f i Arrow.obj
 0001:0000d060       ?changePixelColour@ImagePixelMapping@@UAE_NHHAAHPAVDrawingSurface@@@Z 0040e060 f i Arrow.obj
 0001:0000d080       ?compare@?$_Narrow_char_traits@DH@std@@SAHQBD0I@Z 0040e080 f i Arrow.obj
 0001:0000d0a0       ?compare@?$basic_string@DU?$char_traits@D@std@@V?$allocator@D@2@@std@@QBEHABV12@@Z 0040e0a0 f i Arrow.obj
 0001:0000d0f0       ?copy@?$_Char_traits@DH@std@@SAPADQADQBDI@Z 0040e0f0 f i Arrow.obj
 0001:0000d120       ?data@?$basic_string@DU?$char_traits@D@std@@V?$allocator@D@2@@std@@QBEPBDXZ 0040e120 f i Arrow.obj
 0001:0000d140       ?deallocate@?$_Default_allocator_traits@V?$allocator@U?$_Tree_node@U?$pair@$$CBV?$basic_string@DU?$char_traits@D@std@@V?$allocator@D@2@@std@@V?$weak_ptr@VRawImageData@@@2@@std@@PAX@std@@@std@@@std@@SAXAAV?$allocator@U?$_Tree_node@U?$pair@$$CBV?$basic_string@DU?$char_traits@D@std@@V?$allocator@D@2@@std@@V?$weak_ptr@VRawImageData@@@2@@std@@PAX@std@@@2@QAU?$_Tree_node@U?$pair@$$CBV?$basic_string@DU?$char_traits@D@std@@V?$allocator@D@2@@std@@V?$weak_ptr@VRawImageData@@@2@@std@@PAX@2@I@Z 0040e140 f i Arrow.obj
 0001:0000d160       ?deallocate@?$_Default_allocator_traits@V?$allocator@U_Container_proxy@std@@@std@@@std@@SAXAAV?$allocator@U_Container_proxy@std@@@2@QAU_Container_proxy@2@I@Z 0040e160 f i Arrow.obj
 0001:0000d180       ?deallocate@?$allocator@D@std@@QAEXQADI@Z 0040e180 f i Arrow.obj
 0001:0000d220       ?deallocate@?$allocator@U?$_Tree_node@U?$pair@$$CBV?$basic_string@DU?$char_traits@D@std@@V?$allocator@D@2@@std@@V?$shared_ptr@VRawImageData@@@2@@std@@PAX@std@@@std@@QAEXQAU?$_Tree_node@U?$pair@$$CBV?$basic_string@DU?$char_traits@D@std@@V?$allocator@D@2@@std@@V?$shared_ptr@VRawImageData@@@2@@std@@PAX@2@I@Z 0040e220 f i Arrow.obj
 0001:0000d2c0       ?deallocate@?$allocator@U?$_Tree_node@U?$pair@$$CBV?$basic_string@DU?$char_traits@D@std@@V?$allocator@D@2@@std@@V?$weak_ptr@VRawImageData@@@2@@std@@PAX@std@@@std@@QAEXQAU?$_Tree_node@U?$pair@$$CBV?$basic_string@DU?$char_traits@D@std@@V?$allocator@D@2@@std@@V?$weak_ptr@VRawImageData@@@2@@std@@PAX@2@I@Z 0040e2c0 f i Arrow.obj
 0001:0000d360       ?end@?$_Tree@V?$_Tmap_traits@V?$basic_string@DU?$char_traits@D@std@@V?$allocator@D@2@@std@@V?$weak_ptr@VRawImageData@@@2@U?$less@V?$basic_string@DU?$char_traits@D@std@@V?$allocator@D@2@@std@@@2@V?$allocator@U?$pair@$$CBV?$basic_string@DU?$char_traits@D@std@@V?$allocator@D@2@@std@@V?$weak_ptr@VRawImageData@@@2@@std@@@2@$0A@@std@@@std@@QAE?AV?$_Tree_iterator@V?$_Tree_val@U?$_Tree_simple_types@U?$pair@$$CBV?$basic_string@DU?$char_traits@D@std@@V?$allocator@D@2@@std@@V?$weak_ptr@VRawImageData@@@2@@std@@@std@@@std@@@2@XZ 0040e360 f i Arrow.obj
 0001:0000d3a0       ?eof@?$_Narrow_char_traits@DH@std@@SAHXZ 0040e3a0 f i Arrow.obj
 0001:0000d3b0       ?eq_int_type@?$_Narrow_char_traits@DH@std@@SA_NABH0@Z 0040e3b0 f i Arrow.obj
 0001:0000d3e0       ?expired@?$weak_ptr@VRawImageData@@@std@@QBE_NXZ 0040e3e0 f i Arrow.obj
 0001:0000d420       ?find@?$_Tree@V?$_Tmap_traits@V?$basic_string@DU?$char_traits@D@std@@V?$allocator@D@2@@std@@V?$weak_ptr@VRawImageData@@@2@U?$less@V?$basic_string@DU?$char_traits@D@std@@V?$allocator@D@2@@std@@@2@V?$allocator@U?$pair@$$CBV?$basic_string@DU?$char_traits@D@std@@V?$allocator@D@2@@std@@V?$weak_ptr@VRawImageData@@@2@@std@@@2@$0A@@std@@@std@@QAE?AV?$_Tree_iterator@V?$_Tree_val@U?$_Tree_simple_types@U?$pair@$$CBV?$basic_string@DU?$char_traits@D@std@@V?$allocator@D@2@@std@@V?$weak_ptr@VRawImageData@@@2@@std@@@std@@@std@@@2@ABV?$basic_string@DU?$char_traits@D@std@@V?$allocator@D@2@@2@@Z 0040e420 f i Arrow.obj
 0001:0000d470       ?freeSurface@RawImageData@@QAEXXZ 0040e470 f i Arrow.obj
 0001:0000d4f0       ?get@?$_Ptr_base@VRawImageData@@@std@@IBEPAVRawImageData@@XZ 0040e4f0 f i Arrow.obj
 0001:0000d510       ?get@ImageManager@@SAPAV1@XZ 0040e510 f i Arrow.obj
 0001:0000d5c0       ?getCurrentMouseX@BaseEngine@@QBEHXZ 0040e5c0 f i Arrow.obj
 0001:0000d5e0       ?getCurrentMouseY@BaseEngine@@QBEHXZ 0040e5e0 f i Arrow.obj
 0001:0000d600       ?getEngine@DisplayableObject@@QBEPAVBaseEngine@@XZ 0040e600 f i Arrow.obj
 0001:0000d620       ?getForegroundSurface@BaseEngine@@QAEPAVDrawingSurface@@XZ 0040e620 f i Arrow.obj
 0001:0000d640       ?getHeight@RawImageData@@QBEHXZ 0040e640 f i Arrow.obj
 0001:0000d660       ?getHeight@SimpleImage@@QBEHXZ 0040e660 f i Arrow.obj
 0001:0000d690       ?getImagePtrbyURL@ImageManager@@QAE?AV?$shared_ptr@VRawImageData@@@std@@V?$basic_string@DU?$char_traits@D@std@@V?$allocator@D@2@@3@_N1@Z 0040e690 f i Arrow.obj
 0001:0000dad0       ?getImagebyURL@ImageManager@@QAE?AVSimpleImage@@V?$basic_string@DU?$char_traits@D@std@@V?$allocator@D@2@@std@@_N1@Z 0040ead0 f i Arrow.obj
 0001:0000dba0       ?getWidth@RawImageData@@QBEHXZ 0040eba0 f i Arrow.obj
 0001:0000dbc0       ?getWidth@SimpleImage@@QBEHXZ 0040ebc0 f i Arrow.obj
 0001:0000dbf0       ?getXCentre@DisplayableObject@@QBEHXZ 0040ebf0 f i Arrow.obj
 0001:0000dc20       ?getXForRotationAndCrop@RawImageData@@SAHHHHHHH@Z 0040ec20 f i Arrow.obj
 0001:0000dc90       ?getYCentre@DisplayableObject@@QBEHXZ 0040ec90 f i Arrow.obj
 0001:0000dcc0       ?getYForRotationAndCrop@RawImageData@@SAHHHHHHH@Z 0040ecc0 f i Arrow.obj
 0001:0000dd30       ?isVisible@DisplayableObject@@QBE_NXZ 0040ed30 f i Arrow.obj
 0001:0000dd50       ?length@?$_Narrow_char_traits@DH@std@@SAIQBD@Z 0040ed50 f i Arrow.obj
 0001:0000dd70       ?loadAsNew@ImageManager@@QAE?AV?$shared_ptr@VRawImageData@@@std@@V?$basic_string@DU?$char_traits@D@std@@V?$allocator@D@2@@3@@Z 0040ed70 f i Arrow.obj
 0001:0000df40       ?loadImage@ImageManager@@SA?AVSimpleImage@@V?$basic_string@DU?$char_traits@D@std@@V?$allocator@D@2@@std@@_N@Z 0040ef40 f i Arrow.obj
 0001:0000e000       ?loadImage@RawImageData@@QAE_NV?$basic_string@DU?$char_traits@D@std@@V?$allocator@D@2@@std@@HHHHH_N@Z 0040f000 f i Arrow.obj
 0001:0000e310       ?lock@?$weak_ptr@VRawImageData@@@std@@QBE?AV?$shared_ptr@VRawImageData@@@2@XZ 0040f310 f i Arrow.obj
 0001:0000e360       ?max@?$numeric_limits@H@std@@SAHXZ 0040f360 f i Arrow.obj
 0001:0000e370       ?max_size@?$_Default_allocator_traits@V?$allocator@D@std@@@std@@SAIABV?$allocator@D@2@@Z 0040f370 f i Arrow.obj
 0001:0000e380       ?max_size@?$_Default_allocator_traits@V?$allocator@U?$_Tree_node@U?$pair@$$CBV?$basic_string@DU?$char_traits@D@std@@V?$allocator@D@2@@std@@V?$shared_ptr@VRawImageData@@@2@@std@@PAX@std@@@std@@@std@@SAIABV?$allocator@U?$_Tree_node@U?$pair@$$CBV?$basic_string@DU?$char_traits@D@std@@V?$allocator@D@2@@std@@V?$shared_ptr@VRawImageData@@@2@@std@@PAX@std@@@2@@Z 0040f380 f i Arrow.obj
 0001:0000e390       ?max_size@?$_Default_allocator_traits@V?$allocator@U?$_Tree_node@U?$pair@$$CBV?$basic_string@DU?$char_traits@D@std@@V?$allocator@D@2@@std@@V?$weak_ptr@VRawImageData@@@2@@std@@PAX@std@@@std@@@std@@SAIABV?$allocator@U?$_Tree_node@U?$pair@$$CBV?$basic_string@DU?$char_traits@D@std@@V?$allocator@D@2@@std@@V?$weak_ptr@VRawImageData@@@2@@std@@PAX@std@@@2@@Z 0040f390 f i Arrow.obj
 0001:0000e3a0       ?max_size@?$_Tree@V?$_Tmap_traits@V?$basic_string@DU?$char_traits@D@std@@V?$allocator@D@2@@std@@V?$shared_ptr@VRawImageData@@@2@U?$less@V?$basic_string@DU?$char_traits@D@std@@V?$allocator@D@2@@std@@@2@V?$allocator@U?$pair@$$CBV?$basic_string@DU?$char_traits@D@std@@V?$allocator@D@2@@std@@V?$shared_ptr@VRawImageData@@@2@@std@@@2@$0A@@std@@@std@@QBEIXZ 0040f3a0 f i Arrow.obj
 0001:0000e3f0       ?max_size@?$_Tree@V?$_Tmap_traits@V?$basic_string@DU?$char_traits@D@std@@V?$allocator@D@2@@std@@V?$weak_ptr@VRawImageData@@@2@U?$less@V?$basic_string@DU?$char_traits@D@std@@V?$allocator@D@2@@std@@@2@V?$allocator@U?$pair@$$CBV?$basic_string@DU?$char_traits@D@std@@V?$allocator@D@2@@std@@V?$weak_ptr@VRawImageData@@@2@@std@@@2@$0A@@std@@@std@@QBEIXZ 0040f3f0 f i Arrow.obj
 0001:0000e440       ?max_size@?$basic_string@DU?$char_traits@D@std@@V?$allocator@D@2@@std@@QBEIXZ 0040f440 f i Arrow.obj
 0001:0000e4c0       ?move@?$_Char_traits@DH@std@@SAPADQADQBDI@Z 0040f4c0 f i Arrow.obj
 0001:0000e4f0       ?pointer_to@?$pointer_traits@PAU?$pair@$$CBV?$basic_string@DU?$char_traits@D@std@@V?$allocator@D@2@@std@@V?$weak_ptr@VRawImageData@@@2@@std@@@std@@SAPAU?$pair@$$CBV?$basic_string@DU?$char_traits@D@std@@V?$allocator@D@2@@std@@V?$weak_ptr@VRawImageData@@@2@@2@AAU32@@Z 0040f4f0 f i Arrow.obj
 0001:0000e510       ?select_on_container_copy_construction@?$_Default_allocator_traits@V?$allocator@D@std@@@std@@SA?AV?$allocator@D@2@ABV32@@Z 0040f510 f i Arrow.obj
 0001:0000e520       ?setSize@DisplayableObject@@QAEXHH@Z 0040f520 f i Arrow.obj
 0001:0000e550       ?size@?$basic_string@DU?$char_traits@D@std@@V?$allocator@D@2@@std@@QBEIXZ 0040f550 f i Arrow.obj
 0001:0000e570       ?use_count@?$_Ptr_base@VRawImageData@@@std@@QBEJXZ 0040f570 f i Arrow.obj
 0001:0000e5b0       ?what@exception@std@@UBEPBDXZ 0040f5b0 f i Arrow.obj
 0001:0000e5f0       ___local_stdio_printf_options 0040f5f0 f i Arrow.obj
 0001:0000e600       __vfprintf_l               0040f600 f i Arrow.obj
 0001:0000e640       _printf                    0040f640 f i Arrow.obj
 0001:0000e690       ?virtDrawTileAt@CircuitTiles@@UBEXPAVBaseEngine@@PAVDrawingSurface@@HHHH@Z 0040f690 f   CircuitTiles.obj
 0001:0000e850       ?getMapValue@TileManager@@QBEHHH@Z 0040f850 f i CircuitTiles.obj
 0001:0000e880       ?getTileHeight@TileManager@@QBEHXZ 0040f880 f i CircuitTiles.obj
 0001:0000e8a0       ?getTileWidth@TileManager@@QBEHXZ 0040f8a0 f i CircuitTiles.obj
 0001:0000e8c0       ?virtSetupBackgroundBuffer@DraggingDemo@@UAEXXZ 0040f8c0 f   DraggingDemo.obj
 0001:0000ea00       ?virtInitialiseObjects@DraggingDemo@@UAEHXZ 0040fa00 f   DraggingDemo.obj
 0001:0000ec50       ?virtKeyDown@DraggingDemo@@UAEXH@Z 0040fc50 f   DraggingDemo.obj
 0001:0000ed70       ??$_Copy_memmove@PAPAVDisplayableObject@@PAPAV1@@std@@YAPAPAVDisplayableObject@@PAPAV1@00@Z 0040fd70 f i DraggingDemo.obj
 0001:0000ee00       ??$_Destroy_range@V?$allocator@PAVDisplayableObject@@@std@@@std@@YAXPAPAVDisplayableObject@@QAPAV1@AAV?$allocator@PAVDisplayableObject@@@0@@Z 0040fe00 f i DraggingDemo.obj
 0001:0000ee10       ??$_Emplace_back@$$V@?$_Uninitialized_backout_al@V?$allocator@PAVDisplayableObject@@@std@@@std@@QAEXXZ 0040fe10 f i DraggingDemo.obj
 0001:0000ee60       ??$_Emplace_back@PAVDisplayableObject@@@?$_Uninitialized_backout_al@V?$allocator@PAVDisplayableObject@@@std@@@std@@QAEX$$QAPAVDisplayableObject@@@Z 0040fe60 f i DraggingDemo.obj
 0001:0000eec0       ??$_Get_size_of_n@$03@std@@YAII@Z 0040fec0 f i DraggingDemo.obj
 0001:0000ef00       ??$_Get_unwrapped@ABQAPAVDisplayableObject@@@std@@YA?A_TABQAPAVDisplayableObject@@@Z 0040ff00 f i DraggingDemo.obj
 0001:0000ef10       ??$_Resize@U_Value_init_tag@std@@@?$vector@PAVDisplayableObject@@V?$allocator@PAVDisplayableObject@@@std@@@std@@AAEXIABU_Value_init_tag@1@@Z 0040ff10 f i DraggingDemo.obj
 0001:0000f040       ??$_Resize_reallocate@U_Value_init_tag@std@@@?$vector@PAVDisplayableObject@@V?$allocator@PAVDisplayableObject@@@std@@@std@@AAEXIABU_Value_init_tag@1@@Z 00410040 f i DraggingDemo.obj
 0001:0000f1f0       ??$_To_address@PAPAVDisplayableObject@@@std@@YA?A_PABQAPAVDisplayableObject@@@Z 004101f0 f i DraggingDemo.obj
 0001:0000f200       ??$_Unfancy@PAVDisplayableObject@@@std@@YAPAPAVDisplayableObject@@PAPAV1@@Z 00410200 f i DraggingDemo.obj
 0001:0000f210       ??$_Uninitialized_move@PAPAVDisplayableObject@@V?$allocator@PAVDisplayableObject@@@std@@@std@@YAPAPAVDisplayableObject@@QAPAV1@0PAPAV1@AAV?$allocator@PAVDisplayableObject@@@0@@Z 00410210 f i DraggingDemo.obj
 0001:0000f330       ??$_Uninitialized_value_construct_n@V?$allocator@PAVDisplayableObject@@@std@@@std@@YAPAPAVDisplayableObject@@PAPAV1@IAAV?$allocator@PAVDisplayableObject@@@0@@Z 00410330 f i DraggingDemo.obj
 0001:0000f410       ??$_Voidify_iter@PAPAVDisplayableObject@@@std@@YAPAXPAPAVDisplayableObject@@@Z 00410410 f i DraggingDemo.obj
 0001:0000f420       ??$_Zero_range@PAPAVDisplayableObject@@@std@@YAPAPAVDisplayableObject@@QAPAV1@0@Z 00410420 f i DraggingDemo.obj
 0001:0000f470       ??$construct@PAVDisplayableObject@@$$V@?$_Default_allocator_traits@V?$allocator@PAVDisplayableObject@@@std@@@std@@SAXAAV?$allocator@PAVDisplayableObject@@@1@QAPAVDisplayableObject@@@Z 00410470 f i DraggingDemo.obj
 0001:0000f4c0       ??$construct@PAVDisplayableObject@@PAV1@@?$_Default_allocator_traits@V?$allocator@PAVDisplayableObject@@@std@@@std@@SAXAAV?$allocator@PAVDisplayableObject@@@1@QAPAVDisplayableObject@@$$QAPAV3@@Z 004104c0 f i DraggingDemo.obj
 0001:0000f510       ??$forward@PAVDisplayableObject@@@std@@YA$$QAPAVDisplayableObject@@AAPAV1@@Z 00410510 f i DraggingDemo.obj
 0001:0000f520       ??$move@AAPAVDisplayableObject@@@std@@YA$$QAPAVDisplayableObject@@AAPAV1@@Z 00410520 f i DraggingDemo.obj
 0001:0000f530       ??0?$_Uninitialized_backout_al@V?$allocator@PAVDisplayableObject@@@std@@@std@@QAE@PAPAVDisplayableObject@@AAV?$allocator@PAVDisplayableObject@@@1@@Z 00410530 f i DraggingDemo.obj
 0001:0000f570       ??0DragableBaseClassObject@@QAE@HHPAVBaseEngine@@HH_N@Z 00410570 f i DraggingDemo.obj
 0001:0000f600       ??0DragableBaseClassObject@@QAE@PAVBaseEngine@@HH_N@Z 00410600 f i DraggingDemo.obj
 0001:0000f680       ??0DragableImageObject@@QAE@HHPAVBaseEngine@@V?$basic_string@DU?$char_traits@D@std@@V?$allocator@D@2@@std@@_N2@Z 00410680 f i DraggingDemo.obj
 0001:0000f820       ??0DragableObject@@QAE@HHPAVBaseEngine@@HH_N1@Z 00410820 f i DraggingDemo.obj
 0001:0000f8d0       ??0DragableObject@@QAE@PAVBaseEngine@@HH_N1@Z 004108d0 f i DraggingDemo.obj
 0001:0000f980       ??0ImageObject@@QAE@HHPAVBaseEngine@@V?$basic_string@DU?$char_traits@D@std@@V?$allocator@D@2@@std@@_N2@Z 00410980 f i DraggingDemo.obj
 0001:0000fb10       ??1?$_Uninitialized_backout_al@V?$allocator@PAVDisplayableObject@@@std@@@std@@QAE@XZ 00410b10 f i DraggingDemo.obj
 0001:0000fb40       ??1DragableBaseClassObject@@UAE@XZ 00410b40 f i DraggingDemo.obj
 0001:0000fb60       ??1DragableImageObject@@UAE@XZ 00410b60 f i DraggingDemo.obj
 0001:0000fb90       ??1DragableObject@@UAE@XZ  00410b90 f i DraggingDemo.obj
 0001:0000fbb0       ??1ImageObject@@UAE@XZ     00410bb0 f i DraggingDemo.obj
 0001:0000fbe0       ??A?$vector@PAVDisplayableObject@@V?$allocator@PAVDisplayableObject@@@std@@@std@@QAEAAPAVDisplayableObject@@I@Z 00410be0 f i DraggingDemo.obj
 0001:0000fc90       ??_EDragableBaseClassObject@@UAEPAXI@Z 00410c90 f i DraggingDemo.obj
 0001:0000fc90       ??_GDragableBaseClassObject@@UAEPAXI@Z 00410c90 f i DraggingDemo.obj
 0001:0000fcd0       ??_EDragableImageObject@@UAEPAXI@Z 00410cd0 f i DraggingDemo.obj
 0001:0000fcd0       ??_GDragableImageObject@@UAEPAXI@Z 00410cd0 f i DraggingDemo.obj
 0001:0000fd10       ??_EDragableObject@@UAEPAXI@Z 00410d10 f i DraggingDemo.obj
 0001:0000fd10       ??_GDragableObject@@UAEPAXI@Z 00410d10 f i DraggingDemo.obj
 0001:0000fd50       ??_EImageObject@@UAEPAXI@Z 00410d50 f i DraggingDemo.obj
 0001:0000fd50       ??_GImageObject@@UAEPAXI@Z 00410d50 f i DraggingDemo.obj
 0001:0000fd90       ?_Calculate_growth@?$vector@PAVDisplayableObject@@V?$allocator@PAVDisplayableObject@@@std@@@std@@ABEII@Z 00410d90 f i DraggingDemo.obj
 0001:0000fe00       ?_Change_array@?$vector@PAVDisplayableObject@@V?$allocator@PAVDisplayableObject@@@std@@@std@@AAEXQAPAVDisplayableObject@@II@Z 00410e00 f i DraggingDemo.obj
 0001:0000fed0       ?_Get_first@?$_Compressed_pair@V?$allocator@PAVDisplayableObject@@@std@@V?$_Vector_val@U?$_Simple_types@PAVDisplayableObject@@@std@@@2@$00@std@@QAEAAV?$allocator@PAVDisplayableObject@@@2@XZ 00410ed0 f i DraggingDemo.obj
 0001:0000fef0       ?_Get_first@?$_Compressed_pair@V?$allocator@PAVDisplayableObject@@@std@@V?$_Vector_val@U?$_Simple_types@PAVDisplayableObject@@@std@@@2@$00@std@@QBEABV?$allocator@PAVDisplayableObject@@@2@XZ 00410ef0 f i DraggingDemo.obj
 0001:0000ff10       ?_Getal@?$vector@PAVDisplayableObject@@V?$allocator@PAVDisplayableObject@@@std@@@std@@AAEAAV?$allocator@PAVDisplayableObject@@@2@XZ 00410f10 f i DraggingDemo.obj
 0001:0000ff30       ?_Getal@?$vector@PAVDisplayableObject@@V?$allocator@PAVDisplayableObject@@@std@@@std@@ABEABV?$allocator@PAVDisplayableObject@@@2@XZ 00410f30 f i DraggingDemo.obj
 0001:0000ff50       ?_Orphan_range@?$vector@PAVDisplayableObject@@V?$allocator@PAVDisplayableObject@@@std@@@std@@ABEXPAPAVDisplayableObject@@0@Z 00410f50 f i DraggingDemo.obj
 0001:0000ff80       ?_Orphan_range_locked@?$vector@PAVDisplayableObject@@V?$allocator@PAVDisplayableObject@@@std@@@std@@ABEXPAPAVDisplayableObject@@0@Z 00410f80 f i DraggingDemo.obj
 0001:00010010       ?_Orphan_range_unlocked@?$vector@PAVDisplayableObject@@V?$allocator@PAVDisplayableObject@@@std@@@std@@ABEXPAPAVDisplayableObject@@0@Z 00411010 f i DraggingDemo.obj
 0001:000100a0       ?_Release@?$_Uninitialized_backout_al@V?$allocator@PAVDisplayableObject@@@std@@@std@@QAEPAPAVDisplayableObject@@XZ 004110a0 f i DraggingDemo.obj
 0001:000100d0       ?_Xlength@?$vector@PAVDisplayableObject@@V?$allocator@PAVDisplayableObject@@@std@@@std@@CAXXZ 004110d0 f i DraggingDemo.obj
 0001:000100f0       ?allocate@?$allocator@PAVDisplayableObject@@@std@@QAEPAPAVDisplayableObject@@I@Z 004110f0 f i DraggingDemo.obj
 0001:00010120       ?capacity@?$vector@PAVDisplayableObject@@V?$allocator@PAVDisplayableObject@@@std@@@std@@QBEIXZ 00411120 f i DraggingDemo.obj
 0001:00010150       ?checkDoDrag@DragableBaseClassObject@@UAEXHH@Z 00411150 f i DraggingDemo.obj
 0001:000101d0       ?checkFinishDrag@DragableBaseClassObject@@UAEXHH@Z 004111d0 f i DraggingDemo.obj
 0001:00010210       ?checkStartDrag@DragableBaseClassObject@@UAEXHH@Z 00411210 f i DraggingDemo.obj
 0001:00010290       ?checkWritable@DrawingSurface@@QAEXXZ 00411290 f i DraggingDemo.obj
 0001:000102e0       ?createObjectArray@DisplayableObjectContainer@@QAEXH@Z 004112e0 f i DraggingDemo.obj
 0001:00010330       ?deallocate@?$allocator@PAVDisplayableObject@@@std@@QAEXQAPAVDisplayableObject@@I@Z 00411330 f i DraggingDemo.obj
 0001:000103d0       ?deleteOnRemoval@DisplayableObject@@UBE_NXZ 004113d0 f i DraggingDemo.obj
 0001:000103f0       ?doDragRedraw@DragableBaseClassObject@@UAEXXZ 004113f0 f i DraggingDemo.obj
 0001:00010410       ?drawableObjectsChanged@DisplayableObjectContainer@@QAEXXZ 00411410 f i DraggingDemo.obj
 0001:00010430       ?getIntsPerWindowRow@DrawingSurface@@QBEIXZ 00411430 f i DraggingDemo.obj
 0001:00010450       ?getSurfaceHeight@DrawingSurface@@QBEHXZ 00411450 f i DraggingDemo.obj
 0001:00010470       ?getSurfaceWidth@DrawingSurface@@QBEHXZ 00411470 f i DraggingDemo.obj
 0001:00010490       ?getWindowHeight@BaseEngine@@QBEHXZ 00411490 f i DraggingDemo.obj
 0001:000104b0       ?getWindowWidth@BaseEngine@@QBEHXZ 004114b0 f i DraggingDemo.obj
 0001:000104d0       ?max_size@?$_Default_allocator_traits@V?$allocator@PAVDisplayableObject@@@std@@@std@@SAIABV?$allocator@PAVDisplayableObject@@@2@@Z 004114d0 f i DraggingDemo.obj
 0001:000104e0       ?max_size@?$vector@PAVDisplayableObject@@V?$allocator@PAVDisplayableObject@@@std@@@std@@QBEIXZ 004114e0 f i DraggingDemo.obj
 0001:00010530       ?notifyObjectsAboutMouse@BaseEngine@@QAEX_N@Z 00411530 f i DraggingDemo.obj
 0001:00010550       ?rawSetPixel@DrawingSurface@@QAEXHHI@Z 00411550 f i DraggingDemo.obj
 0001:00010600       ?resize@?$vector@PAVDisplayableObject@@V?$allocator@PAVDisplayableObject@@@std@@@std@@QAEXI@Z 00411600 f i DraggingDemo.obj
 0001:00010630       ?setBackgroundPixel@BaseEngine@@QAEXHHI@Z 00411630 f i DraggingDemo.obj
 0001:00010660       ?setExitWithCode@BaseEngine@@QAEXH@Z 00411660 f i DraggingDemo.obj
 0001:00010680       ?setPixel@DrawingSurface@@QAEXHHI@Z 00411680 f i DraggingDemo.obj
 0001:000106f0       ?setPosition@DisplayableObject@@UAEXHH@Z 004116f0 f i DraggingDemo.obj
 0001:00010730       ?setVisible@DisplayableObject@@QAEX_N@Z 00411730 f i DraggingDemo.obj
 0001:00010750       ?storeObjectInArray@DisplayableObjectContainer@@QAEXHPAVDisplayableObject@@@Z 00411750 f i DraggingDemo.obj
 0001:00010790       ?virtDraw@DragableImageObject@@UAEXXZ 00411790 f i DraggingDemo.obj
 0001:00010810       ?virtDraw@ImageObject@@UAEXXZ 00411810 f i DraggingDemo.obj
 0001:00010890       ?virtIsPositionWithinObject@DisplayableObject@@UAE_NHH@Z 00411890 f i DraggingDemo.obj
 0001:00010920       ?virtKeyDown@DisplayableObject@@UAEXH@Z 00411920 f i DraggingDemo.obj
 0001:00010930       ?virtKeyUp@DisplayableObject@@UAEXH@Z 00411930 f i DraggingDemo.obj
 0001:00010940       ?virtMouseDown@DisplayableObject@@UAEXHHH@Z 00411940 f i DraggingDemo.obj
 0001:00010950       ?virtMouseDown@DragableImageObject@@UAEXHHH@Z 00411950 f i DraggingDemo.obj
 0001:00010980       ?virtMouseDown@DragableObject@@UAEXHHH@Z 00411980 f i DraggingDemo.obj
 0001:000109b0       ?virtMouseMoved@DisplayableObject@@UAEXHH@Z 004119b0 f i DraggingDemo.obj
 0001:000109c0       ?virtMouseMoved@DragableImageObject@@UAEXHH@Z 004119c0 f i DraggingDemo.obj
 0001:000109f0       ?virtMouseMoved@DragableObject@@UAEXHH@Z 004119f0 f i DraggingDemo.obj
 0001:00010a20       ?virtMouseUp@DisplayableObject@@UAEXHHH@Z 00411a20 f i DraggingDemo.obj
 0001:00010a30       ?virtMouseUp@DragableImageObject@@UAEXHHH@Z 00411a30 f i DraggingDemo.obj
 0001:00010a60       ?virtMouseUp@DragableObject@@UAEXHHH@Z 00411a60 f i DraggingDemo.obj
 0001:00010aa0       ?virtNotify@DisplayableObject@@UAEJHHH@Z 00411aa0 f i DraggingDemo.obj
 0001:00010ac0       ?virtSingleItemMouseDown@DisplayableObject@@UAE_NHHH@Z 00411ac0 f i DraggingDemo.obj
 0001:00010ae0       ??0DrawingSurface@@QAE@PAVBaseEngine@@@Z 00411ae0 f   DrawingSurface.obj
 0001:00010b80       ?drawLine@DrawingSurface@@QAEXNNNNI@Z 00411b80 f   DrawingSurface.obj
 0001:00010d60       ?drawThickLine@DrawingSurface@@QAEXNNNNIH@Z 00411d60 f   DrawingSurface.obj
 0001:00011200       ?drawVerticalSidedRegion@DrawingSurface@@QAEXNNNNNNI@Z 00412200 f   DrawingSurface.obj
 0001:000115a0       ?drawRectangle@DrawingSurface@@QAEXHHHHI@Z 004125a0 f   DrawingSurface.obj
 0001:000116b0       ?drawOval@DrawingSurface@@QAEXHHHHI@Z 004126b0 f   DrawingSurface.obj
 0001:00011880       ?rawDrawOval@DrawingSurface@@QAEXHHHHI@Z 00412880 f   DrawingSurface.obj
 0001:000119e0       ?drawHollowOval@DrawingSurface@@QAEXHHHHHHHHI@Z 004129e0 f   DrawingSurface.obj
 0001:00011d00       ?drawPolygon@DrawingSurface@@QAEXHPAN0I@Z 00412d00 f   DrawingSurface.obj
 0001:00012480       ?drawFastString@DrawingSurface@@QAEXHHPBDIPAVFont@@@Z 00413480 f   DrawingSurface.obj
 0001:00012570       ?drawScalableString@DrawingSurface@@QAEXHHPBDIPAVFont@@@Z 00413570 f   DrawingSurface.obj
 0001:00012740       ?drawShortenedArrow@DrawingSurface@@QAEXHHHHHHIHH@Z 00413740 f   DrawingSurface.obj
 0001:00012cc0       ?drawShortenedLine@DrawingSurface@@QAEXHHHHHHIH@Z 00413cc0 f   DrawingSurface.obj
 0001:000130c0       ?drawTriangle@DrawingSurface@@QAEXNNNNNNI@Z 004140c0 f   DrawingSurface.obj
 0001:00013410       ?copyEntireSurface@DrawingSurface@@QAEXPAV1@@Z 00414410 f   DrawingSurface.obj
 0001:00013460       ?copyRectangleFrom@DrawingSurface@@QAEXPAV1@HHHHHH@Z 00414460 f   DrawingSurface.obj
 0001:00013660       ?getAngle@DrawingSurface@@SANNNNN@Z 00414660 f   DrawingSurface.obj
 0001:00013700       ?getVirtualRedrawMinX@DrawingSurface@@QAEHXZ 00414700 f   DrawingSurface.obj
 0001:00013750       ?getVirtualRedrawMinY@DrawingSurface@@QAEHXZ 00414750 f   DrawingSurface.obj
 0001:000137a0       ?getVirtualRedrawMaxX@DrawingSurface@@QAEHXZ 004147a0 f   DrawingSurface.obj
 0001:00013800       ?getVirtualRedrawMaxY@DrawingSurface@@QAEHXZ 00414800 f   DrawingSurface.obj
 0001:00013860       ?getRealRedrawMinX@DrawingSurface@@QAEHXZ 00414860 f   DrawingSurface.obj
 0001:000138b0       ?getRealRedrawMinY@DrawingSurface@@QAEHXZ 004148b0 f   DrawingSurface.obj
 0001:00013900       ?getRealRedrawMaxX@DrawingSurface@@QAEHXZ 00414900 f   DrawingSurface.obj
 0001:00013950       ?getRealRedrawMaxY@DrawingSurface@@QAEHXZ 00414950 f   DrawingSurface.obj
 0001:00014550       ??$move@AAH@std@@YA$$QAHAAH@Z 00415550 f i DrawingSurface.obj
 0001:00014560       ??$move@AAN@std@@YA$$QANAAN@Z 00415560 f i DrawingSurface.obj
 0001:00014570       ??$swap@H$0A@@std@@YAXAAH0@Z 00415570 f i DrawingSurface.obj
 0001:000145c0       ??$swap@N$0A@@std@@YAXAAN0@Z 004155c0 f i DrawingSurface.obj
 0001:00014620       ?checkBlitable@DrawingSurface@@QAEXXZ 00415620 f i DrawingSurface.obj
 0001:00014670       ?convertRealToVirtualXPosition@DrawingSurface@@QAEHH@Z 00415670 f i DrawingSurface.obj
 0001:000146b0       ?convertRealToVirtualYPosition@DrawingSurface@@QAEHH@Z 004156b0 f i DrawingSurface.obj
 0001:000146f0       ?getDefaultFont@BaseEngine@@QBEPAVFont@@XZ 004156f0 f i DrawingSurface.obj
 0001:00014710       ?getRedrawAllScreen@BaseEngine@@QAEHXZ 00415710 f i DrawingSurface.obj
 0001:00014730       ?getRedrawRectRealBottom@BaseEngine@@QAEHXZ 00415730 f i DrawingSurface.obj
 0001:00014750       ?getRedrawRectRealLeft@BaseEngine@@QAEHXZ 00415750 f i DrawingSurface.obj
 0001:00014770       ?getRedrawRectRealRight@BaseEngine@@QAEHXZ 00415770 f i DrawingSurface.obj
 0001:00014790       ?getRedrawRectRealTop@BaseEngine@@QAEHXZ 00415790 f i DrawingSurface.obj
 0001:000147b0       ?getRedrawRectVirtualBottom@BaseEngine@@QAEHXZ 004157b0 f i DrawingSurface.obj
 0001:000147d0       ?getRedrawRectVirtualLeft@BaseEngine@@QAEHXZ 004157d0 f i DrawingSurface.obj
 0001:000147f0       ?getRedrawRectVirtualRight@BaseEngine@@QAEHXZ 004157f0 f i DrawingSurface.obj
 0001:00014810       ?getRedrawRectVirtualTop@BaseEngine@@QAEHXZ 00415810 f i DrawingSurface.obj
 0001:00014830       ?getTTFFont@Font@@QAEPAU_TTF_Font@@XZ 00415830 f i DrawingSurface.obj
 0001:00014850       ?mySDLTempRelockSurface@DrawingSurface@@QAEXXZ 00415850 f i DrawingSurface.obj
 0001:000148a0       ?mySDLTempUnlockSurface@DrawingSurface@@QAEXXZ 004158a0 f i DrawingSurface.obj
 0001:000148f0       ?setDrawPointsFilter@DrawingSurface@@QAEXPAVFilterPoints@@@Z 004158f0 f i DrawingSurface.obj
 0001:00014910       ?virtDraw@Enemy@@UAEXXZ    00415910 f   Enemy.obj
 0001:00014b00       ?virtDoUpdate@Enemy@@UAEXH@Z 00415b00 f   Enemy.obj
 0001:00014e50       ??$_Construct_in_place@PAVDisplayableObject@@ABQAV1@@std@@YAXAAPAVDisplayableObject@@ABQAV1@@Z 00415e50 f i Enemy.obj
 0001:00014ea0       ??$_Emplace_back_with_unused_capacity@ABQAVDisplayableObject@@@?$vector@PAVDisplayableObject@@V?$allocator@PAVDisplayableObject@@@std@@@std@@AAEAAPAVDisplayableObject@@ABQAV2@@Z 00415ea0 f i Enemy.obj
 0001:00014f20       ??$_Emplace_one_at_back@ABQAVDisplayableObject@@@?$vector@PAVDisplayableObject@@V?$allocator@PAVDisplayableObject@@@std@@@std@@AAEAAPAVDisplayableObject@@ABQAV2@@Z 00415f20 f i Enemy.obj
 0001:00014fa0       ??$_Emplace_reallocate@ABQAVDisplayableObject@@@?$vector@PAVDisplayableObject@@V?$allocator@PAVDisplayableObject@@@std@@@std@@AAEPAPAVDisplayableObject@@QAPAV2@ABQAV2@@Z 00415fa0 f i Enemy.obj
 0001:00015200       ??$_Reallocate_for@V<lambda_9366063389c5f42a00a5088cf24e69de>@@PBD@?$basic_string@DU?$char_traits@D@std@@V?$allocator@D@2@@std@@AAEAAV01@IV<lambda_9366063389c5f42a00a5088cf24e69de>@@PBD@Z 00416200 f i Enemy.obj
 0001:00015300       ??$addressof@PAVDisplayableObject@@@std@@YAPAPAVDisplayableObject@@AAPAV1@@Z 00416300 f i Enemy.obj
 0001:00015310       ??$construct@PAVDisplayableObject@@ABQAV1@@?$_Default_allocator_traits@V?$allocator@PAVDisplayableObject@@@std@@@std@@SAXAAV?$allocator@PAVDisplayableObject@@@1@QAPAVDisplayableObject@@ABQAV3@@Z 00416310 f i Enemy.obj
 0001:00015360       ??$emplace_back@ABQAVDisplayableObject@@@?$vector@PAVDisplayableObject@@V?$allocator@PAVDisplayableObject@@@std@@@std@@QAE?A_TABQAVDisplayableObject@@@Z 00416360 f i Enemy.obj
 0001:00015390       ??$forward@ABQAVDisplayableObject@@@std@@YAABQAVDisplayableObject@@ABQAV1@@Z 00416390 f i Enemy.obj
 0001:000153a0       ??$move@AAPAVRawImageData@@@std@@YA$$QAPAVRawImageData@@AAPAV1@@Z 004163a0 f i Enemy.obj
 0001:000153b0       ??$move@AAPAV_Ref_count_base@std@@@std@@YA$$QAPAV_Ref_count_base@0@AAPAV10@@Z 004163b0 f i Enemy.obj
 0001:000153c0       ??$swap@PAVRawImageData@@$0A@@std@@YAXAAPAVRawImageData@@0@Z 004163c0 f i Enemy.obj
 0001:00015410       ??$swap@PAV_Ref_count_base@std@@$0A@@std@@YAXAAPAV_Ref_count_base@0@0@Z 00416410 f i Enemy.obj
 0001:00015460       ??0?$basic_string@DU?$char_traits@D@std@@V?$allocator@D@2@@std@@QAE@XZ 00416460 f i Enemy.obj
 0001:000154f0       ??0Attack@@QAE@PAVBaseEngine@@HHH@Z 004164f0 f i Enemy.obj
 0001:00015600       ??0GameObject@@QAE@HHPAVBaseEngine@@HH_N@Z 00416600 f i Enemy.obj
 0001:000156a0       ??1Attack@@UAE@XZ          004166a0 f i Enemy.obj
 0001:000156c0       ??1GameObject@@UAE@XZ      004166c0 f i Enemy.obj
 0001:000156f0       ??4?$basic_string@DU?$char_traits@D@std@@V?$allocator@D@2@@std@@QAEAAV01@QBD@Z 004166f0 f i Enemy.obj
 0001:00015710       ??4?$shared_ptr@VRawImageData@@@std@@QAEAAV01@ABV01@@Z 00416710 f i Enemy.obj
 0001:00015750       ??4SimpleImage@@QAEAAV0@ABV0@@Z 00416750 f i Enemy.obj
 0001:000157a0       ??A?$vector@PAVDisplayableObject@@V?$allocator@PAVDisplayableObject@@@std@@@std@@QBEABQAVDisplayableObject@@I@Z 004167a0 f i Enemy.obj
 0001:00015850       ??R<lambda_9366063389c5f42a00a5088cf24e69de>@@QBE@QADIQBD@Z 00416850 f i Enemy.obj
 0001:000158a0       ??_EAttack@@UAEPAXI@Z      004168a0 f i Enemy.obj
 0001:000158a0       ??_GAttack@@UAEPAXI@Z      004168a0 f i Enemy.obj
 0001:000158e0       ??_EGameObject@@UAEPAXI@Z  004168e0 f i Enemy.obj
 0001:000158e0       ??_GGameObject@@UAEPAXI@Z  004168e0 f i Enemy.obj
 0001:00015920       ?_Myptr@?$_String_val@U?$_Simple_types@D@std@@@std@@QAEPADXZ 00416920 f i Enemy.obj
 0001:00015970       ?_Swap@?$_Ptr_base@VRawImageData@@@std@@IAEXAAV12@@Z 00416970 f i Enemy.obj
 0001:000159b0       ?appendObjectToArray@DisplayableObjectContainer@@QAEXPAVDisplayableObject@@@Z 004169b0 f i Enemy.obj
 0001:000159f0       ?assign@?$basic_string@DU?$char_traits@D@std@@V?$allocator@D@2@@std@@QAEAAV12@QBD@Z 004169f0 f i Enemy.obj
 0001:00015a30       ?assign@?$basic_string@DU?$char_traits@D@std@@V?$allocator@D@2@@std@@QAEAAV12@QBDI@Z 00416a30 f i Enemy.obj
 0001:00015ad0       ?getDisplayableObject@DisplayableObjectContainer@@QBEPAVDisplayableObject@@H@Z 00416ad0 f i Enemy.obj
 0001:00015b10       ?getDrawingRegionLeft@DisplayableObject@@QBEHXZ 00416b10 f i Enemy.obj
 0001:00015b30       ?getDrawingRegionTop@DisplayableObject@@QBEHXZ 00416b30 f i Enemy.obj
 0001:00015b50       ?push_back@?$vector@PAVDisplayableObject@@V?$allocator@PAVDisplayableObject@@@std@@@std@@QAEXABQAVDisplayableObject@@@Z 00416b50 f i Enemy.obj
 0001:00015b70       ?size@?$vector@PAVDisplayableObject@@V?$allocator@PAVDisplayableObject@@@std@@@std@@QBEIXZ 00416b70 f i Enemy.obj
 0001:00015ba0       ?swap@?$shared_ptr@VRawImageData@@@std@@QAEXAAV12@@Z 00416ba0 f i Enemy.obj
 0001:00015bc0       ??0FlashingDemo@@QAE@XZ    00416bc0 f   FlashingDemo.obj
 0001:00015c80       ??1FlashingDemo@@UAE@XZ    00416c80 f   FlashingDemo.obj
 0001:00015cd0       ?virtSetupBackgroundBuffer@FlashingDemo@@UAEXXZ 00416cd0 f   FlashingDemo.obj
 0001:00016150       ?virtMainLoopDoBeforeUpdate@FlashingDemo@@UAEXXZ 00417150 f   FlashingDemo.obj
 0001:00016210       ?virtCreateSurfaces@FlashingDemo@@UAEXXZ 00417210 f   FlashingDemo.obj
 0001:00016430       ??1DrawingSurface@@QAE@XZ  00417430 f i FlashingDemo.obj
 0001:00016440       ??_EFlashingDemo@@UAEPAXI@Z 00417440 f i FlashingDemo.obj
 0001:00016440       ??_GFlashingDemo@@UAEPAXI@Z 00417440 f i FlashingDemo.obj
 0001:00016480       ?copyAllBackgroundBuffer@BaseEngine@@UAEXXZ 00417480 f i FlashingDemo.obj
 0001:000164b0       ?copyBackgroundPixels@BaseEngine@@UAEXHHHH@Z 004174b0 f i FlashingDemo.obj
 0001:00016500       ?createSurface@DrawingSurface@@QAEXHH@Z 00417500 f i FlashingDemo.obj
 0001:00016550       ?destroyOldObjects@DisplayableObjectContainer@@UAEX_N@Z 00417550 f i FlashingDemo.obj
 0001:00016640       ?fillBackground@BaseEngine@@UAEXI@Z 00417640 f i FlashingDemo.obj
 0001:00016670       ?fillSurface@DrawingSurface@@QAEXI@Z 00417670 f i FlashingDemo.obj
 0001:00016700       ?filter@BaseEngine@@UAE_NPAVDrawingSurface@@AAH1AAI@Z 00417700 f i FlashingDemo.obj
 0001:000167c0       ?filterConvertRealToVirtualXPosition@FilterPoints@@UAEHH@Z 004177c0 f i FlashingDemo.obj
 0001:000167e0       ?filterConvertRealToVirtualYPosition@FilterPoints@@UAEHH@Z 004177e0 f i FlashingDemo.obj
 0001:00016800       ?filterConvertVirtualToRealXPosition@FilterPoints@@UAEHH@Z 00417800 f i FlashingDemo.obj
 0001:00016820       ?filterConvertVirtualToRealYPosition@FilterPoints@@UAEHH@Z 00417820 f i FlashingDemo.obj
 0001:00016840       ?getModifiedTime@BaseEngine@@UBEHXZ 00417840 f i FlashingDemo.obj
 0001:00016880       ?mySDLLockSurface@DrawingSurface@@QAEXXZ 00417880 f i FlashingDemo.obj
 0001:000168d0       ?mySDLUnlockSurface@DrawingSurface@@QAEXXZ 004178d0 f i FlashingDemo.obj
 0001:00016920       ?redrawDisplay@BaseEngine@@QAEXXZ 00417920 f i FlashingDemo.obj
 0001:00016940       ?virtBackgroundMouseDown@BaseEngine@@UAEXHHHHH@Z 00417940 f i FlashingDemo.obj
 0001:00016950       ?virtMainLoopDoAfterUpdate@BaseEngine@@UAEXXZ 00417950 f i FlashingDemo.obj
 0001:00016960       ?virtMainLoopPostUpdate@BaseEngine@@UAEXXZ 00417960 f i FlashingDemo.obj
 0001:00016970       ?virtMainLoopPreUpdate@BaseEngine@@UAEXXZ 00417970 f i FlashingDemo.obj
 0001:00016980       ?virtMainLoopStartIteration@BaseEngine@@UAEXXZ 00417980 f i FlashingDemo.obj
 0001:00016990       ?virtMouseWheel@BaseEngine@@UAEXHHHH@Z 00417990 f i FlashingDemo.obj
 0001:000169a0       ?virtPostDraw@BaseEngine@@UAEXXZ 004179a0 f i FlashingDemo.obj
 0001:000169b0       ?virtPreDraw@BaseEngine@@UAEXXZ 004179b0 f i FlashingDemo.obj
 0001:000169c0       ?virtRealMouseDown@BaseEngine@@UAEXHHH@Z 004179c0 f i FlashingDemo.obj
 0001:000169d0       ?virtRealMouseUp@BaseEngine@@UAEXHHH@Z 004179d0 f i FlashingDemo.obj
 0001:000169e0       ?virtTouchEvent@BaseEngine@@UAEXHH_J0MMMMM@Z 004179e0 f i FlashingDemo.obj
 0001:000169f0       ?collidedWith@GameObject@@QAE_NPAV1@@Z 004179f0 f   GameObject.obj
 0001:00016b10       ?nonEmptyPixel@GameObject@@QAE_NHH@Z 00417b10 f   GameObject.obj
 0001:00016b80       ?setTimeToAct@GameObject@@QAEXH@Z 00417b80 f   GameObject.obj
 0001:00016bb0       ?isTimeToAct@GameObject@@QAE_NXZ 00417bb0 f   GameObject.obj
 0001:00016c70       ?checkRectangles@CollisionDetection@@SA_NHHHHHHHH@Z 00417c70 f i GameObject.obj
 0001:00016cc0       ?getDrawingRegionBottom@DisplayableObject@@QBEHXZ 00417cc0 f i GameObject.obj
 0001:00016cf0       ?getDrawingRegionRight@DisplayableObject@@QBEHXZ 00417cf0 f i GameObject.obj
 0001:00016d20       ?getPixelColour@SimpleImage@@QBEHHH@Z 00417d20 f i GameObject.obj
 0001:00016d50       ?getRawPixelColour@RawImageData@@QBEHHH@Z 00417d50 f i GameObject.obj
 0001:00016da0       ?virtSetupBackgroundBuffer@ImageMappingDemo@@UAEXXZ 00417da0 f   ImageMappingDemo.obj
 0001:00016ea0       ?virtInitialiseObjects@ImageMappingDemo@@UAEHXZ 00417ea0 f   ImageMappingDemo.obj
 0001:00017210       ?virtKeyDown@ImageMappingDemo@@UAEXH@Z 00418210 f   ImageMappingDemo.obj
 0001:00017240       ?virtMainLoopDoBeforeUpdate@ImageMappingDemo@@UAEXXZ 00418240 f   ImageMappingDemo.obj
 0001:000172d0       ?mapCoordinates@ImageMappingDemo@@UAE_NAAN0ABVSimpleImage@@@Z 004182d0 f   ImageMappingDemo.obj
 0001:00017740       ??0MappableImageObject@@QAE@PAVImagePixelMapping@@HHPAVBaseEngine@@V?$basic_string@DU?$char_traits@D@std@@V?$allocator@D@2@@std@@_N3@Z 00418740 f i ImageMappingDemo.obj
 0001:00017800       ??1MappableImageObject@@UAE@XZ 00418800 f i ImageMappingDemo.obj
 0001:00017820       ??_EMappableImageObject@@UAEPAXI@Z 00418820 f i ImageMappingDemo.obj
 0001:00017820       ??_GMappableImageObject@@UAEPAXI@Z 00418820 f i ImageMappingDemo.obj
 0001:00017860       ?getPixelColour@MappableImageObject@@QAEHHH@Z 00418860 f i ImageMappingDemo.obj
 0001:00017890       ?getTheData@SimpleImage@@QBEABV?$shared_ptr@VRawImageData@@@std@@XZ 00418890 f i ImageMappingDemo.obj
 0001:000178b0       ?setOpaque@RawImageData@@QAEXXZ 004188b0 f i ImageMappingDemo.obj
 0001:00017920       ?setRotation@ImagePixelMappingRotate@@QAEXN@Z 00418920 f i ImageMappingDemo.obj
 0001:00017940       ?setTransparencyColour@MappableImageObject@@QAEXH@Z 00418940 f i ImageMappingDemo.obj
 0001:00017970       ?setTransparencyColour@SimpleImage@@QAEXH@Z 00418970 f i ImageMappingDemo.obj
 0001:000179e0       ?setTransparentColour@RawImageData@@QAEXI@Z 004189e0 f i ImageMappingDemo.obj
 0001:00017b00       ?setXShift@ImagePixelMappingShiftXY@@QAEXN@Z 00418b00 f i ImageMappingDemo.obj
 0001:00017b20       ?setYShift@ImagePixelMappingShiftXY@@QAEXN@Z 00418b20 f i ImageMappingDemo.obj
 0001:00017b40       ?virtDraw@MappableImageObject@@UAEXXZ 00418b40 f i ImageMappingDemo.obj
 0001:00017bd0       ?virtDraw@MST@@UAEXXZ      00418bd0 f   MST.obj
 0001:00017d90       ?calculateDistance@@YANUNode@@0@Z 00418d90 f   MST.obj
 0001:00017df0       ?minimumSpanningTree@@YA?AV?$vector@UEdge@@V?$allocator@UEdge@@@std@@@std@@V?$vector@UNode@@V?$allocator@UNode@@@std@@@2@@Z 00418df0 f   MST.obj
 0001:00018230       ??$?0$$V@?$_Compressed_pair@V?$allocator@UEdge@@@std@@V?$_Vector_val@U?$_Simple_types@UEdge@@@std@@@2@$00@std@@QAE@U_Zero_then_variadic_args_t@1@@Z 00419230 f i MST.obj
 0001:00018260       ??$?0$$V@?$_Compressed_pair@V?$allocator@UNode@@@std@@V?$_Vector_val@U?$_Simple_types@UNode@@@std@@@2@$00@std@@QAE@U_Zero_then_variadic_args_t@1@@Z 00419260 f i MST.obj
 0001:00018290       ??$?0ABV?$allocator@I@std@@$$V@?$_Compressed_pair@V?$allocator@I@std@@V?$_Vector_val@U?$_Simple_types@I@std@@@2@$00@std@@QAE@U_One_then_variadic_args_t@1@ABV?$allocator@I@1@@Z 00419290 f i MST.obj
 0001:000182c0       ??$?0I@?$allocator@U_Container_proxy@std@@@std@@QAE@ABV?$allocator@I@1@@Z 004192c0 f i MST.obj
 0001:000182e0       ??$?0UEdge@@@?$allocator@U_Container_proxy@std@@@std@@QAE@ABV?$allocator@UEdge@@@1@@Z 004192e0 f i MST.obj
 0001:00018300       ??$?0UNode@@@?$allocator@U_Container_proxy@std@@@std@@QAE@ABV?$allocator@UNode@@@1@@Z 00419300 f i MST.obj
 0001:00018320       ??$?0V?$allocator@UEdge@@@std@@PAUEdge@@PAU2@PAU2@@?$_Compressed_pair@V?$allocator@UEdge@@@std@@V?$_Vector_val@U?$_Simple_types@UEdge@@@std@@@2@$00@std@@QAE@U_One_then_variadic_args_t@1@$$QAV?$allocator@UEdge@@@1@$$QAPAUEdge@@22@Z 00419320 f i MST.obj
 0001:00018390       ??$?0V?$allocator@UNode@@@std@@$$V@?$_Compressed_pair@V?$allocator@UNode@@@std@@V?$_Vector_val@U?$_Simple_types@UNode@@@std@@@2@$00@std@@QAE@U_One_then_variadic_args_t@1@$$QAV?$allocator@UNode@@@1@@Z 00419390 f i MST.obj
 0001:000183c0       ??$?0_N@?$allocator@I@std@@QAE@ABV?$allocator@_N@1@@Z 004193c0 f i MST.obj
 0001:000183e0       ??$_Adl_verify_range@V?$_Vector_const_iterator@V?$_Vector_val@U?$_Simple_types@PAVDisplayableObject@@@std@@@std@@@std@@V12@@std@@YAXABV?$_Vector_const_iterator@V?$_Vector_val@U?$_Simple_types@PAVDisplayableObject@@@std@@@std@@@0@0@Z 004193e0 f i MST.obj
 0001:00018400       ??$_Adl_verify_range@V?$_Vector_iterator@V?$_Vector_val@U?$_Simple_types@UEdge@@@std@@@std@@@std@@V12@@std@@YAXABV?$_Vector_iterator@V?$_Vector_val@U?$_Simple_types@UEdge@@@std@@@std@@@0@0@Z 00419400 f i MST.obj
 0001:00018420       ??$_Construct_in_place@UEdge@@ABU1@@std@@YAXAAUEdge@@ABU1@@Z 00419420 f i MST.obj
 0001:00018490       ??$_Construct_in_place@UNode@@ABU1@@std@@YAXAAUNode@@ABU1@@Z 00419490 f i MST.obj
 0001:000184f0       ??$_Construct_n@ABI@?$vector@IV?$allocator@I@std@@@std@@AAEXIABI@Z 004194f0 f i MST.obj
 0001:00018600       ??$_Construct_n@ABQAUNode@@ABQAU1@@?$vector@UNode@@V?$allocator@UNode@@@std@@@std@@AAEXIABQAUNode@@0@Z 00419600 f i MST.obj
 0001:00018730       ??$_Copy_memmove@PAIPAI@std@@YAPAIPAI00@Z 00419730 f i MST.obj
 0001:000187c0       ??$_Copy_memmove@PAUEdge@@PAU1@@std@@YAPAUEdge@@PAU1@00@Z 004197c0 f i MST.obj
 0001:00018850       ??$_Copy_memmove@PAUNode@@PAU1@@std@@YAPAUNode@@PAU1@00@Z 00419850 f i MST.obj
 0001:000188e0       ??$_Debug_lt_pred@AAU?$less@UEdge@@@std@@AAUEdge@@AAU3@$0A@@std@@YA_NAAU?$less@UEdge@@@0@AAUEdge@@1@Z 004198e0 f i MST.obj
 0001:00018990       ??$_Destroy_range@V?$allocator@I@std@@@std@@YAXPAIQAIAAV?$allocator@I@0@@Z 00419990 f i MST.obj
 0001:000189a0       ??$_Destroy_range@V?$allocator@UEdge@@@std@@@std@@YAXPAUEdge@@QAU1@AAV?$allocator@UEdge@@@0@@Z 004199a0 f i MST.obj
 0001:000189b0       ??$_Destroy_range@V?$allocator@UNode@@@std@@@std@@YAXPAUNode@@QAU1@AAV?$allocator@UNode@@@0@@Z 004199b0 f i MST.obj
 0001:000189c0       ??$_Emplace_back@AAUNode@@@?$_Uninitialized_backout_al@V?$allocator@UNode@@@std@@@std@@QAEXAAUNode@@@Z 004199c0 f i MST.obj
 0001:00018a20       ??$_Emplace_back@ABI@?$_Uninitialized_backout_al@V?$allocator@I@std@@@std@@QAEXABI@Z 00419a20 f i MST.obj
 0001:00018a80       ??$_Emplace_back@UEdge@@@?$_Uninitialized_backout_al@V?$allocator@UEdge@@@std@@@std@@QAEX$$QAUEdge@@@Z 00419a80 f i MST.obj
 0001:00018ae0       ??$_Emplace_back@UNode@@@?$_Uninitialized_backout_al@V?$allocator@UNode@@@std@@@std@@QAEX$$QAUNode@@@Z 00419ae0 f i MST.obj
 0001:00018b40       ??$_Emplace_back_with_unused_capacity@ABUEdge@@@?$vector@UEdge@@V?$allocator@UEdge@@@std@@@std@@AAEAAUEdge@@ABU2@@Z 00419b40 f i MST.obj
 0001:00018bc0       ??$_Emplace_back_with_unused_capacity@ABUNode@@@?$vector@UNode@@V?$allocator@UNode@@@std@@@std@@AAEAAUNode@@ABU2@@Z 00419bc0 f i MST.obj
 0001:00018c40       ??$_Emplace_one_at_back@ABUEdge@@@?$vector@UEdge@@V?$allocator@UEdge@@@std@@@std@@AAEAAUEdge@@ABU2@@Z 00419c40 f i MST.obj
 0001:00018cc0       ??$_Emplace_one_at_back@ABUNode@@@?$vector@UNode@@V?$allocator@UNode@@@std@@@std@@AAEAAUNode@@ABU2@@Z 00419cc0 f i MST.obj
 0001:00018d40       ??$_Emplace_reallocate@ABUEdge@@@?$vector@UEdge@@V?$allocator@UEdge@@@std@@@std@@AAEPAUEdge@@QAU2@ABU2@@Z 00419d40 f i MST.obj
 0001:00018fa0       ??$_Emplace_reallocate@ABUNode@@@?$vector@UNode@@V?$allocator@UNode@@@std@@@std@@AAEPAUNode@@QAU2@ABU2@@Z 00419fa0 f i MST.obj
 0001:00019200       ??$_Fill_zero_memset@PAI@std@@YAXPAII@Z 0041a200 f i MST.obj
 0001:00019230       ??$_Get_size_of_n@$0BA@@std@@YAII@Z 0041a230 f i MST.obj
 0001:00019270       ??$_Get_unwrapped@AAV?$_Vector_const_iterator@V?$_Vector_val@U?$_Simple_types@PAVDisplayableObject@@@std@@@std@@@std@@@std@@YA?A_TAAV?$_Vector_const_iterator@V?$_Vector_val@U?$_Simple_types@PAVDisplayableObject@@@std@@@std@@@0@@Z 0041a270 f i MST.obj
 0001:00019280       ??$_Get_unwrapped@AAV?$_Vector_iterator@V?$_Vector_val@U?$_Simple_types@UEdge@@@std@@@std@@@std@@@std@@YA?A_TAAV?$_Vector_iterator@V?$_Vector_val@U?$_Simple_types@UEdge@@@std@@@std@@@0@@Z 0041a280 f i MST.obj
 0001:00019290       ??$_Get_unwrapped@ABQAUEdge@@@std@@YA?A_TABQAUEdge@@@Z 0041a290 f i MST.obj
 0001:000192a0       ??$_Get_unwrapped@ABQAUNode@@@std@@YA?A_TABQAUNode@@@Z 0041a2a0 f i MST.obj
 0001:000192b0       ??$_Is_all_bits_zero@I@std@@YA_NABI@Z 0041a2b0 f i MST.obj
 0001:00019300       ??$_Move_unchecked@PAIPAI@std@@YAPAIPAI00@Z 0041a300 f i MST.obj
 0001:00019370       ??$_Pass_fn@U?$less@UEdge@@@std@@$0A@@std@@YA?AU?$less@UEdge@@@0@U10@@Z 0041a370 f i MST.obj
 0001:00019380       ??$_Pop_heap_hole_by_index@PAUEdge@@U1@U?$less@UEdge@@@std@@@std@@YAXPAUEdge@@HH$$QAU1@U?$less@UEdge@@@0@@Z 0041a380 f i MST.obj
 0001:000194f0       ??$_Pop_heap_hole_unchecked@PAUEdge@@U1@U?$less@UEdge@@@std@@@std@@YAXPAUEdge@@00$$QAU1@U?$less@UEdge@@@0@@Z 0041a4f0 f i MST.obj
 0001:00019560       ??$_Pop_heap_unchecked@PAUEdge@@U?$less@UEdge@@@std@@@std@@YAXPAUEdge@@0U?$less@UEdge@@@0@@Z 0041a560 f i MST.obj
 0001:00019600       ??$_Push_heap_by_index@PAUEdge@@U1@U?$less@UEdge@@@std@@@std@@YAXPAUEdge@@HH$$QAU1@U?$less@UEdge@@@0@@Z 0041a600 f i MST.obj
 0001:000196e0       ??$_To_address@PAI@std@@YA?A_PABQAI@Z 0041a6e0 f i MST.obj
 0001:000196f0       ??$_To_address@PAUEdge@@@std@@YA?A_PABQAUEdge@@@Z 0041a6f0 f i MST.obj
 0001:00019700       ??$_To_address@PAUNode@@@std@@YA?A_PABQAUNode@@@Z 0041a700 f i MST.obj
 0001:00019710       ??$_Unfancy@I@std@@YAPAIPAI@Z 0041a710 f i MST.obj
 0001:00019720       ??$_Unfancy@UEdge@@@std@@YAPAUEdge@@PAU1@@Z 0041a720 f i MST.obj
 0001:00019730       ??$_Unfancy@UNode@@@std@@YAPAUNode@@PAU1@@Z 0041a730 f i MST.obj
 0001:00019740       ??$_Unfancy_maybe_null@I@std@@YAPAIPAI@Z 0041a740 f i MST.obj
 0001:00019750       ??$_Uninitialized_copy@PAUNode@@V?$allocator@UNode@@@std@@@std@@YAPAUNode@@QAU1@0PAU1@AAV?$allocator@UNode@@@0@@Z 0041a750 f i MST.obj
 0001:00019870       ??$_Uninitialized_fill_n@V?$allocator@I@std@@@std@@YAPAIPAIIABIAAV?$allocator@I@0@@Z 0041a870 f i MST.obj
 0001:00019960       ??$_Uninitialized_move@PAUEdge@@V?$allocator@UEdge@@@std@@@std@@YAPAUEdge@@QAU1@0PAU1@AAV?$allocator@UEdge@@@0@@Z 0041a960 f i MST.obj
 0001:00019a80       ??$_Uninitialized_move@PAUNode@@V?$allocator@UNode@@@std@@@std@@YAPAUNode@@QAU1@0PAU1@AAV?$allocator@UNode@@@0@@Z 0041aa80 f i MST.obj
 0001:00019ba0       ??$_Voidify_iter@PAI@std@@YAPAXPAI@Z 0041aba0 f i MST.obj
 0001:00019bb0       ??$_Voidify_iter@PAUEdge@@@std@@YAPAXPAUEdge@@@Z 0041abb0 f i MST.obj
 0001:00019bc0       ??$_Voidify_iter@PAUNode@@@std@@YAPAXPAUNode@@@Z 0041abc0 f i MST.obj
 0001:00019bd0       ??$addressof@$$CBV?$_Vector_val@U?$_Simple_types@PAVDisplayableObject@@@std@@@std@@@std@@YAPBV?$_Vector_val@U?$_Simple_types@PAVDisplayableObject@@@std@@@0@ABV10@@Z 0041abd0 f i MST.obj
 0001:00019be0       ??$addressof@UEdge@@@std@@YAPAUEdge@@AAU1@@Z 0041abe0 f i MST.obj
 0001:00019bf0       ??$addressof@UNode@@@std@@YAPAUNode@@AAU1@@Z 0041abf0 f i MST.obj
 0001:00019c00       ??$addressof@V?$_Vector_val@U?$_Simple_types@I@std@@@std@@@std@@YAPAV?$_Vector_val@U?$_Simple_types@I@std@@@0@AAV10@@Z 0041ac00 f i MST.obj
 0001:00019c10       ??$addressof@V?$_Vector_val@U?$_Simple_types@UEdge@@@std@@@std@@@std@@YAPAV?$_Vector_val@U?$_Simple_types@UEdge@@@std@@@0@AAV10@@Z 0041ac10 f i MST.obj
 0001:00019c20       ??$construct@IABI@?$_Default_allocator_traits@V?$allocator@I@std@@@std@@SAXAAV?$allocator@I@1@QAIABI@Z 0041ac20 f i MST.obj
 0001:00019c70       ??$construct@UEdge@@ABU1@@?$_Default_allocator_traits@V?$allocator@UEdge@@@std@@@std@@SAXAAV?$allocator@UEdge@@@1@QAUEdge@@ABU3@@Z 0041ac70 f i MST.obj
 0001:00019cd0       ??$construct@UEdge@@U1@@?$_Default_allocator_traits@V?$allocator@UEdge@@@std@@@std@@SAXAAV?$allocator@UEdge@@@1@QAUEdge@@$$QAU3@@Z 0041acd0 f i MST.obj
 0001:00019d30       ??$construct@UNode@@AAU1@@?$_Default_allocator_traits@V?$allocator@UNode@@@std@@@std@@SAXAAV?$allocator@UNode@@@1@QAUNode@@AAU3@@Z 0041ad30 f i MST.obj
 0001:00019d80       ??$construct@UNode@@ABU1@@?$_Default_allocator_traits@V?$allocator@UNode@@@std@@@std@@SAXAAV?$allocator@UNode@@@1@QAUNode@@ABU3@@Z 0041ad80 f i MST.obj
 0001:00019dd0       ??$construct@UNode@@U1@@?$_Default_allocator_traits@V?$allocator@UNode@@@std@@@std@@SAXAAV?$allocator@UNode@@@1@QAUNode@@$$QAU3@@Z 0041add0 f i MST.obj
 0001:00019e20       ??$destroy@UEdge@@@?$_Default_allocator_traits@V?$allocator@UEdge@@@std@@@std@@SAXAAV?$allocator@UEdge@@@1@QAUEdge@@@Z 0041ae20 f i MST.obj
 0001:00019e30       ??$emplace_back@ABUEdge@@@?$vector@UEdge@@V?$allocator@UEdge@@@std@@@std@@QAE?A_TABUEdge@@@Z 0041ae30 f i MST.obj
 0001:00019e60       ??$emplace_back@ABUNode@@@?$vector@UNode@@V?$allocator@UNode@@@std@@@std@@QAE?A_TABUNode@@@Z 0041ae60 f i MST.obj
 0001:00019e90       ??$exchange@PAUEdge@@$$T@std@@YAPAUEdge@@AAPAU1@$$QA$$T@Z 0041ae90 f i MST.obj
 0001:00019ec0       ??$exchange@PAU_Container_proxy@std@@$$T@std@@YAPAU_Container_proxy@0@AAPAU10@$$QA$$T@Z 0041aec0 f i MST.obj
 0001:00019ef0       ??$for_each@V?$_Vector_const_iterator@V?$_Vector_val@U?$_Simple_types@PAVDisplayableObject@@@std@@@std@@@std@@V<lambda_8680d8acf56a2b8556b7ef4ea6c3cac6>@@@std@@YA?AV<lambda_8680d8acf56a2b8556b7ef4ea6c3cac6>@@V?$_Vector_const_iterator@V?$_Vector_val@U?$_Simple_types@PAVDisplayableObject@@@std@@@std@@@0@0V1@@Z 0041aef0 f i MST.obj
 0001:00019fd0       ??$forward@AAUNode@@@std@@YAAAUNode@@AAU1@@Z 0041afd0 f i MST.obj
 0001:00019fe0       ??$forward@ABI@std@@YAABIABI@Z 0041afe0 f i MST.obj
 0001:00019ff0       ??$forward@ABQAUNode@@@std@@YAABQAUNode@@ABQAU1@@Z 0041aff0 f i MST.obj
 0001:0001a000       ??$forward@ABUEdge@@@std@@YAABUEdge@@ABU1@@Z 0041b000 f i MST.obj
 0001:0001a010       ??$forward@ABUNode@@@std@@YAABUNode@@ABU1@@Z 0041b010 f i MST.obj
 0001:0001a020       ??$forward@ABV?$allocator@I@std@@@std@@YAABV?$allocator@I@0@ABV10@@Z 0041b020 f i MST.obj
 0001:0001a030       ??$forward@PAUEdge@@@std@@YA$$QAPAUEdge@@AAPAU1@@Z 0041b030 f i MST.obj
 0001:0001a040       ??$forward@UEdge@@@std@@YA$$QAUEdge@@AAU1@@Z 0041b040 f i MST.obj
 0001:0001a050       ??$forward@UNode@@@std@@YA$$QAUNode@@AAU1@@Z 0041b050 f i MST.obj
 0001:0001a060       ??$forward@V?$allocator@UEdge@@@std@@@std@@YA$$QAV?$allocator@UEdge@@@0@AAV10@@Z 0041b060 f i MST.obj
 0001:0001a070       ??$forward@V?$allocator@UNode@@@std@@@std@@YA$$QAV?$allocator@UNode@@@0@AAV10@@Z 0041b070 f i MST.obj
 0001:0001a080       ??$move@AAI@std@@YA$$QAIAAI@Z 0041b080 f i MST.obj
 0001:0001a090       ??$move@AAUEdge@@@std@@YA$$QAUEdge@@AAU1@@Z 0041b090 f i MST.obj
 0001:0001a0a0       ??$move@AAUNode@@@std@@YA$$QAUNode@@AAU1@@Z 0041b0a0 f i MST.obj
 0001:0001a0b0       ??$move@AAV?$allocator@UEdge@@@std@@@std@@YA$$QAV?$allocator@UEdge@@@0@AAV10@@Z 0041b0b0 f i MST.obj
 0001:0001a0c0       ??$pop_heap@V?$_Vector_iterator@V?$_Vector_val@U?$_Simple_types@UEdge@@@std@@@std@@@std@@U?$less@UEdge@@@2@@std@@YAXV?$_Vector_iterator@V?$_Vector_val@U?$_Simple_types@UEdge@@@std@@@std@@@0@0U?$less@UEdge@@@0@@Z 0041b0c0 f i MST.obj
 0001:0001a190       ??$pow@HH$0A@@@YANHH@Z     0041b190 f i MST.obj
 0001:0001a1c0       ??$push_heap@V?$_Vector_iterator@V?$_Vector_val@U?$_Simple_types@UEdge@@@std@@@std@@@std@@U?$less@UEdge@@@2@@std@@YAXV?$_Vector_iterator@V?$_Vector_val@U?$_Simple_types@UEdge@@@std@@@std@@@0@0U?$less@UEdge@@@0@@Z 0041b1c0 f i MST.obj
 0001:0001a310       ??0<lambda_8680d8acf56a2b8556b7ef4ea6c3cac6>@@QAE@AAH@Z 0041b310 f i MST.obj
 0001:0001a330       ??0?$_Uninitialized_backout_al@V?$allocator@I@std@@@std@@QAE@PAIAAV?$allocator@I@1@@Z 0041b330 f i MST.obj
 0001:0001a370       ??0?$_Uninitialized_backout_al@V?$allocator@UEdge@@@std@@@std@@QAE@PAUEdge@@AAV?$allocator@UEdge@@@1@@Z 0041b370 f i MST.obj
 0001:0001a3b0       ??0?$_Uninitialized_backout_al@V?$allocator@UNode@@@std@@@std@@QAE@PAUNode@@AAV?$allocator@UNode@@@1@@Z 0041b3b0 f i MST.obj
 0001:0001a3f0       ??0?$_Vb_const_iterator@U?$_Wrap_alloc@V?$allocator@I@std@@@std@@@std@@QAE@PBIPBU_Container_base12@1@@Z 0041b3f0 f i MST.obj
 0001:0001a420       ??0?$_Vb_iter_base@U?$_Wrap_alloc@V?$allocator@I@std@@@std@@@std@@QAE@PBIIPBU_Container_base12@1@@Z 0041b420 f i MST.obj
 0001:0001a470       ??0?$_Vb_iterator@U?$_Wrap_alloc@V?$allocator@I@std@@@std@@@std@@QAE@PBIPBU_Container_base12@1@@Z 0041b470 f i MST.obj
 0001:0001a4a0       ??0?$_Vb_reference@U?$_Wrap_alloc@V?$allocator@I@std@@@std@@@std@@QAE@ABV?$_Vb_iter_base@U?$_Wrap_alloc@V?$allocator@I@std@@@std@@@1@@Z 0041b4a0 f i MST.obj
 0001:0001a4e0       ??0?$_Vb_val@V?$allocator@_N@std@@@std@@QAE@IAB_NABV?$allocator@_N@1@@Z 0041b4e0 f i MST.obj
 0001:0001a5d0       ??0?$_Vector_const_iterator@V?$_Vector_val@U?$_Simple_types@I@std@@@std@@@std@@QAE@$$QAV01@@Z 0041b5d0 f i MST.obj
 0001:0001a610       ??0?$_Vector_const_iterator@V?$_Vector_val@U?$_Simple_types@I@std@@@std@@@std@@QAE@ABV01@@Z 0041b610 f i MST.obj
 0001:0001a650       ??0?$_Vector_const_iterator@V?$_Vector_val@U?$_Simple_types@I@std@@@std@@@std@@QAE@PAIPBU_Container_base12@1@@Z 0041b650 f i MST.obj
 0001:0001a690       ??0?$_Vector_const_iterator@V?$_Vector_val@U?$_Simple_types@PAVDisplayableObject@@@std@@@std@@@std@@QAE@PAPAVDisplayableObject@@PBU_Container_base12@1@@Z 0041b690 f i MST.obj
 0001:0001a6d0       ??0?$_Vector_const_iterator@V?$_Vector_val@U?$_Simple_types@UEdge@@@std@@@std@@@std@@QAE@PAUEdge@@PBU_Container_base12@1@@Z 0041b6d0 f i MST.obj
 0001:0001a710       ??0?$_Vector_iterator@V?$_Vector_val@U?$_Simple_types@I@std@@@std@@@std@@QAE@$$QAV01@@Z 0041b710 f i MST.obj
 0001:0001a740       ??0?$_Vector_iterator@V?$_Vector_val@U?$_Simple_types@I@std@@@std@@@std@@QAE@ABV01@@Z 0041b740 f i MST.obj
 0001:0001a770       ??0?$_Vector_iterator@V?$_Vector_val@U?$_Simple_types@I@std@@@std@@@std@@QAE@PAIPBU_Container_base12@1@@Z 0041b770 f i MST.obj
 0001:0001a7a0       ??0?$_Vector_iterator@V?$_Vector_val@U?$_Simple_types@UEdge@@@std@@@std@@@std@@QAE@PAUEdge@@PBU_Container_base12@1@@Z 0041b7a0 f i MST.obj
 0001:0001a7d0       ??0?$_Vector_val@U?$_Simple_types@I@std@@@std@@QAE@XZ 0041b7d0 f i MST.obj
 0001:0001a820       ??0?$_Vector_val@U?$_Simple_types@UEdge@@@std@@@std@@QAE@PAUEdge@@00@Z 0041b820 f i MST.obj
 0001:0001a860       ??0?$_Vector_val@U?$_Simple_types@UEdge@@@std@@@std@@QAE@XZ 0041b860 f i MST.obj
 0001:0001a8b0       ??0?$_Vector_val@U?$_Simple_types@UNode@@@std@@@std@@QAE@XZ 0041b8b0 f i MST.obj
 0001:0001a900       ??0?$allocator@UEdge@@@std@@QAE@XZ 0041b900 f i MST.obj
 0001:0001a920       ??0?$allocator@UNode@@@std@@QAE@XZ 0041b920 f i MST.obj
 0001:0001a940       ??0?$allocator@_N@std@@QAE@XZ 0041b940 f i MST.obj
 0001:0001a960       ??0?$priority_queue@UEdge@@V?$vector@UEdge@@V?$allocator@UEdge@@@std@@@std@@U?$less@UEdge@@@3@@std@@QAE@XZ 0041b960 f i MST.obj
 0001:0001a990       ??0?$vector@IV?$allocator@I@std@@@std@@QAE@IABIABV?$allocator@I@1@@Z 0041b990 f i MST.obj
 0001:0001a9d0       ??0?$vector@UEdge@@V?$allocator@UEdge@@@std@@@std@@QAE@$$QAV01@@Z 0041b9d0 f i MST.obj
 0001:0001ab00       ??0?$vector@UEdge@@V?$allocator@UEdge@@@std@@@std@@QAE@XZ 0041bb00 f i MST.obj
 0001:0001ab80       ??0?$vector@UNode@@V?$allocator@UNode@@@std@@@std@@QAE@ABV01@@Z 0041bb80 f i MST.obj
 0001:0001ac00       ??0?$vector@UNode@@V?$allocator@UNode@@@std@@@std@@QAE@XZ 0041bc00 f i MST.obj
 0001:0001ac80       ??0?$vector@_NV?$allocator@_N@std@@@std@@QAE@IAB_NABV?$allocator@_N@1@@Z 0041bc80 f i MST.obj
 0001:0001ad10       ??1?$_Tidy_guard@V?$vector@IV?$allocator@I@std@@@std@@@std@@QAE@XZ 0041bd10 f i MST.obj
 0001:0001ad40       ??1?$_Tidy_guard@V?$vector@UNode@@V?$allocator@UNode@@@std@@@std@@@std@@QAE@XZ 0041bd40 f i MST.obj
 0001:0001ad70       ??1?$_Uninitialized_backout_al@V?$allocator@I@std@@@std@@QAE@XZ 0041bd70 f i MST.obj
 0001:0001ada0       ??1?$_Uninitialized_backout_al@V?$allocator@UEdge@@@std@@@std@@QAE@XZ 0041bda0 f i MST.obj
 0001:0001add0       ??1?$_Uninitialized_backout_al@V?$allocator@UNode@@@std@@@std@@QAE@XZ 0041bdd0 f i MST.obj
 0001:0001ae00       ??1?$_Vb_const_iterator@U?$_Wrap_alloc@V?$allocator@I@std@@@std@@@std@@QAE@XZ 0041be00 f i MST.obj
 0001:0001ae20       ??1?$_Vb_iter_base@U?$_Wrap_alloc@V?$allocator@I@std@@@std@@@std@@QAE@XZ 0041be20 f i MST.obj
 0001:0001ae40       ??1?$_Vb_iterator@U?$_Wrap_alloc@V?$allocator@I@std@@@std@@@std@@QAE@XZ 0041be40 f i MST.obj
 0001:0001ae60       ??1?$_Vb_reference@U?$_Wrap_alloc@V?$allocator@I@std@@@std@@@std@@QAE@XZ 0041be60 f i MST.obj
 0001:0001ae80       ??1?$_Vb_val@V?$allocator@_N@std@@@std@@QAE@XZ 0041be80 f i MST.obj
 0001:0001af00       ??1?$_Vector_const_iterator@V?$_Vector_val@U?$_Simple_types@I@std@@@std@@@std@@QAE@XZ 0041bf00 f i MST.obj
 0001:0001af20       ??1?$_Vector_const_iterator@V?$_Vector_val@U?$_Simple_types@PAVDisplayableObject@@@std@@@std@@@std@@QAE@XZ 0041bf20 f i MST.obj
 0001:0001af40       ??1?$_Vector_const_iterator@V?$_Vector_val@U?$_Simple_types@UEdge@@@std@@@std@@@std@@QAE@XZ 0041bf40 f i MST.obj
 0001:0001af60       ??1?$_Vector_iterator@V?$_Vector_val@U?$_Simple_types@I@std@@@std@@@std@@QAE@XZ 0041bf60 f i MST.obj
 0001:0001af80       ??1?$_Vector_iterator@V?$_Vector_val@U?$_Simple_types@UEdge@@@std@@@std@@@std@@QAE@XZ 0041bf80 f i MST.obj
 0001:0001afa0       ??1?$priority_queue@UEdge@@V?$vector@UEdge@@V?$allocator@UEdge@@@std@@@std@@U?$less@UEdge@@@3@@std@@QAE@XZ 0041bfa0 f i MST.obj
 0001:0001afc0       ??1?$vector@IV?$allocator@I@std@@@std@@QAE@XZ 0041bfc0 f i MST.obj
 0001:0001b030       ??1?$vector@UEdge@@V?$allocator@UEdge@@@std@@@std@@QAE@XZ 0041c030 f i MST.obj
 0001:0001b0a0       ??1?$vector@UNode@@V?$allocator@UNode@@@std@@@std@@QAE@XZ 0041c0a0 f i MST.obj
 0001:0001b110       ??1?$vector@_NV?$allocator@_N@std@@@std@@QAE@XZ 0041c110 f i MST.obj
 0001:0001b130       ??4?$_Vb_reference@U?$_Wrap_alloc@V?$allocator@I@std@@@std@@@std@@QAEAAV01@_N@Z 0041c130 f i MST.obj
 0001:0001b1a0       ??A?$vector@IV?$allocator@I@std@@@std@@QAEAAII@Z 0041c1a0 f i MST.obj
 0001:0001b250       ??A?$vector@UNode@@V?$allocator@UNode@@@std@@@std@@QAEAAUNode@@I@Z 0041c250 f i MST.obj
 0001:0001b300       ??A?$vector@_NV?$allocator@_N@std@@@std@@QAE?AV?$_Vb_reference@U?$_Wrap_alloc@V?$allocator@I@std@@@std@@@1@I@Z 0041c300 f i MST.obj
 0001:0001b3c0       ??B?$_Vb_reference@U?$_Wrap_alloc@V?$allocator@I@std@@@std@@@std@@QBE_NXZ 0041c3c0 f i MST.obj
 0001:0001b410       ??D?$_Vb_iterator@U?$_Wrap_alloc@V?$allocator@I@std@@@std@@@std@@QBE?AV?$_Vb_reference@U?$_Wrap_alloc@V?$allocator@I@std@@@std@@@1@XZ 0041c410 f i MST.obj
 0001:0001b530       ??H?$_Vector_iterator@V?$_Vector_val@U?$_Simple_types@I@std@@@std@@@std@@QBE?AV01@H@Z 0041c530 f i MST.obj
 0001:0001b580       ??MEdge@@QBE_NU0@@Z        0041c580 f i MST.obj
 0001:0001b5c0       ??R<lambda_8680d8acf56a2b8556b7ef4ea6c3cac6>@@QBE@PAVDisplayableObject@@@Z 0041c5c0 f i MST.obj
 0001:0001b5f0       ??R?$less@UEdge@@@std@@QBE_NABUEdge@@0@Z 0041c5f0 f i MST.obj
 0001:0001b630       ??Y?$_Vector_const_iterator@V?$_Vector_val@U?$_Simple_types@I@std@@@std@@@std@@QAEAAV01@H@Z 0041c630 f i MST.obj
 0001:0001b670       ??Y?$_Vector_iterator@V?$_Vector_val@U?$_Simple_types@I@std@@@std@@@std@@QAEAAV01@H@Z 0041c670 f i MST.obj
 0001:0001b6a0       ?_Advance@?$_Vb_iter_base@U?$_Wrap_alloc@V?$allocator@I@std@@@std@@@std@@QAEXI@Z 0041c6a0 f i MST.obj
 0001:0001b700       ?_Buy_nonzero@?$vector@IV?$allocator@I@std@@@std@@AAEXI@Z 0041c700 f i MST.obj
 0001:0001b740       ?_Buy_nonzero@?$vector@UNode@@V?$allocator@UNode@@@std@@@std@@AAEXI@Z 0041c740 f i MST.obj
 0001:0001b780       ?_Buy_raw@?$vector@IV?$allocator@I@std@@@std@@AAEXI@Z 0041c780 f i MST.obj
 0001:0001b800       ?_Buy_raw@?$vector@UNode@@V?$allocator@UNode@@@std@@@std@@AAEXI@Z 0041c800 f i MST.obj
 0001:0001b880       ?_Calculate_growth@?$vector@UEdge@@V?$allocator@UEdge@@@std@@@std@@ABEII@Z 0041c880 f i MST.obj
 0001:0001b8f0       ?_Calculate_growth@?$vector@UNode@@V?$allocator@UNode@@@std@@@std@@ABEII@Z 0041c8f0 f i MST.obj
 0001:0001b960       ?_Change_array@?$vector@UEdge@@V?$allocator@UEdge@@@std@@@std@@AAEXQAUEdge@@II@Z 0041c960 f i MST.obj
 0001:0001ba30       ?_Change_array@?$vector@UNode@@V?$allocator@UNode@@@std@@@std@@AAEXQAUNode@@II@Z 0041ca30 f i MST.obj
 0001:0001bb00       ?_Get_first@?$_Compressed_pair@V?$allocator@I@std@@V?$_Vector_val@U?$_Simple_types@I@std@@@2@$00@std@@QAEAAV?$allocator@I@2@XZ 0041cb00 f i MST.obj
 0001:0001bb20       ?_Get_first@?$_Compressed_pair@V?$allocator@I@std@@V?$_Vector_val@U?$_Simple_types@I@std@@@2@$00@std@@QBEABV?$allocator@I@2@XZ 0041cb20 f i MST.obj
 0001:0001bb40       ?_Get_first@?$_Compressed_pair@V?$allocator@UEdge@@@std@@V?$_Vector_val@U?$_Simple_types@UEdge@@@std@@@2@$00@std@@QAEAAV?$allocator@UEdge@@@2@XZ 0041cb40 f i MST.obj
 0001:0001bb60       ?_Get_first@?$_Compressed_pair@V?$allocator@UEdge@@@std@@V?$_Vector_val@U?$_Simple_types@UEdge@@@std@@@2@$00@std@@QBEABV?$allocator@UEdge@@@2@XZ 0041cb60 f i MST.obj
 0001:0001bb80       ?_Get_first@?$_Compressed_pair@V?$allocator@UNode@@@std@@V?$_Vector_val@U?$_Simple_types@UNode@@@std@@@2@$00@std@@QAEAAV?$allocator@UNode@@@2@XZ 0041cb80 f i MST.obj
 0001:0001bba0       ?_Get_first@?$_Compressed_pair@V?$allocator@UNode@@@std@@V?$_Vector_val@U?$_Simple_types@UNode@@@std@@@2@$00@std@@QBEABV?$allocator@UNode@@@2@XZ 0041cba0 f i MST.obj
 0001:0001bbc0       ?_Getal@?$_Vb_val@V?$allocator@_N@std@@@std@@QAEAAV?$allocator@I@2@XZ 0041cbc0 f i MST.obj
 0001:0001bbe0       ?_Getal@?$vector@IV?$allocator@I@std@@@std@@AAEAAV?$allocator@I@2@XZ 0041cbe0 f i MST.obj
 0001:0001bc00       ?_Getal@?$vector@IV?$allocator@I@std@@@std@@ABEABV?$allocator@I@2@XZ 0041cc00 f i MST.obj
 0001:0001bc20       ?_Getal@?$vector@UEdge@@V?$allocator@UEdge@@@std@@@std@@AAEAAV?$allocator@UEdge@@@2@XZ 0041cc20 f i MST.obj
 0001:0001bc40       ?_Getal@?$vector@UEdge@@V?$allocator@UEdge@@@std@@@std@@ABEABV?$allocator@UEdge@@@2@XZ 0041cc40 f i MST.obj
 0001:0001bc60       ?_Getal@?$vector@UNode@@V?$allocator@UNode@@@std@@@std@@AAEAAV?$allocator@UNode@@@2@XZ 0041cc60 f i MST.obj
 0001:0001bc80       ?_Getal@?$vector@UNode@@V?$allocator@UNode@@@std@@@std@@ABEABV?$allocator@UNode@@@2@XZ 0041cc80 f i MST.obj
 0001:0001bca0       ?_Getptr@?$_Vb_reference@U?$_Wrap_alloc@V?$allocator@I@std@@@std@@@std@@QBEPBIXZ 0041cca0 f i MST.obj
 0001:0001bdb0       ?_Mask@?$_Vb_reference@U?$_Wrap_alloc@V?$allocator@I@std@@@std@@@std@@IBEIXZ 0041cdb0 f i MST.obj
 0001:0001bdd0       ?_Nw@?$_Vb_val@V?$allocator@_N@std@@@std@@SAII@Z 0041cdd0 f i MST.obj
 0001:0001bdf0       ?_Orphan_range@?$vector@IV?$allocator@I@std@@@std@@ABEXPAI0@Z 0041cdf0 f i MST.obj
 0001:0001be20       ?_Orphan_range@?$vector@UEdge@@V?$allocator@UEdge@@@std@@@std@@ABEXPAUEdge@@0@Z 0041ce20 f i MST.obj
 0001:0001be50       ?_Orphan_range@?$vector@UNode@@V?$allocator@UNode@@@std@@@std@@ABEXPAUNode@@0@Z 0041ce50 f i MST.obj
 0001:0001be80       ?_Orphan_range_locked@?$vector@IV?$allocator@I@std@@@std@@ABEXPAI0@Z 0041ce80 f i MST.obj
 0001:0001bf10       ?_Orphan_range_locked@?$vector@UEdge@@V?$allocator@UEdge@@@std@@@std@@ABEXPAUEdge@@0@Z 0041cf10 f i MST.obj
 0001:0001bfa0       ?_Orphan_range_locked@?$vector@UNode@@V?$allocator@UNode@@@std@@@std@@ABEXPAUNode@@0@Z 0041cfa0 f i MST.obj
 0001:0001c030       ?_Orphan_range_unlocked@?$vector@IV?$allocator@I@std@@@std@@ABEXPAI0@Z 0041d030 f i MST.obj
 0001:0001c0c0       ?_Orphan_range_unlocked@?$vector@UEdge@@V?$allocator@UEdge@@@std@@@std@@ABEXPAUEdge@@0@Z 0041d0c0 f i MST.obj
 0001:0001c150       ?_Orphan_range_unlocked@?$vector@UNode@@V?$allocator@UNode@@@std@@@std@@ABEXPAUNode@@0@Z 0041d150 f i MST.obj
 0001:0001c1e0       ?_Release@?$_Uninitialized_backout_al@V?$allocator@I@std@@@std@@QAEPAIXZ 0041d1e0 f i MST.obj
 0001:0001c210       ?_Release@?$_Uninitialized_backout_al@V?$allocator@UEdge@@@std@@@std@@QAEPAUEdge@@XZ 0041d210 f i MST.obj
 0001:0001c240       ?_Release@?$_Uninitialized_backout_al@V?$allocator@UNode@@@std@@@std@@QAEPAUNode@@XZ 0041d240 f i MST.obj
 0001:0001c270       ?_Tidy@?$vector@IV?$allocator@I@std@@@std@@AAEXXZ 0041d270 f i MST.obj
 0001:0001c370       ?_Tidy@?$vector@UEdge@@V?$allocator@UEdge@@@std@@@std@@AAEXXZ 0041d370 f i MST.obj
 0001:0001c470       ?_Tidy@?$vector@UNode@@V?$allocator@UNode@@@std@@@std@@AAEXXZ 0041d470 f i MST.obj
 0001:0001c570       ?_Total_off@?$_Vb_iter_base@U?$_Wrap_alloc@V?$allocator@I@std@@@std@@@std@@QBEHPBV?$vector@_NV?$allocator@_N@std@@@2@@Z 0041d570 f i MST.obj
 0001:0001c5b0       ?_Trim@?$vector@_NV?$allocator@_N@std@@@std@@QAEXI@Z 0041d5b0 f i MST.obj
 0001:0001c720       ?_Unchecked_begin@?$vector@UEdge@@V?$allocator@UEdge@@@std@@@std@@QAEPAUEdge@@XZ 0041d720 f i MST.obj
 0001:0001c740       ?_Unchecked_end@?$vector@UEdge@@V?$allocator@UEdge@@@std@@@std@@QAEPAUEdge@@XZ 0041d740 f i MST.obj
 0001:0001c760       ?_Unwrapped@?$_Vector_const_iterator@V?$_Vector_val@U?$_Simple_types@PAVDisplayableObject@@@std@@@std@@@std@@QBEPBQAVDisplayableObject@@XZ 0041d760 f i MST.obj
 0001:0001c780       ?_Unwrapped@?$_Vector_iterator@V?$_Vector_val@U?$_Simple_types@UEdge@@@std@@@std@@@std@@QBEPAUEdge@@XZ 0041d780 f i MST.obj
 0001:0001c7a0       ?_Verify_offset@?$_Vector_const_iterator@V?$_Vector_val@U?$_Simple_types@I@std@@@std@@@std@@QBEXH@Z 0041d7a0 f i MST.obj
 0001:0001c930       ?_Verify_range@std@@YAXABV?$_Vector_const_iterator@V?$_Vector_val@U?$_Simple_types@PAVDisplayableObject@@@std@@@std@@@1@0@Z 0041d930 f i MST.obj
 0001:0001ca30       ?_Verify_range@std@@YAXABV?$_Vector_const_iterator@V?$_Vector_val@U?$_Simple_types@UEdge@@@std@@@std@@@1@0@Z 0041da30 f i MST.obj
 0001:0001cb30       ?_Xlen@?$vector@_NV?$allocator@_N@std@@@std@@QBEXXZ 0041db30 f i MST.obj
 0001:0001cb50       ?_Xlength@?$vector@IV?$allocator@I@std@@@std@@CAXXZ 0041db50 f i MST.obj
 0001:0001cb70       ?_Xlength@?$vector@UEdge@@V?$allocator@UEdge@@@std@@@std@@CAXXZ 0041db70 f i MST.obj
 0001:0001cb90       ?_Xlength@?$vector@UNode@@V?$allocator@UNode@@@std@@@std@@CAXXZ 0041db90 f i MST.obj
 0001:0001cbb0       ?allocate@?$allocator@I@std@@QAEPAII@Z 0041dbb0 f i MST.obj
 0001:0001cbe0       ?allocate@?$allocator@UEdge@@@std@@QAEPAUEdge@@I@Z 0041dbe0 f i MST.obj
 0001:0001cc10       ?allocate@?$allocator@UNode@@@std@@QAEPAUNode@@I@Z 0041dc10 f i MST.obj
 0001:0001cc40       ?begin@?$vector@IV?$allocator@I@std@@@std@@QAE?AV?$_Vector_iterator@V?$_Vector_val@U?$_Simple_types@I@std@@@std@@@2@XZ 0041dc40 f i MST.obj
 0001:0001cc90       ?begin@?$vector@PAVDisplayableObject@@V?$allocator@PAVDisplayableObject@@@std@@@std@@QBE?AV?$_Vector_const_iterator@V?$_Vector_val@U?$_Simple_types@PAVDisplayableObject@@@std@@@std@@@2@XZ 0041dc90 f i MST.obj
 0001:0001cce0       ?begin@?$vector@UEdge@@V?$allocator@UEdge@@@std@@@std@@QAE?AV?$_Vector_iterator@V?$_Vector_val@U?$_Simple_types@UEdge@@@std@@@std@@@2@XZ 0041dce0 f i MST.obj
 0001:0001cd30       ?begin@?$vector@_NV?$allocator@_N@std@@@std@@QAE?AV?$_Vb_iterator@U?$_Wrap_alloc@V?$allocator@I@std@@@std@@@2@XZ 0041dd30 f i MST.obj
 0001:0001cd70       ?capacity@?$vector@UEdge@@V?$allocator@UEdge@@@std@@@std@@QBEIXZ 0041dd70 f i MST.obj
 0001:0001cda0       ?capacity@?$vector@UNode@@V?$allocator@UNode@@@std@@@std@@QBEIXZ 0041dda0 f i MST.obj
 0001:0001cdd0       ?data@?$vector@IV?$allocator@I@std@@@std@@QAEPAIXZ 0041ddd0 f i MST.obj
 0001:0001cdf0       ?data@?$vector@IV?$allocator@I@std@@@std@@QBEPBIXZ 0041ddf0 f i MST.obj
 0001:0001ce10       ?deallocate@?$allocator@I@std@@QAEXQAII@Z 0041de10 f i MST.obj
 0001:0001ceb0       ?deallocate@?$allocator@UEdge@@@std@@QAEXQAUEdge@@I@Z 0041deb0 f i MST.obj
 0001:0001cf50       ?deallocate@?$allocator@UNode@@@std@@QAEXQAUNode@@I@Z 0041df50 f i MST.obj
 0001:0001cff0       ?drawForegroundLine@BaseEngine@@QAEXHHHHI@Z 0041dff0 f i MST.obj
 0001:0001d060       ?empty@?$priority_queue@UEdge@@V?$vector@UEdge@@V?$allocator@UEdge@@@std@@@std@@U?$less@UEdge@@@3@@std@@QBE_NXZ 0041e060 f i MST.obj
 0001:0001d080       ?empty@?$vector@UEdge@@V?$allocator@UEdge@@@std@@@std@@QBE_NXZ 0041e080 f i MST.obj
 0001:0001d0d0       ?end@?$vector@IV?$allocator@I@std@@@std@@QAE?AV?$_Vector_iterator@V?$_Vector_val@U?$_Simple_types@I@std@@@std@@@2@XZ 0041e0d0 f i MST.obj
 0001:0001d120       ?end@?$vector@PAVDisplayableObject@@V?$allocator@PAVDisplayableObject@@@std@@@std@@QBE?AV?$_Vector_const_iterator@V?$_Vector_val@U?$_Simple_types@PAVDisplayableObject@@@std@@@std@@@2@XZ 0041e120 f i MST.obj
 0001:0001d170       ?end@?$vector@UEdge@@V?$allocator@UEdge@@@std@@@std@@QAE?AV?$_Vector_iterator@V?$_Vector_val@U?$_Simple_types@UEdge@@@std@@@std@@@2@XZ 0041e170 f i MST.obj
 0001:0001d1c0       ?erase@?$vector@IV?$allocator@I@std@@@std@@QAE?AV?$_Vector_iterator@V?$_Vector_val@U?$_Simple_types@I@std@@@std@@@2@V?$_Vector_const_iterator@V?$_Vector_val@U?$_Simple_types@I@std@@@std@@@2@0@Z 0041e1c0 f i MST.obj
 0001:0001d3b0       ?front@?$vector@UEdge@@V?$allocator@UEdge@@@std@@@std@@QBEABUEdge@@XZ 0041e3b0 f i MST.obj
 0001:0001d450       ?getNonNullObjectContentCount@DisplayableObjectContainer@@QBEHXZ 0041e450 f i MST.obj
 0001:0001d4c0       ?max_size@?$_Default_allocator_traits@V?$allocator@I@std@@@std@@SAIABV?$allocator@I@2@@Z 0041e4c0 f i MST.obj
 0001:0001d4d0       ?max_size@?$_Default_allocator_traits@V?$allocator@UEdge@@@std@@@std@@SAIABV?$allocator@UEdge@@@2@@Z 0041e4d0 f i MST.obj
 0001:0001d4e0       ?max_size@?$_Default_allocator_traits@V?$allocator@UNode@@@std@@@std@@SAIABV?$allocator@UNode@@@2@@Z 0041e4e0 f i MST.obj
 0001:0001d4f0       ?max_size@?$vector@IV?$allocator@I@std@@@std@@QBEIXZ 0041e4f0 f i MST.obj
 0001:0001d540       ?max_size@?$vector@UEdge@@V?$allocator@UEdge@@@std@@@std@@QBEIXZ 0041e540 f i MST.obj
 0001:0001d590       ?max_size@?$vector@UNode@@V?$allocator@UNode@@@std@@@std@@QBEIXZ 0041e590 f i MST.obj
 0001:0001d5e0       ?max_size@?$vector@_NV?$allocator@_N@std@@@std@@QBEIXZ 0041e5e0 f i MST.obj
 0001:0001d630       ?pop@?$priority_queue@UEdge@@V?$vector@UEdge@@V?$allocator@UEdge@@@std@@@std@@U?$less@UEdge@@@3@@std@@QAEXXZ 0041e630 f i MST.obj
 0001:0001d690       ?pop_back@?$vector@UEdge@@V?$allocator@UEdge@@@std@@@std@@QAEXXZ 0041e690 f i MST.obj
 0001:0001d7c0       ?push@?$priority_queue@UEdge@@V?$vector@UEdge@@V?$allocator@UEdge@@@std@@@std@@U?$less@UEdge@@@3@@std@@QAEXABUEdge@@@Z 0041e7c0 f i MST.obj
 0001:0001d820       ?push_back@?$vector@UEdge@@V?$allocator@UEdge@@@std@@@std@@QAEXABUEdge@@@Z 0041e820 f i MST.obj
 0001:0001d840       ?push_back@?$vector@UNode@@V?$allocator@UNode@@@std@@@std@@QAEXABUNode@@@Z 0041e840 f i MST.obj
 0001:0001d860       ?select_on_container_copy_construction@?$_Default_allocator_traits@V?$allocator@UNode@@@std@@@std@@SA?AV?$allocator@UNode@@@2@ABV32@@Z 0041e860 f i MST.obj
 0001:0001d870       ?size@?$vector@IV?$allocator@I@std@@@std@@QBEIXZ 0041e870 f i MST.obj
 0001:0001d8a0       ?size@?$vector@UNode@@V?$allocator@UNode@@@std@@@std@@QBEIXZ 0041e8a0 f i MST.obj
 0001:0001d8d0       ?top@?$priority_queue@UEdge@@V?$vector@UEdge@@V?$allocator@UEdge@@@std@@@std@@U?$less@UEdge@@@3@@std@@QBEABUEdge@@XZ 0041e8d0 f i MST.obj
 0001:0001d8f0       ?virtDrawTileAt@NumberTiles@@UBEXPAVBaseEngine@@PAVDrawingSurface@@HHHH@Z 0041e8f0 f   NumberTiles.obj
 0001:0001daa0       ?getBackgroundSurface@BaseEngine@@QAEPAVDrawingSurface@@XZ 0041eaa0 f i NumberTiles.obj
 0001:0001dac0       ?mapCoordinates@ImageTracking@@UAE_NAAN0ABVSimpleImage@@@Z 0041eac0 f   ImageTracking.obj
 0001:0001dde0       ??$atan2@HH$0A@@@YANHH@Z   0041ede0 f i ImageTracking.obj
 0001:0001de10       ?virtSetupBackgroundBuffer@LoseState@@UAEXXZ 0041ee10 f   LoseState.obj
 0001:0001e420       ?virtKeyDown@LoseState@@UAEXH@Z 0041f420 f   LoseState.obj
 0001:0001e4c0       ?copyAllBackgroundBuffer@LoseState@@UAEXXZ 0041f4c0 f   LoseState.obj
 0001:0001e4f0       ?virtMainLoopDoBeforeUpdate@LoseState@@UAEXXZ 0041f4f0 f   LoseState.obj
 0001:0001e5c0       ?virtCreateSurfaces@LoseState@@UAEXXZ 0041f5c0 f   LoseState.obj
 0001:0001e6b0       ?virtDrawStringsUnderneath@LoseState@@UAEXXZ 0041f6b0 f   LoseState.obj
 0001:0001e700       ??1LoseState@@UAE@XZ       0041f700 f   LoseState.obj
 0001:0001ea10       ??0StartupState@@QAE@PAVPsydp3Engine@@@Z 0041fa10 f i LoseState.obj
 0001:0001ea40       ??0State@@QAE@PAVPsydp3Engine@@@Z 0041fa40 f i LoseState.obj
 0001:0001ea70       ??1StartupState@@UAE@XZ    0041fa70 f i LoseState.obj
 0001:0001ea90       ??_ELoseState@@UAEPAXI@Z   0041fa90 f i LoseState.obj
 0001:0001ea90       ??_GLoseState@@UAEPAXI@Z   0041fa90 f i LoseState.obj
 0001:0001ead0       ??_EStartupState@@UAEPAXI@Z 0041fad0 f i LoseState.obj
 0001:0001ead0       ??_GStartupState@@UAEPAXI@Z 0041fad0 f i LoseState.obj
 0001:0001eb10       ??_EState@@UAEPAXI@Z       0041fb10 f i LoseState.obj
 0001:0001eb10       ??_GState@@UAEPAXI@Z       0041fb10 f i LoseState.obj
 0001:0001eb50       ?drawForegroundString@BaseEngine@@QAEXHHPBDIPAVFont@@@Z 0041fb50 f i LoseState.obj
 0001:0001eb90       _SDL_main                  0041fb90 f   mainfunction.obj
 0001:0001ebf0       ?doProgram@@YAHHQAPAD@Z    0041fbf0 f   mainfunction.obj
 0001:0001ed30       ??$_Erase_head@V?$allocator@U?$_Tree_node@U?$pair@$$CBV?$basic_string@DU?$char_traits@D@std@@V?$allocator@D@2@@std@@V?$shared_ptr@VRawImageData@@@2@@std@@PAX@std@@@std@@@?$_Tree_val@U?$_Tree_simple_types@U?$pair@$$CBV?$basic_string@DU?$char_traits@D@std@@V?$allocator@D@2@@std@@V?$shared_ptr@VRawImageData@@@2@@std@@@std@@@std@@QAEXAAV?$allocator@U?$_Tree_node@U?$pair@$$CBV?$basic_string@DU?$char_traits@D@std@@V?$allocator@D@2@@std@@V?$shared_ptr@VRawImageData@@@2@@std@@PAX@std@@@1@@Z 0041fd30 f i mainfunction.obj
 0001:0001ed80       ??$_Erase_tree@V?$allocator@U?$_Tree_node@U?$pair@$$CBV?$basic_string@DU?$char_traits@D@std@@V?$allocator@D@2@@std@@V?$shared_ptr@VRawImageData@@@2@@std@@PAX@std@@@std@@@?$_Tree_val@U?$_Tree_simple_types@U?$pair@$$CBV?$basic_string@DU?$char_traits@D@std@@V?$allocator@D@2@@std@@V?$shared_ptr@VRawImageData@@@2@@std@@@std@@@std@@QAEXAAV?$allocator@U?$_Tree_node@U?$pair@$$CBV?$basic_string@DU?$char_traits@D@std@@V?$allocator@D@2@@std@@V?$shared_ptr@VRawImageData@@@2@@std@@PAX@std@@@1@PAU?$_Tree_node@U?$pair@$$CBV?$basic_string@DU?$char_traits@D@std@@V?$allocator@D@2@@std@@V?$shared_ptr@VRawImageData@@@2@@std@@PAX@1@@Z 0041fd80 f i mainfunction.obj
 0001:0001ede0       ??$_Freenode0@V?$allocator@U?$_Tree_node@U?$pair@$$CBV?$basic_string@DU?$char_traits@D@std@@V?$allocator@D@2@@std@@V?$shared_ptr@VRawImageData@@@2@@std@@PAX@std@@@std@@@?$_Tree_node@U?$pair@$$CBV?$basic_string@DU?$char_traits@D@std@@V?$allocator@D@2@@std@@V?$shared_ptr@VRawImageData@@@2@@std@@PAX@std@@SAXAAV?$allocator@U?$_Tree_node@U?$pair@$$CBV?$basic_string@DU?$char_traits@D@std@@V?$allocator@D@2@@std@@V?$shared_ptr@VRawImageData@@@2@@std@@PAX@std@@@1@PAU01@@Z 0041fde0 f i mainfunction.obj
 0001:0001ee70       ??$_Freenode@V?$allocator@U?$_Tree_node@U?$pair@$$CBV?$basic_string@DU?$char_traits@D@std@@V?$allocator@D@2@@std@@V?$shared_ptr@VRawImageData@@@2@@std@@PAX@std@@@std@@@?$_Tree_node@U?$pair@$$CBV?$basic_string@DU?$char_traits@D@std@@V?$allocator@D@2@@std@@V?$shared_ptr@VRawImageData@@@2@@std@@PAX@std@@SAXAAV?$allocator@U?$_Tree_node@U?$pair@$$CBV?$basic_string@DU?$char_traits@D@std@@V?$allocator@D@2@@std@@V?$shared_ptr@VRawImageData@@@2@@std@@PAX@std@@@1@PAU01@@Z 0041fe70 f i mainfunction.obj
 0001:0001eef0       ??$exchange@PAU?$_Tree_node@U?$pair@$$CBV?$basic_string@DU?$char_traits@D@std@@V?$allocator@D@2@@std@@V?$shared_ptr@VRawImageData@@@2@@std@@PAX@std@@AAPAU12@@std@@YAPAU?$_Tree_node@U?$pair@$$CBV?$basic_string@DU?$char_traits@D@std@@V?$allocator@D@2@@std@@V?$shared_ptr@VRawImageData@@@2@@std@@PAX@0@AAPAU10@0@Z 0041fef0 f i mainfunction.obj
 0001:0001ef20       ??1?$_Tree@V?$_Tmap_traits@V?$basic_string@DU?$char_traits@D@std@@V?$allocator@D@2@@std@@V?$shared_ptr@VRawImageData@@@2@U?$less@V?$basic_string@DU?$char_traits@D@std@@V?$allocator@D@2@@std@@@2@V?$allocator@U?$pair@$$CBV?$basic_string@DU?$char_traits@D@std@@V?$allocator@D@2@@std@@V?$shared_ptr@VRawImageData@@@2@@std@@@2@$0A@@std@@@std@@QAE@XZ 0041ff20 f i mainfunction.obj
 0001:0001ef90       ??1?$map@V?$basic_string@DU?$char_traits@D@std@@V?$allocator@D@2@@std@@V?$shared_ptr@VRawImageData@@@2@U?$less@V?$basic_string@DU?$char_traits@D@std@@V?$allocator@D@2@@std@@@2@V?$allocator@U?$pair@$$CBV?$basic_string@DU?$char_traits@D@std@@V?$allocator@D@2@@std@@V?$shared_ptr@VRawImageData@@@2@@std@@@2@@std@@QAE@XZ 0041ff90 f i mainfunction.obj
 0001:0001efb0       ??1ImageManager@@QAE@XZ    0041ffb0 f i mainfunction.obj
 0001:0001efe0       ??_GImageManager@@QAEPAXI@Z 0041ffe0 f i mainfunction.obj
 0001:0001f020       ?deallocate@?$_Default_allocator_traits@V?$allocator@U?$_Tree_node@U?$pair@$$CBV?$basic_string@DU?$char_traits@D@std@@V?$allocator@D@2@@std@@V?$shared_ptr@VRawImageData@@@2@@std@@PAX@std@@@std@@@std@@SAXAAV?$allocator@U?$_Tree_node@U?$pair@$$CBV?$basic_string@DU?$char_traits@D@std@@V?$allocator@D@2@@std@@V?$shared_ptr@VRawImageData@@@2@@std@@PAX@std@@@2@QAU?$_Tree_node@U?$pair@$$CBV?$basic_string@DU?$char_traits@D@std@@V?$allocator@D@2@@std@@V?$shared_ptr@VRawImageData@@@2@@std@@PAX@2@I@Z 00420020 f i mainfunction.obj
 0001:0001f040       ?destroyImageManager@ImageManager@@SAXXZ 00420040 f i mainfunction.obj
 0001:0001f0a0       __vsnprintf_l              004200a0 f i mainfunction.obj
 0001:0001f110       __vsprintf_l               00420110 f i mainfunction.obj
 0001:0001f140       _sprintf                   00420140 f i mainfunction.obj
 0001:0001f180       ??0BaseEngine@@QAE@XZ      00420180 f   BaseEngine.obj
 0001:0001f3c0       ??1BaseEngine@@UAE@XZ      004203c0 f   BaseEngine.obj
 0001:0001f410       ?initialise@BaseEngine@@QAEHPBDHH0H@Z 00420410 f   BaseEngine.obj
 0001:0001f540       ?deinitialise@BaseEngine@@QAEXXZ 00420540 f   BaseEngine.obj
 0001:0001f570       ?mainLoop@BaseEngine@@QAEHXZ 00420570 f   BaseEngine.obj
 0001:0001f6a0       ?handleEvent@BaseEngine@@QAE_NPATSDL_Event@@@Z 004206a0 f   BaseEngine.obj
 0001:0001fce0       ?isKeyPressed@BaseEngine@@QBE_NH@Z 00420ce0 f   BaseEngine.obj
 0001:0001fd10       ?virtKeyUp@BaseEngine@@UAEXH@Z 00420d10 f   BaseEngine.obj
 0001:0001fd20       ?virtKeyDown@BaseEngine@@UAEXH@Z 00420d20 f   BaseEngine.obj
 0001:0001fd30       ?virtMouseMoved@BaseEngine@@UAEXHH@Z 00420d30 f   BaseEngine.obj
 0001:0001fd40       ?virtMouseDown@BaseEngine@@UAEXHHH@Z 00420d40 f   BaseEngine.obj
 0001:0001fd50       ?virtMouseUp@BaseEngine@@UAEXHHH@Z 00420d50 f   BaseEngine.obj
 0001:0001fd60       ?virtInitialise@BaseEngine@@UAEHXZ 00420d60 f   BaseEngine.obj
 0001:0001fdb0       ?virtCreateWindows@BaseEngine@@UAEXPBD@Z 00420db0 f   BaseEngine.obj
 0001:0001fe40       ?virtCreateSurfaces@BaseEngine@@UAEXXZ 00420e40 f   BaseEngine.obj
 0001:0001fe90       ?virtCleanUp@BaseEngine@@UAEXXZ 00420e90 f   BaseEngine.obj
 0001:0001fea0       ?virtSetupBackgroundBuffer@BaseEngine@@UAEXXZ 00420ea0 f   BaseEngine.obj
 0001:0001fec0       ?virtDrawStringsUnderneath@BaseEngine@@UAEXXZ 00420ec0 f   BaseEngine.obj
 0001:0001fed0       ?virtDrawStringsOnTop@BaseEngine@@UAEXXZ 00420ed0 f   BaseEngine.obj
 0001:0001fee0       ?virtCheckForUpdateTime@BaseEngine@@UAE_NXZ 00420ee0 f   BaseEngine.obj
 0001:0001ff30       ?virtRenderScreen@BaseEngine@@UAEXXZ 00420f30 f   BaseEngine.obj
 0001:000200c0       ?getColour@BaseEngine@@QBEIH@Z 004210c0 f   BaseEngine.obj
 0001:00020300       ?virtInitialiseObjects@BaseEngine@@UAEHXZ 00421300 f   BaseEngine.obj
 0001:00020330       ?drawAllObjects@BaseEngine@@UAEXXZ 00421330 f   BaseEngine.obj
 0001:000204f0       ?updateAllObjects@BaseEngine@@UAEXH@Z 004214f0 f   BaseEngine.obj
 0001:000206b0       _mydebug                   004216b0 f   BaseEngine.obj
 0001:00020e70       ??$?0ABV?$allocator@PAVDisplayableObject@@@std@@$$V@?$_Compressed_pair@V?$allocator@PAVDisplayableObject@@@std@@V?$_Vector_val@U?$_Simple_types@PAVDisplayableObject@@@std@@@2@$00@std@@QAE@U_One_then_variadic_args_t@1@ABV?$allocator@PAVDisplayableObject@@@1@@Z 00421e70 f i BaseEngine.obj
 0001:00020ea0       ??$?0PAVDisplayableObject@@@?$allocator@U_Container_proxy@std@@@std@@QAE@ABV?$allocator@PAVDisplayableObject@@@1@@Z 00421ea0 f i BaseEngine.obj
 0001:00020ec0       ??$_Adl_verify_range@V?$_Vector_iterator@V?$_Vector_val@U?$_Simple_types@PAVDisplayableObject@@@std@@@std@@@std@@V12@@std@@YAXABV?$_Vector_iterator@V?$_Vector_val@U?$_Simple_types@PAVDisplayableObject@@@std@@@std@@@0@0@Z 00421ec0 f i BaseEngine.obj
 0001:00020ee0       ??$_Construct_n@$$V@?$vector@PAVDisplayableObject@@V?$allocator@PAVDisplayableObject@@@std@@@std@@AAEXI@Z 00421ee0 f i BaseEngine.obj
 0001:00020ff0       ??$_Get_unwrapped@AAV?$_Vector_iterator@V?$_Vector_val@U?$_Simple_types@PAVDisplayableObject@@@std@@@std@@@std@@@std@@YA?A_TAAV?$_Vector_iterator@V?$_Vector_val@U?$_Simple_types@PAVDisplayableObject@@@std@@@std@@@0@@Z 00421ff0 f i BaseEngine.obj
 0001:00021000       ??$addressof@V?$_Vector_val@U?$_Simple_types@PAVDisplayableObject@@@std@@@std@@@std@@YAPAV?$_Vector_val@U?$_Simple_types@PAVDisplayableObject@@@std@@@0@AAV10@@Z 00422000 f i BaseEngine.obj
 0001:00021490       ??$forward@ABV?$allocator@PAVDisplayableObject@@@std@@@std@@YAABV?$allocator@PAVDisplayableObject@@@0@ABV10@@Z 00422490 f i BaseEngine.obj
 0001:000214a0       ??0?$_Vector_const_iterator@V?$_Vector_val@U?$_Simple_types@PAVDisplayableObject@@@std@@@std@@@std@@QAE@$$QAV01@@Z 004224a0 f i BaseEngine.obj
 0001:000214e0       ??0?$_Vector_const_iterator@V?$_Vector_val@U?$_Simple_types@PAVDisplayableObject@@@std@@@std@@@std@@QAE@ABV01@@Z 004224e0 f i BaseEngine.obj
 0001:00021520       ??0?$_Vector_iterator@V?$_Vector_val@U?$_Simple_types@PAVDisplayableObject@@@std@@@std@@@std@@QAE@$$QAV01@@Z 00422520 f i BaseEngine.obj
 0001:00021550       ??0?$_Vector_iterator@V?$_Vector_val@U?$_Simple_types@PAVDisplayableObject@@@std@@@std@@@std@@QAE@ABV01@@Z 00422550 f i BaseEngine.obj
 0001:00021580       ??0?$_Vector_iterator@V?$_Vector_val@U?$_Simple_types@PAVDisplayableObject@@@std@@@std@@@std@@QAE@PAPAVDisplayableObject@@PBU_Container_base12@1@@Z 00422580 f i BaseEngine.obj
 0001:000215b0       ??0?$_Vector_val@U?$_Simple_types@PAVDisplayableObject@@@std@@@std@@QAE@XZ 004225b0 f i BaseEngine.obj
 0001:00021600       ??0?$allocator@PAVDisplayableObject@@@std@@QAE@XZ 00422600 f i BaseEngine.obj
 0001:00021620       ??0?$vector@PAVDisplayableObject@@V?$allocator@PAVDisplayableObject@@@std@@@std@@QAE@IABV?$allocator@PAVDisplayableObject@@@1@@Z 00422620 f i BaseEngine.obj
 0001:00021660       ??0DisplayableObjectContainer@@QAE@H@Z 00422660 f i BaseEngine.obj
 0001:000216c0       ??0FilterPoints@@QAE@XZ    004226c0 f i BaseEngine.obj
 0001:000216e0       ??1?$_Tidy_guard@V?$vector@PAVDisplayableObject@@V?$allocator@PAVDisplayableObject@@@std@@@std@@@std@@QAE@XZ 004226e0 f i BaseEngine.obj
 0001:00021710       ??1?$_Vector_iterator@V?$_Vector_val@U?$_Simple_types@PAVDisplayableObject@@@std@@@std@@@std@@QAE@XZ 00422710 f i BaseEngine.obj
 0001:00021730       ??1?$vector@PAVDisplayableObject@@V?$allocator@PAVDisplayableObject@@@std@@@std@@QAE@XZ 00422730 f i BaseEngine.obj
 0001:000217a0       ??1DisplayableObjectContainer@@UAE@XZ 004227a0 f i BaseEngine.obj
 0001:00021810       ??8?$_Vector_const_iterator@V?$_Vector_val@U?$_Simple_types@PAVDisplayableObject@@@std@@@std@@@std@@QBE_NABV01@@Z 00422810 f i BaseEngine.obj
 0001:00021860       ??9?$_Vector_const_iterator@V?$_Vector_val@U?$_Simple_types@PAVDisplayableObject@@@std@@@std@@@std@@QBE_NABV01@@Z 00422860 f i BaseEngine.obj
 0001:000218b0       ??D?$_Vector_const_iterator@V?$_Vector_val@U?$_Simple_types@PAVDisplayableObject@@@std@@@std@@@std@@QBEABQAVDisplayableObject@@XZ 004228b0 f i BaseEngine.obj
 0001:000219c0       ??D?$_Vector_iterator@V?$_Vector_val@U?$_Simple_types@PAVDisplayableObject@@@std@@@std@@@std@@QBEAAPAVDisplayableObject@@XZ 004229c0 f i BaseEngine.obj
 0001:000219e0       ??E?$_Vector_const_iterator@V?$_Vector_val@U?$_Simple_types@PAVDisplayableObject@@@std@@@std@@@std@@QAEAAV01@XZ 004229e0 f i BaseEngine.obj
 0001:00021af0       ??E?$_Vector_iterator@V?$_Vector_val@U?$_Simple_types@PAVDisplayableObject@@@std@@@std@@@std@@QAE?AV01@H@Z 00422af0 f i BaseEngine.obj
 0001:00021b40       ??_EBaseEngine@@UAEPAXI@Z  00422b40 f i BaseEngine.obj
 0001:00021b40       ??_GBaseEngine@@UAEPAXI@Z  00422b40 f i BaseEngine.obj
 0001:00021b80       ??_EDisplayableObjectContainer@@UAEPAXI@Z 00422b80 f i BaseEngine.obj
 0001:00021b80       ??_GDisplayableObjectContainer@@UAEPAXI@Z 00422b80 f i BaseEngine.obj
 0001:00021bc0       ?_Buy_nonzero@?$vector@PAVDisplayableObject@@V?$allocator@PAVDisplayableObject@@@std@@@std@@AAEXI@Z 00422bc0 f i BaseEngine.obj
 0001:00021c00       ?_Buy_raw@?$vector@PAVDisplayableObject@@V?$allocator@PAVDisplayableObject@@@std@@@std@@AAEXI@Z 00422c00 f i BaseEngine.obj
 0001:00021c80       ?_Compat@?$_Vector_const_iterator@V?$_Vector_val@U?$_Simple_types@PAVDisplayableObject@@@std@@@std@@@std@@QBEXABV12@@Z 00422c80 f i BaseEngine.obj
 0001:00021d20       ?_Tidy@?$vector@PAVDisplayableObject@@V?$allocator@PAVDisplayableObject@@@std@@@std@@AAEXXZ 00422d20 f i BaseEngine.obj
 0001:00021e20       ?_Unwrapped@?$_Vector_iterator@V?$_Vector_val@U?$_Simple_types@PAVDisplayableObject@@@std@@@std@@@std@@QBEPAPAVDisplayableObject@@XZ 00422e20 f i BaseEngine.obj
 0001:00021e40       ?begin@?$vector@PAVDisplayableObject@@V?$allocator@PAVDisplayableObject@@@std@@@std@@QAE?AV?$_Vector_iterator@V?$_Vector_val@U?$_Simple_types@PAVDisplayableObject@@@std@@@std@@@2@XZ 00422e40 f i BaseEngine.obj
 0001:00021e90       ?end@?$vector@PAVDisplayableObject@@V?$allocator@PAVDisplayableObject@@@std@@@std@@QAE?AV?$_Vector_iterator@V?$_Vector_val@U?$_Simple_types@PAVDisplayableObject@@@std@@@std@@@2@XZ 00422e90 f i BaseEngine.obj
 0001:00021ee0       ?getHasActed@DisplayableObject@@QBE_NXZ 00422ee0 f i BaseEngine.obj
 0001:00021f00       ?isTimeToAct@BaseEngine@@QBE_NXZ 00422f00 f i BaseEngine.obj
 0001:00021f40       ?mySDLUpdateTexture@DrawingSurface@@QAEXPAUSDL_Texture@@@Z 00422f40 f i BaseEngine.obj
 0001:00021f80       ?setHasActed@DisplayableObject@@QAEX_N@Z 00422f80 f i BaseEngine.obj
 0001:00021fa0       ?setTimeToAct@BaseEngine@@QAEXH@Z 00422fa0 f i BaseEngine.obj
 0001:00021fd0       ?symbolToKeycode@BaseEngine@@SAHH@Z 00422fd0 f i BaseEngine.obj
 0001:000224c0       ?virtMainLoopDoBeforeUpdate@BaseEngine@@UAEXXZ 004234c0 f i BaseEngine.obj
 0001:000224d0       _fprintf                   004234d0 f i BaseEngine.obj
 0001:00022510       ??0DisplayableObject@@QAE@PAVBaseEngine@@HH_N@Z 00423510 f   DisplayableObject.obj
 0001:000225d0       ??0DisplayableObject@@QAE@HHPAVBaseEngine@@HH_N@Z 004235d0 f   DisplayableObject.obj
 0001:00022690       ??1DisplayableObject@@UAE@XZ 00423690 f   DisplayableObject.obj
 0001:000226b0       ?virtDraw@DisplayableObject@@UAEXXZ 004236b0 f   DisplayableObject.obj
 0001:00022750       ?virtDoUpdate@DisplayableObject@@UAEXH@Z 00423750 f   DisplayableObject.obj
 0001:00022760       ?redrawDisplay@DisplayableObject@@QAEXXZ 00423760 f   DisplayableObject.obj
 0001:00022780       ?redrawRectangle@DisplayableObject@@QAEXXZ 00423780 f   DisplayableObject.obj
 0001:000227c0       ?virtIsObjectInRedrawArea@DisplayableObject@@QAE_NXZ 004237c0 f   DisplayableObject.obj
 0001:00022860       ?fixPosition@DisplayableObject@@QAEXXZ 00423860 f   DisplayableObject.obj
 0001:00022a30       ??_EDisplayableObject@@UAEPAXI@Z 00423a30 f i DisplayableObject.obj
 0001:00022a30       ??_GDisplayableObject@@UAEPAXI@Z 00423a30 f i DisplayableObject.obj
 0001:00022a70       ?convertVirtualPixelToClickedXPosition@BaseEngine@@QAEHH@Z 00423a70 f i DisplayableObject.obj
 0001:00022aa0       ?convertVirtualPixelToClickedYPosition@BaseEngine@@QAEHH@Z 00423aa0 f i DisplayableObject.obj
 0001:00022ad0       ?convertVirtualToRealXPosition@DrawingSurface@@QAEHH@Z 00423ad0 f i DisplayableObject.obj
 0001:00022b10       ?convertVirtualToRealYPosition@DrawingSurface@@QAEHH@Z 00423b10 f i DisplayableObject.obj
 0001:00022b50       ?redrawRectangle@BaseEngine@@QAEXHHHH@Z 00423b50 f i DisplayableObject.obj
 0001:00022cc0       ?setForegroundPixel@BaseEngine@@QAEXHHI@Z 00423cc0 f i DisplayableObject.obj
 0001:00022cf0       ??0FontManager@@QAE@XZ     00423cf0 f   FontManager.obj
 0001:00022d60       ??1FontManager@@QAE@XZ     00423d60 f   FontManager.obj
 0001:00022dd0       ?getFont@FontManager@@QAEPAVFont@@PBDH@Z 00423dd0 f   FontManager.obj
 0001:00022f70       ?loadFonts@FontManager@@QAEXXZ 00423f70 f   FontManager.obj
 0001:000230a0       ??$growArrayOfObjects@PAVFont@@@@YAPAPAVFont@@PAPAV0@AAHH@Z 004240a0 f i FontManager.obj
 0001:00023160       ??0Font@@QAE@PBDH@Z        00424160 f i FontManager.obj
 0001:000231e0       ??1Font@@QAE@XZ            004241e0 f i FontManager.obj
 0001:00023260       ??_GFont@@QAEPAXI@Z        00424260 f i FontManager.obj
 0001:000232a0       ?getName@Font@@QAEPBDXZ    004242a0 f i FontManager.obj
 0001:000232c0       ?getSize@Font@@QAEHXZ      004242c0 f i FontManager.obj
 0001:000232e0       ?virtDraw@PauseSymbol@@UAEXXZ 004242e0 f   PauseSymbol.obj
 0001:000233a0       ?drawForegroundRectangle@BaseEngine@@QAEXHHHHI@Z 004243a0 f i PauseSymbol.obj
 0001:000233e0       ?isPaused@BaseEngine@@QAE_NXZ 004243e0 f i PauseSymbol.obj
 0001:00023420       ?virtDraw@Player@@UAEXXZ   00424420 f   Player.obj
 0001:000235d0       ?virtDoUpdate@Player@@UAEXH@Z 004245d0 f   Player.obj
 0001:00023850       ??0Psydp3Engine@@QAE@XZ    00424850 f   Psydp3Engine.obj
 0001:000239d0       ??1Psydp3Engine@@UAE@XZ    004249d0 f   Psydp3Engine.obj
 0001:00023a50       ?virtSetupBackgroundBuffer@Psydp3Engine@@UAEXXZ 00424a50 f   Psydp3Engine.obj
 0001:00023a80       ?virtInitialiseObjects@Psydp3Engine@@UAEHXZ 00424a80 f   Psydp3Engine.obj
 0001:00023ab0       ?setState@Psydp3Engine@@QAEXPAVState@@@Z 00424ab0 f   Psydp3Engine.obj
 0001:00023b30       ?virtKeyDown@Psydp3Engine@@UAEXH@Z 00424b30 f   Psydp3Engine.obj
 0001:00023b60       ?virtKeyUp@Psydp3Engine@@UAEXH@Z 00424b60 f   Psydp3Engine.obj
 0001:00023b90       ?virtDrawStringsUnderneath@Psydp3Engine@@UAEXXZ 00424b90 f   Psydp3Engine.obj
 0001:00023bc0       ?uploadScore@Psydp3Engine@@QAEXXZ 00424bc0 f   Psydp3Engine.obj
 0001:00023c70       ?virtMouseDown@Psydp3Engine@@UAEXHHH@Z 00424c70 f   Psydp3Engine.obj
 0001:00023cb0       ?virtMainLoopDoBeforeUpdate@Psydp3Engine@@UAEXXZ 00424cb0 f   Psydp3Engine.obj
 0001:00023ce0       ?copyAllBackgroundBuffer@Psydp3Engine@@UAEXXZ 00424ce0 f   Psydp3Engine.obj
 0001:00023d10       ?setUpdateperiod@Psydp3Engine@@QAEXH@Z 00424d10 f   Psydp3Engine.obj
 0001:00023d30       ?virtCreateSurfaces@Psydp3Engine@@UAEXXZ 00424d30 f   Psydp3Engine.obj
 0001:00023d60       ?setBackgroundSurface@Psydp3Engine@@QAEXPAVDrawingSurface@@@Z 00424d60 f   Psydp3Engine.obj
 0001:00023d80       ?getOBackgroundSurface@Psydp3Engine@@QAEPAVDrawingSurface@@XZ 00424d80 f   Psydp3Engine.obj
 0001:00023da0       ?getOForegroundSurface@Psydp3Engine@@QAEPAVDrawingSurface@@XZ 00424da0 f   Psydp3Engine.obj
 0001:00023dc0       ?virtInitialise@Psydp3Engine@@UAEHXZ 00424dc0 f   Psydp3Engine.obj
 0001:00023f60       ??$?0AAPAV_Facet_base@std@@@?$_Compressed_pair@U?$default_delete@V_Facet_base@std@@@std@@PAV_Facet_base@2@$00@std@@QAE@U_Zero_then_variadic_args_t@1@AAPAV_Facet_base@1@@Z 00424f60 f i Psydp3Engine.obj
 0001:00023f90       ??$?0U?$default_delete@V_Facet_base@std@@@std@@$0A@@?$unique_ptr@V_Facet_base@std@@U?$default_delete@V_Facet_base@std@@@2@@std@@QAE@PAV_Facet_base@1@@Z 00424f90 f i Psydp3Engine.obj
 0001:00023fc0       ??$_Fgetc@D@std@@YA_NAADPAU_iobuf@@@Z 00424fc0 f i Psydp3Engine.obj
 0001:00024000       ??$_Fputc@D@std@@YA_NDPAU_iobuf@@@Z 00425000 f i Psydp3Engine.obj
 0001:00024040       ??$_Reallocate_grow_by@V<lambda_15711c68e099a15a58f4d77303cb286d>@@D@?$basic_string@DU?$char_traits@D@std@@V?$allocator@D@2@@std@@AAEAAV01@IV<lambda_15711c68e099a15a58f4d77303cb286d>@@D@Z 00425040 f i Psydp3Engine.obj
 0001:000241b0       ??$_Ungetc@D@std@@YA_NABDPAU_iobuf@@@Z 004251b0 f i Psydp3Engine.obj
 0001:00024200       ??$addressof@$$CBV?$codecvt@DDU_Mbstatet@@@std@@@std@@YAPBV?$codecvt@DDU_Mbstatet@@@0@ABV10@@Z 00425200 f i Psydp3Engine.obj
 0001:00024210       ??$addressof@V?$basic_filebuf@DU?$char_traits@D@std@@@std@@@std@@YAPAV?$basic_filebuf@DU?$char_traits@D@std@@@0@AAV10@@Z 00425210 f i Psydp3Engine.obj
 0001:00024220       ??$exchange@PAV_Facet_base@std@@$$T@std@@YAPAV_Facet_base@0@AAPAV10@$$QA$$T@Z 00425220 f i Psydp3Engine.obj
 0001:00024250       ??$forward@AAPAV_Facet_base@std@@@std@@YAAAPAV_Facet_base@0@AAPAV10@@Z 00425250 f i Psydp3Engine.obj
 0001:00024260       ??$use_facet@V?$codecvt@DDU_Mbstatet@@@std@@@std@@YAABV?$codecvt@DDU_Mbstatet@@@0@ABVlocale@0@@Z 00425260 f i Psydp3Engine.obj
 0001:000243b0       ??0?$basic_filebuf@DU?$char_traits@D@std@@@std@@QAE@XZ 004253b0 f i Psydp3Engine.obj
 0001:00024430       ??0?$basic_ofstream@DU?$char_traits@D@std@@@std@@QAE@XZ 00425430 f i Psydp3Engine.obj
 0001:00024540       ??0?$fpos@U_Mbstatet@@@std@@QAE@U_Mbstatet@@_J@Z 00425540 f i Psydp3Engine.obj
 0001:00024590       ??0?$fpos@U_Mbstatet@@@std@@QAE@_J@Z 00425590 f i Psydp3Engine.obj
 0001:000245e0       ??0CircuitTiles@@QAE@XZ    004255e0 f i Psydp3Engine.obj
 0001:00024610       ??0NumberTiles@@QAE@XZ     00425610 f i Psydp3Engine.obj
 0001:00024640       ??0ScrollPoints@@QAE@PAVZoomPoints@@@Z 00425640 f i Psydp3Engine.obj
 0001:00024690       ??0TileManager@@QAE@HHHH@Z 00425690 f i Psydp3Engine.obj
 0001:00024720       ??0ZoomPoints@@QAE@HHPAVFilterPoints@@@Z 00425720 f i Psydp3Engine.obj
 0001:00024790       ??0bad_cast@std@@QAE@ABV01@@Z 00425790 f i Psydp3Engine.obj
 0001:000247c0       ??0bad_cast@std@@QAE@XZ    004257c0 f i Psydp3Engine.obj
 0001:000247f0       ??1?$basic_filebuf@DU?$char_traits@D@std@@@std@@UAE@XZ 004257f0 f i Psydp3Engine.obj
 0001:00024880       ??1?$basic_ofstream@DU?$char_traits@D@std@@@std@@UAE@XZ 00425880 f i Psydp3Engine.obj
 0001:000248f0       ??1?$unique_ptr@V_Facet_base@std@@U?$default_delete@V_Facet_base@std@@@2@@std@@QAE@XZ 004258f0 f i Psydp3Engine.obj
 0001:00024930       ??1CircuitTiles@@UAE@XZ    00425930 f i Psydp3Engine.obj
 0001:00024950       ??1NumberTiles@@UAE@XZ     00425950 f i Psydp3Engine.obj
 0001:00024970       ??1TileManager@@UAE@XZ     00425970 f i Psydp3Engine.obj
 0001:000249c0       ??1bad_cast@std@@UAE@XZ    004259c0 f i Psydp3Engine.obj
 0001:000249e0       ??1locale@std@@QAE@XZ      004259e0 f i Psydp3Engine.obj
 0001:00024a40       ??B?$fpos@U_Mbstatet@@@std@@QBE_JXZ 00425a40 f i Psydp3Engine.obj
 0001:00024a70       ??R<lambda_15711c68e099a15a58f4d77303cb286d>@@QBE@QADQBDID@Z 00425a70 f i Psydp3Engine.obj
 0001:00024ae0       ??R?$default_delete@V_Facet_base@std@@@std@@QBEXPAV_Facet_base@1@@Z 00425ae0 f i Psydp3Engine.obj
 0001:00024b30       ??_D?$basic_ofstream@DU?$char_traits@D@std@@@std@@QAEXXZ 00425b30 f i Psydp3Engine.obj
 0001:00024b5a       ??_E?$basic_ofstream@DU?$char_traits@D@std@@@std@@$4PPPPPPPM@A@AEPAXI@Z 00425b5a f i Psydp3Engine.obj
 0001:00024b70       ??_E?$basic_filebuf@DU?$char_traits@D@std@@@std@@UAEPAXI@Z 00425b70 f i Psydp3Engine.obj
 0001:00024b70       ??_G?$basic_filebuf@DU?$char_traits@D@std@@@std@@UAEPAXI@Z 00425b70 f i Psydp3Engine.obj
 0001:00024bb0       ??_E?$basic_ofstream@DU?$char_traits@D@std@@@std@@UAEPAXI@Z 00425bb0 f i Psydp3Engine.obj
 0001:00024bb0       ??_G?$basic_ofstream@DU?$char_traits@D@std@@@std@@UAEPAXI@Z 00425bb0 f i Psydp3Engine.obj
 0001:00024c00       ??_ECircuitTiles@@UAEPAXI@Z 00425c00 f i Psydp3Engine.obj
 0001:00024c00       ??_GCircuitTiles@@UAEPAXI@Z 00425c00 f i Psydp3Engine.obj
 0001:00024c40       ??_ENumberTiles@@UAEPAXI@Z 00425c40 f i Psydp3Engine.obj
 0001:00024c40       ??_GNumberTiles@@UAEPAXI@Z 00425c40 f i Psydp3Engine.obj
 0001:00024c80       ??_EPsydp3Engine@@UAEPAXI@Z 00425c80 f i Psydp3Engine.obj
 0001:00024c80       ??_GPsydp3Engine@@UAEPAXI@Z 00425c80 f i Psydp3Engine.obj
 0001:00024cc0       ??_ETileManager@@UAEPAXI@Z 00425cc0 f i Psydp3Engine.obj
 0001:00024cc0       ??_GTileManager@@UAEPAXI@Z 00425cc0 f i Psydp3Engine.obj
 0001:00024d00       ??_Ebad_cast@std@@UAEPAXI@Z 00425d00 f i Psydp3Engine.obj
 0001:00024d00       ??_Gbad_cast@std@@UAEPAXI@Z 00425d00 f i Psydp3Engine.obj
 0001:00024d40       ?_Check_offset@?$_String_val@U?$_Simple_types@D@std@@@std@@QBEXI@Z 00425d40 f i Psydp3Engine.obj
 0001:00024d70       ?_Clamp_suffix_size@?$_String_val@U?$_Simple_types@D@std@@@std@@QBEIII@Z 00425d70 f i Psydp3Engine.obj
 0001:00024db0       ?_Endwrite@?$basic_filebuf@DU?$char_traits@D@std@@@std@@IAE_NXZ 00425db0 f i Psydp3Engine.obj
 0001:00024f10       ?_Erase_noexcept@?$basic_string@DU?$char_traits@D@std@@V?$allocator@D@2@@std@@AAEAAV12@II@Z 00425f10 f i Psydp3Engine.obj
 0001:00024fa0       ?_Get_first@?$_Compressed_pair@U?$default_delete@V_Facet_base@std@@@std@@PAV_Facet_base@2@$00@std@@QAEAAU?$default_delete@V_Facet_base@std@@@2@XZ 00425fa0 f i Psydp3Engine.obj
 0001:00024fc0       ?_Getfacet@locale@std@@QBEPBVfacet@12@I@Z 00425fc0 f i Psydp3Engine.obj
 0001:00025060       ?_Init@?$basic_filebuf@DU?$char_traits@D@std@@@std@@IAEXPAU_iobuf@@W4_Initfl@12@@Z 00426060 f i Psydp3Engine.obj
 0001:00025160       ?_Initcvt@?$basic_filebuf@DU?$char_traits@D@std@@@std@@IAEXABV?$codecvt@DDU_Mbstatet@@@2@@Z 00426160 f i Psydp3Engine.obj
 0001:000251c0       ?_Lock@?$basic_filebuf@DU?$char_traits@D@std@@@std@@UAEXXZ 004261c0 f i Psydp3Engine.obj
 0001:000251f0       ?_Reset_back@?$basic_filebuf@DU?$char_traits@D@std@@@std@@AAEXXZ 004261f0 f i Psydp3Engine.obj
 0001:00025240       ?_Set_back@?$basic_filebuf@DU?$char_traits@D@std@@@std@@AAEXXZ 00426240 f i Psydp3Engine.obj
 0001:000252b0       ?_Throw_bad_cast@std@@YAXXZ 004262b0 f i Psydp3Engine.obj
 0001:000252e0       ?_Unlock@?$basic_filebuf@DU?$char_traits@D@std@@@std@@UAEXXZ 004262e0 f i Psydp3Engine.obj
 0001:00025310       ?_Xran@?$_String_val@U?$_Simple_types@D@std@@@std@@SAXXZ 00426310 f i Psydp3Engine.obj
 0001:00025330       ?close@?$basic_filebuf@DU?$char_traits@D@std@@@std@@QAEPAV12@XZ 00426330 f i Psydp3Engine.obj
 0001:000253c0       ?close@?$basic_ofstream@DU?$char_traits@D@std@@@std@@QAEXXZ 004263c0 f i Psydp3Engine.obj
 0001:00025400       ?erase@?$basic_string@DU?$char_traits@D@std@@V?$allocator@D@2@@std@@QAEAAV12@II@Z 00426400 f i Psydp3Engine.obj
 0001:00025440       ?front@?$basic_string@DU?$char_traits@D@std@@V?$allocator@D@2@@std@@QAEAADXZ 00426440 f i Psydp3Engine.obj
 0001:000254e0       ?imbue@?$basic_filebuf@DU?$char_traits@D@std@@@std@@MAEXABVlocale@2@@Z 004264e0 f i Psydp3Engine.obj
 0001:00025510       ?lockAndSetupBackground@BaseEngine@@QAEXXZ 00426510 f i Psydp3Engine.obj
 0001:00025550       ?lockBackgroundForDrawing@BaseEngine@@QAEXXZ 00426550 f i Psydp3Engine.obj
 0001:00025570       ?not_eof@?$_Narrow_char_traits@DH@std@@SAHABH@Z 00426570 f i Psydp3Engine.obj
 0001:000255d0       ?open@?$basic_filebuf@DU?$char_traits@D@std@@@std@@QAEPAV12@PBDHH@Z 004265d0 f i Psydp3Engine.obj
 0001:000256c0       ?open@?$basic_ofstream@DU?$char_traits@D@std@@@std@@QAEXPBDHH@Z 004266c0 f i Psydp3Engine.obj
 0001:00025740       ?overflow@?$basic_filebuf@DU?$char_traits@D@std@@@std@@MAEHH@Z 00426740 f i Psydp3Engine.obj
 0001:00025990       ?pbackfail@?$basic_filebuf@DU?$char_traits@D@std@@@std@@MAEHH@Z 00426990 f i Psydp3Engine.obj
 0001:00025b40       ?push_back@?$basic_string@DU?$char_traits@D@std@@V?$allocator@D@2@@std@@QAEXD@Z 00426b40 f i Psydp3Engine.obj
 0001:00025bf0       ?release@?$unique_ptr@V_Facet_base@std@@U?$default_delete@V_Facet_base@std@@@2@@std@@QAEPAV_Facet_base@2@XZ 00426bf0 f i Psydp3Engine.obj
 0001:00025c20       ?seekoff@?$basic_filebuf@DU?$char_traits@D@std@@@std@@MAE?AV?$fpos@U_Mbstatet@@@2@_JHH@Z 00426c20 f i Psydp3Engine.obj
 0001:00025d30       ?seekpos@?$basic_filebuf@DU?$char_traits@D@std@@@std@@MAE?AV?$fpos@U_Mbstatet@@@2@V32@H@Z 00426d30 f i Psydp3Engine.obj
 0001:00025e00       ?setMapSize@TileManager@@QAEXHH@Z 00426e00 f i Psydp3Engine.obj
 0001:00025eb0       ?setbuf@?$basic_filebuf@DU?$char_traits@D@std@@@std@@MAEPAV?$basic_streambuf@DU?$char_traits@D@std@@@2@PAD_J@Z 00426eb0 f i Psydp3Engine.obj
 0001:00025f50       ?state@?$fpos@U_Mbstatet@@@std@@QBE?AU_Mbstatet@@XZ 00426f50 f i Psydp3Engine.obj
 0001:00025f80       ?sync@?$basic_filebuf@DU?$char_traits@D@std@@@std@@MAEHXZ 00426f80 f i Psydp3Engine.obj
 0001:00026000       ?to_char_type@?$_Narrow_char_traits@DH@std@@SADABH@Z 00427000 f i Psydp3Engine.obj
 0001:00026010       ?to_int_type@?$_Narrow_char_traits@DH@std@@SAHABD@Z 00427010 f i Psydp3Engine.obj
 0001:00026020       ?uflow@?$basic_filebuf@DU?$char_traits@D@std@@@std@@MAEHXZ 00427020 f i Psydp3Engine.obj
 0001:00026330       ?underflow@?$basic_filebuf@DU?$char_traits@D@std@@@std@@MAEHXZ 00427330 f i Psydp3Engine.obj
 0001:000263f0       ?unlockBackgroundForDrawing@BaseEngine@@QAEXXZ 004273f0 f i Psydp3Engine.obj
 0001:00026410       ?xsgetn@?$basic_filebuf@DU?$char_traits@D@std@@@std@@MAE_JPAD_J@Z 00427410 f i Psydp3Engine.obj
 0001:000265d0       ?xsputn@?$basic_filebuf@DU?$char_traits@D@std@@@std@@MAE_JPBD_J@Z 004275d0 f i Psydp3Engine.obj
 0001:00026730       ?virtDraw@Attack@@UAEXXZ   00427730 f   Attack.obj
 0001:000268e0       ?virtDoUpdate@Attack@@UAEXH@Z 004278e0 f   Attack.obj
 0001:00026c40       ??$_Find_unchecked@PAPAVDisplayableObject@@PAV1@@std@@YAPAPAVDisplayableObject@@PAPAV1@QAPAV1@ABQAV1@@Z 00427c40 f i Attack.obj
 0001:00026cf0       ??$_Get_unwrapped@ABV?$_Vector_iterator@V?$_Vector_val@U?$_Simple_types@PAVDisplayableObject@@@std@@@std@@@std@@@std@@YA?A_TABV?$_Vector_iterator@V?$_Vector_val@U?$_Simple_types@PAVDisplayableObject@@@std@@@std@@@0@@Z 00427cf0 f i Attack.obj
 0001:00026d00       ??$_Move_unchecked@PAPAVDisplayableObject@@PAPAV1@@std@@YAPAPAVDisplayableObject@@PAPAV1@00@Z 00427d00 f i Attack.obj
 0001:00026d70       ??$_Refancy@PAPAVDisplayableObject@@$0A@@std@@YAPAPAVDisplayableObject@@PAPAV1@@Z 00427d70 f i Attack.obj
 0001:00026d80       ??$_Seek_wrapped@V?$_Vector_iterator@V?$_Vector_val@U?$_Simple_types@PAVDisplayableObject@@@std@@@std@@@std@@PAPAVDisplayableObject@@@std@@YAXAAV?$_Vector_iterator@V?$_Vector_val@U?$_Simple_types@PAVDisplayableObject@@@std@@@std@@@0@$$QAPAPAVDisplayableObject@@@Z 00427d80 f i Attack.obj
 0001:00026db0       ??$_Within_limits@PAPAVDisplayableObject@@PAV1@@std@@YA_NABQAPAVDisplayableObject@@ABQAV1@@Z 00427db0 f i Attack.obj
 0001:00026dc0       ??$__std_find_trivial@PAVDisplayableObject@@I@@YAPAPAVDisplayableObject@@PAPAV0@0I@Z 00427dc0 f i Attack.obj
 0001:00026de0       ??$__std_find_trivial@PAVDisplayableObject@@PAV1@@@YAPAPAVDisplayableObject@@PAPAV0@0QAV0@@Z 00427de0 f i Attack.obj
 0001:00026e00       ??$destroy@PAVDisplayableObject@@@?$_Default_allocator_traits@V?$allocator@PAVDisplayableObject@@@std@@@std@@SAXAAV?$allocator@PAVDisplayableObject@@@1@QAPAVDisplayableObject@@@Z 00427e00 f i Attack.obj
 0001:00026e10       ??$find@V?$_Vector_iterator@V?$_Vector_val@U?$_Simple_types@PAVDisplayableObject@@@std@@@std@@@std@@PAVDisplayableObject@@@std@@YA?AV?$_Vector_iterator@V?$_Vector_val@U?$_Simple_types@PAVDisplayableObject@@@std@@@std@@@0@V10@V10@ABQAVDisplayableObject@@@Z 00427e10 f i Attack.obj
 0001:00026f30       ??$forward@PAPAVDisplayableObject@@@std@@YA$$QAPAPAVDisplayableObject@@AAPAPAV1@@Z 00427f30 f i Attack.obj
 0001:00026f40       ?_Seek_to@?$_Vector_const_iterator@V?$_Vector_val@U?$_Simple_types@PAVDisplayableObject@@@std@@@std@@@std@@QAEXPBQAVDisplayableObject@@@Z 00427f40 f i Attack.obj
 0001:00026f70       ?erase@?$vector@PAVDisplayableObject@@V?$allocator@PAVDisplayableObject@@@std@@@std@@QAE?AV?$_Vector_iterator@V?$_Vector_val@U?$_Simple_types@PAVDisplayableObject@@@std@@@std@@@2@V?$_Vector_const_iterator@V?$_Vector_val@U?$_Simple_types@PAVDisplayableObject@@@std@@@std@@@2@@Z 00427f70 f i Attack.obj
 0001:00027120       ?removeDisplayableObject@DisplayableObjectContainer@@QAE_NPAVDisplayableObject@@@Z 00428120 f i Attack.obj
 0001:00027230       ?virtSetupBackgroundBuffer@RunningState@@UAEXXZ 00428230 f   RunningState.obj
 0001:000272f0       ?virtInitialiseObjects@RunningState@@UAEXXZ 004282f0 f   RunningState.obj
 0001:000274d0       ?virtKeyDown@RunningState@@UAEXH@Z 004284d0 f   RunningState.obj
 0001:000277a0       ?virtDrawStringsUnderneath@RunningState@@UAEXXZ 004287a0 f   RunningState.obj
 0001:00027a20       ?virtMainLoopDoBeforeUpdate@RunningState@@UAEXXZ 00428a20 f   RunningState.obj
 0001:00027b10       ?copyAllBackgroundBuffer@RunningState@@UAEXXZ 00428b10 f   RunningState.obj
 0001:00027be0       ?virtCreateSurfaces@RunningState@@UAEXXZ 00428be0 f   RunningState.obj
 0001:00027c40       ?virtKeyUp@RunningState@@UAEXH@Z 00428c40 f   RunningState.obj
 0001:00027c70       ?virtMouseDown@RunningState@@UAEXHHH@Z 00428c70 f   RunningState.obj
 0001:00027d40       ??1RunningState@@UAE@XZ    00428d40 f   RunningState.obj
 0001:000280a0       ??0Enemy@@QAE@PAVBaseEngine@@AAH@Z 004290a0 f i RunningState.obj
 0001:000281b0       ??0LoseState@@QAE@PAVPsydp3Engine@@@Z 004291b0 f i RunningState.obj
 0001:000282c0       ??0MST@@QAE@PAVBaseEngine@@@Z 004292c0 f i RunningState.obj
 0001:00028300       ??0PauseSymbol@@QAE@PAVBaseEngine@@@Z 00429300 f i RunningState.obj
 0001:00028350       ??0Player@@QAE@PAVBaseEngine@@AAH@Z 00429350 f i RunningState.obj
 0001:00028450       ??0WinState@@QAE@PAVPsydp3Engine@@@Z 00429450 f i RunningState.obj
 0001:00028480       ??1Enemy@@UAE@XZ           00429480 f i RunningState.obj
 0001:000284a0       ??1MST@@UAE@XZ             004294a0 f i RunningState.obj
 0001:000284c0       ??1PauseSymbol@@UAE@XZ     004294c0 f i RunningState.obj
 0001:000284e0       ??1Player@@UAE@XZ          004294e0 f i RunningState.obj
 0001:00028500       ??1WinState@@UAE@XZ        00429500 f i RunningState.obj
 0001:00028520       ??E?$_Vector_const_iterator@V?$_Vector_val@U?$_Simple_types@PAVDisplayableObject@@@std@@@std@@@std@@QAE?AV01@H@Z 00429520 f i RunningState.obj
 0001:00028570       ??_EEnemy@@UAEPAXI@Z       00429570 f i RunningState.obj
 0001:00028570       ??_GEnemy@@UAEPAXI@Z       00429570 f i RunningState.obj
 0001:000285b0       ??_EMST@@UAEPAXI@Z         004295b0 f i RunningState.obj
 0001:000285b0       ??_GMST@@UAEPAXI@Z         004295b0 f i RunningState.obj
 0001:000285f0       ??_EPauseSymbol@@UAEPAXI@Z 004295f0 f i RunningState.obj
 0001:000285f0       ??_GPauseSymbol@@UAEPAXI@Z 004295f0 f i RunningState.obj
 0001:00028630       ??_EPlayer@@UAEPAXI@Z      00429630 f i RunningState.obj
 0001:00028630       ??_GPlayer@@UAEPAXI@Z      00429630 f i RunningState.obj
 0001:00028670       ??_ERunningState@@UAEPAXI@Z 00429670 f i RunningState.obj
 0001:00028670       ??_GRunningState@@UAEPAXI@Z 00429670 f i RunningState.obj
 0001:000286b0       ??_EWinState@@UAEPAXI@Z    004296b0 f i RunningState.obj
 0001:000286b0       ??_GWinState@@UAEPAXI@Z    004296b0 f i RunningState.obj
 0001:000286f0       ?convertClickedToVirtualPixelXPosition@BaseEngine@@QAEHH@Z 004296f0 f i RunningState.obj
 0001:00028720       ?convertClickedToVirtualPixelYPosition@BaseEngine@@QAEHH@Z 00429720 f i RunningState.obj
 0001:00028750       ?pause@BaseEngine@@QAEXXZ  00429750 f i RunningState.obj
 0001:00028780       ?setAllObjectsVisible@DisplayableObjectContainer@@QBEX_N@Z 00429780 f i RunningState.obj
 0001:00028880       ?unpause@BaseEngine@@QAEXXZ 00429880 f i RunningState.obj
 0001:000288d0       ?filter@ScrollPoints@@UAE_NPAVDrawingSurface@@AAH1AAI@Z 004298d0 f   ScrollPoints.obj
 0001:00028920       ?filterConvertRealToVirtualYPosition@ScrollPoints@@UAEHH@Z 00429920 f   ScrollPoints.obj
 0001:00028950       ?filterConvertRealToVirtualXPosition@ScrollPoints@@UAEHH@Z 00429950 f   ScrollPoints.obj
 0001:00028980       ?filterConvertVirtualToRealYPosition@ScrollPoints@@UAEHH@Z 00429980 f   ScrollPoints.obj
 0001:000289b0       ?filterConvertVirtualToRealXPosition@ScrollPoints@@UAEHH@Z 004299b0 f   ScrollPoints.obj
 0001:00028a20       ?mapCoordinates@CroppedImagePixelMapping@@UAE_NAAN0ABVSimpleImage@@@Z 00429a20 f i SimpleImage.obj
 0001:00028ac0       ??0SimpleImage@@QAE@XZ     00429ac0 f   SimpleImage.obj
 0001:00028af0       ??0SimpleImage@@QAE@V?$shared_ptr@VRawImageData@@@std@@@Z 00429af0 f   SimpleImage.obj
 0001:00028b30       ?exists@SimpleImage@@QBE_NXZ 00429b30 f   SimpleImage.obj
 0001:00028b50       ?renderImage@SimpleImage@@QBEXPAVDrawingSurface@@HHHHHH@Z 00429b50 f   SimpleImage.obj
 0001:00028c60       ?renderImageWithMask@SimpleImage@@QBEXPAVDrawingSurface@@HHHHHHH@Z 00429c60 f   SimpleImage.obj
 0001:00028da0       ?renderImageWithMaskAndTransparency@SimpleImage@@QBEXPAVDrawingSurface@@HHHHHHHH@Z 00429da0 f   SimpleImage.obj
 0001:00028f70       ?renderImageBlit@SimpleImage@@QAEXPAVBaseEngine@@PAVDrawingSurface@@HHHHHHHH@Z 00429f70 f   SimpleImage.obj
 0001:00029220       ?adjustXYWidthHeight@SimpleImage@@SA_NPAVDrawingSurface@@AAH11111@Z 0042a220 f   SimpleImage.obj
 0001:00029420       ?renderImageApplyingMapping@SimpleImage@@QBEXPAVBaseEngine@@PAVDrawingSurface@@HHHHPAVImagePixelMapping@@@Z 0042a420 f   SimpleImage.obj
 0001:00029a30       ??BDrawingSurface@@QAEPAUSDL_Surface@@XZ 0042aa30 f i SimpleImage.obj
 0001:00029a50       ?getSurface@RawImageData@@QAEPAUSDL_Surface@@XZ 0042aa50 f i SimpleImage.obj
 0001:00029a70       ?rawGetPixel@DrawingSurface@@QBEIHH@Z 0042aa70 f i SimpleImage.obj
 0001:00029ae0       ?virtSetupBackgroundBuffer@SimpleDemo@@UAEXXZ 0042aae0 f   SimpleDemo.obj
 0001:00029c20       ?virtInitialiseObjects@SimpleDemo@@UAEHXZ 0042ac20 f   SimpleDemo.obj
 0001:00029da0       ?virtDrawStringsUnderneath@SimpleDemo@@UAEXXZ 0042ada0 f   SimpleDemo.obj
 0001:00029e20       ?virtDrawStringsOnTop@SimpleDemo@@UAEXXZ 0042ae20 f   SimpleDemo.obj
 0001:00029ee0       ?virtMouseDown@SimpleDemo@@UAEXHHH@Z 0042aee0 f   SimpleDemo.obj
 0001:00029f00       ?virtKeyDown@SimpleDemo@@UAEXH@Z 0042af00 f   SimpleDemo.obj
 0001:0002a070       ??0BouncingObject@@QAE@PAVBaseEngine@@HHNNNN@Z 0042b070 f i SimpleDemo.obj
 0001:0002a140       ??1BouncingObject@@UAE@XZ  0042b140 f i SimpleDemo.obj
 0001:0002a160       ??_EBouncingObject@@UAEPAXI@Z 0042b160 f i SimpleDemo.obj
 0001:0002a160       ??_GBouncingObject@@UAEPAXI@Z 0042b160 f i SimpleDemo.obj
 0001:0002a1a0       ?virtDoUpdate@BouncingObject@@UAEXH@Z 0042b1a0 f i SimpleDemo.obj
 0001:0002a5a0       ?virtDraw@BouncingObject@@UAEXXZ 0042b5a0 f i SimpleDemo.obj
 0001:0002a640       ?virtDraw@Slider@@UAEXXZ   0042b640 f   Slider.obj
 0001:0002a690       ?virtDoUpdate@Slider@@UAEXH@Z 0042b690 f   Slider.obj
 0001:0002a7e0       ?drawForegroundOval@BaseEngine@@QAEXHHHHI@Z 0042b7e0 f i Slider.obj
 0001:0002a820       ?getMapXForScreenX@TileManager@@QBEHH@Z 0042b820 f i Slider.obj
 0001:0002a850       ?setAndRedrawMapValueAt@TileManager@@QAEXHHHPAVBaseEngine@@PAVDrawingSurface@@@Z 0042b850 f i Slider.obj
 0001:0002a8f0       ?setMapValue@TileManager@@QAEHHHH@Z 0042b8f0 f i Slider.obj
 0001:0002a930       ??0StarfieldDemo@@QAE@XZ   0042b930 f   StarfieldDemo.obj
 0001:0002a970       ??1StarfieldDemo@@UAE@XZ   0042b970 f   StarfieldDemo.obj
 0001:0002a9a0       ?virtSetupBackgroundBuffer@StarfieldDemo@@UAEXXZ 0042b9a0 f   StarfieldDemo.obj
 0001:0002aae0       ?virtMainLoopDoBeforeUpdate@StarfieldDemo@@UAEXXZ 0042bae0 f   StarfieldDemo.obj
 0001:0002ab20       ?copyAllBackgroundBuffer@StarfieldDemo@@UAEXXZ 0042bb20 f   StarfieldDemo.obj
 0001:0002ac60       ??_EStarfieldDemo@@UAEPAXI@Z 0042bc60 f i StarfieldDemo.obj
 0001:0002ac60       ??_GStarfieldDemo@@UAEPAXI@Z 0042bc60 f i StarfieldDemo.obj
 0001:0002aca0       ?virtSetupBackgroundBuffer@StartupState@@UAEXXZ 0042bca0 f   StartupState.obj
 0001:0002ae80       ?virtKeyDown@StartupState@@UAEXH@Z 0042be80 f   StartupState.obj
 0001:0002b160       ?virtDrawStringsUnderneath@StartupState@@UAEXXZ 0042c160 f   StartupState.obj
 0001:0002b220       ?virtMouseDown@StartupState@@UAEXHHH@Z 0042c220 f   StartupState.obj
 0001:0002b300       ?virtInitialiseObjects@StartupState@@UAEXXZ 0042c300 f   StartupState.obj
 0001:0002b3d0       ?copyAllBackgroundBuffer@StartupState@@UAEXXZ 0042c3d0 f   StartupState.obj
 0001:0002b400       ?virtCreateSurfaces@StartupState@@UAEXXZ 0042c400 f   StartupState.obj
 0001:0002b460       ??5@YAAAV?$basic_ifstream@DU?$char_traits@D@std@@@std@@AAV01@AAVNumberTiles@@@Z 0042c460 f   StartupState.obj
 0001:0002b590       ??6@YAAAV?$basic_ofstream@DU?$char_traits@D@std@@@std@@AAV01@AAVNumberTiles@@@Z 0042c590 f   StartupState.obj
 0001:0002b870       ??$?0$$V@?$_Compressed_pair@V?$allocator@V?$basic_string@DU?$char_traits@D@std@@V?$allocator@D@2@@std@@@std@@V?$_Vector_val@U?$_Simple_types@V?$basic_string@DU?$char_traits@D@std@@V?$allocator@D@2@@std@@@std@@@2@$00@std@@QAE@U_Zero_then_variadic_args_t@1@@Z 0042c870 f i StartupState.obj
 0001:0002b8a0       ??$?0V?$basic_string@DU?$char_traits@D@std@@V?$allocator@D@2@@std@@@?$allocator@U_Container_proxy@std@@@std@@QAE@ABV?$allocator@V?$basic_string@DU?$char_traits@D@std@@V?$allocator@D@2@@std@@@1@@Z 0042c8a0 f i StartupState.obj
 0001:0002b8c0       ??$?5DU?$char_traits@D@std@@V?$allocator@D@1@@std@@YAAAV?$basic_istream@DU?$char_traits@D@std@@@0@AAV10@AAV?$basic_string@DU?$char_traits@D@std@@V?$allocator@D@2@@0@@Z 0042c8c0 f i StartupState.obj
 0001:0002bbf0       ??$_Destroy_range@V?$allocator@V?$basic_string@DU?$char_traits@D@std@@V?$allocator@D@2@@std@@@std@@@std@@YAXPAV?$basic_string@DU?$char_traits@D@std@@V?$allocator@D@2@@0@QAV10@AAV?$allocator@V?$basic_string@DU?$char_traits@D@std@@V?$allocator@D@2@@std@@@0@@Z 0042cbf0 f i StartupState.obj
 0001:0002bc70       ??$_Emplace_back@V?$basic_string@DU?$char_traits@D@std@@V?$allocator@D@2@@std@@@?$_Uninitialized_backout_al@V?$allocator@V?$basic_string@DU?$char_traits@D@std@@V?$allocator@D@2@@std@@@std@@@std@@QAEX$$QAV?$basic_string@DU?$char_traits@D@std@@V?$allocator@D@2@@1@@Z 0042cc70 f i StartupState.obj
 0001:0002bcd0       ??$_Emplace_back_with_unused_capacity@ABV?$basic_string@DU?$char_traits@D@std@@V?$allocator@D@2@@std@@@?$vector@V?$basic_string@DU?$char_traits@D@std@@V?$allocator@D@2@@std@@V?$allocator@V?$basic_string@DU?$char_traits@D@std@@V?$allocator@D@2@@std@@@2@@std@@AAEAAV?$basic_string@DU?$char_traits@D@std@@V?$allocator@D@2@@1@ABV21@@Z 0042ccd0 f i StartupState.obj
 0001:0002bd70       ??$_Emplace_one_at_back@ABV?$basic_string@DU?$char_traits@D@std@@V?$allocator@D@2@@std@@@?$vector@V?$basic_string@DU?$char_traits@D@std@@V?$allocator@D@2@@std@@V?$allocator@V?$basic_string@DU?$char_traits@D@std@@V?$allocator@D@2@@std@@@2@@std@@AAEAAV?$basic_string@DU?$char_traits@D@std@@V?$allocator@D@2@@1@ABV21@@Z 0042cd70 f i StartupState.obj
 0001:0002bdf0       ??$_Emplace_reallocate@ABV?$basic_string@DU?$char_traits@D@std@@V?$allocator@D@2@@std@@@?$vector@V?$basic_string@DU?$char_traits@D@std@@V?$allocator@D@2@@std@@V?$allocator@V?$basic_string@DU?$char_traits@D@std@@V?$allocator@D@2@@std@@@2@@std@@AAEPAV?$basic_string@DU?$char_traits@D@std@@V?$allocator@D@2@@1@QAV21@ABV21@@Z 0042cdf0 f i StartupState.obj
 0001:0002c060       ??$_Get_size_of_n@$0BM@@std@@YAII@Z 0042d060 f i StartupState.obj
 0001:0002c090       ??$_Get_unwrapped@ABQAV?$basic_string@DU?$char_traits@D@std@@V?$allocator@D@2@@std@@@std@@YA?A_TABQAV?$basic_string@DU?$char_traits@D@std@@V?$allocator@D@2@@0@@Z 0042d090 f i StartupState.obj
 0001:0002c0a0       ??$_Unfancy@V?$basic_string@DU?$char_traits@D@std@@V?$allocator@D@2@@std@@@std@@YAPAV?$basic_string@DU?$char_traits@D@std@@V?$allocator@D@2@@0@PAV10@@Z 0042d0a0 f i StartupState.obj
 0001:0002c0b0       ??$_Uninitialized_move@PAV?$basic_string@DU?$char_traits@D@std@@V?$allocator@D@2@@std@@V?$allocator@V?$basic_string@DU?$char_traits@D@std@@V?$allocator@D@2@@std@@@2@@std@@YAPAV?$basic_string@DU?$char_traits@D@std@@V?$allocator@D@2@@0@QAV10@0PAV10@AAV?$allocator@V?$basic_string@DU?$char_traits@D@std@@V?$allocator@D@2@@std@@@0@@Z 0042d0b0 f i StartupState.obj
 0001:0002c190       ??$_Voidify_iter@PAV?$basic_string@DU?$char_traits@D@std@@V?$allocator@D@2@@std@@@std@@YAPAXPAV?$basic_string@DU?$char_traits@D@std@@V?$allocator@D@2@@0@@Z 0042d190 f i StartupState.obj
 0001:0002c1a0       ??$construct@V?$basic_string@DU?$char_traits@D@std@@V?$allocator@D@2@@std@@ABV12@@?$_Default_allocator_traits@V?$allocator@V?$basic_string@DU?$char_traits@D@std@@V?$allocator@D@2@@std@@@std@@@std@@SAXAAV?$allocator@V?$basic_string@DU?$char_traits@D@std@@V?$allocator@D@2@@std@@@1@QAV?$basic_string@DU?$char_traits@D@std@@V?$allocator@D@2@@1@ABV31@@Z 0042d1a0 f i StartupState.obj
 0001:0002c1f0       ??$construct@V?$basic_string@DU?$char_traits@D@std@@V?$allocator@D@2@@std@@V12@@?$_Default_allocator_traits@V?$allocator@V?$basic_string@DU?$char_traits@D@std@@V?$allocator@D@2@@std@@@std@@@std@@SAXAAV?$allocator@V?$basic_string@DU?$char_traits@D@std@@V?$allocator@D@2@@std@@@1@QAV?$basic_string@DU?$char_traits@D@std@@V?$allocator@D@2@@1@$$QAV31@@Z 0042d1f0 f i StartupState.obj
 0001:0002c240       ??$destroy@V?$basic_string@DU?$char_traits@D@std@@V?$allocator@D@2@@std@@@?$_Default_allocator_traits@V?$allocator@V?$basic_string@DU?$char_traits@D@std@@V?$allocator@D@2@@std@@@std@@@std@@SAXAAV?$allocator@V?$basic_string@DU?$char_traits@D@std@@V?$allocator@D@2@@std@@@1@QAV?$basic_string@DU?$char_traits@D@std@@V?$allocator@D@2@@1@@Z 0042d240 f i StartupState.obj
 0001:0002c260       ??$emplace_back@ABV?$basic_string@DU?$char_traits@D@std@@V?$allocator@D@2@@std@@@?$vector@V?$basic_string@DU?$char_traits@D@std@@V?$allocator@D@2@@std@@V?$allocator@V?$basic_string@DU?$char_traits@D@std@@V?$allocator@D@2@@std@@@2@@std@@QAE?A_TABV?$basic_string@DU?$char_traits@D@std@@V?$allocator@D@2@@1@@Z 0042d260 f i StartupState.obj
 0001:0002c290       ??$forward@ABV?$basic_string@DU?$char_traits@D@std@@V?$allocator@D@2@@std@@@std@@YAABV?$basic_string@DU?$char_traits@D@std@@V?$allocator@D@2@@0@ABV10@@Z 0042d290 f i StartupState.obj
 0001:0002c2a0       ??$move@AAV?$basic_string@DU?$char_traits@D@std@@V?$allocator@D@2@@std@@@std@@YA$$QAV?$basic_string@DU?$char_traits@D@std@@V?$allocator@D@2@@0@AAV10@@Z 0042d2a0 f i StartupState.obj
 0001:0002c2b0       ??$use_facet@V?$ctype@D@std@@@std@@YAABV?$ctype@D@0@ABVlocale@0@@Z 0042d2b0 f i StartupState.obj
 0001:0002c400       ??0?$_Uninitialized_backout_al@V?$allocator@V?$basic_string@DU?$char_traits@D@std@@V?$allocator@D@2@@std@@@std@@@std@@QAE@PAV?$basic_string@DU?$char_traits@D@std@@V?$allocator@D@2@@1@AAV?$allocator@V?$basic_string@DU?$char_traits@D@std@@V?$allocator@D@2@@std@@@1@@Z 0042d400 f i StartupState.obj
 0001:0002c440       ??0?$_Vector_val@U?$_Simple_types@V?$basic_string@DU?$char_traits@D@std@@V?$allocator@D@2@@std@@@std@@@std@@QAE@XZ 0042d440 f i StartupState.obj
 0001:0002c490       ??0?$allocator@V?$basic_string@DU?$char_traits@D@std@@V?$allocator@D@2@@std@@@std@@QAE@XZ 0042d490 f i StartupState.obj
 0001:0002c4b0       ??0?$basic_ifstream@DU?$char_traits@D@std@@@std@@QAE@XZ 0042d4b0 f i StartupState.obj
 0001:0002c5c0       ??0?$vector@V?$basic_string@DU?$char_traits@D@std@@V?$allocator@D@2@@std@@V?$allocator@V?$basic_string@DU?$char_traits@D@std@@V?$allocator@D@2@@std@@@2@@std@@QAE@XZ 0042d5c0 f i StartupState.obj
 0001:0002c640       ??0RunningState@@QAE@PAVPsydp3Engine@@@Z 0042d640 f i StartupState.obj
 0001:0002c690       ??0Slider@@QAE@PAVBaseEngine@@PAVTileManager@@@Z 0042d690 f i StartupState.obj
 0001:0002c6f0       ??0_Sentry_base@?$basic_istream@DU?$char_traits@D@std@@@std@@QAE@AAV12@@Z 0042d6f0 f i StartupState.obj
 0001:0002c750       ??0sentry@?$basic_istream@DU?$char_traits@D@std@@@std@@QAE@AAV12@_N@Z 0042d750 f i StartupState.obj
 0001:0002c7e0       ??1?$_Uninitialized_backout_al@V?$allocator@V?$basic_string@DU?$char_traits@D@std@@V?$allocator@D@2@@std@@@std@@@std@@QAE@XZ 0042d7e0 f i StartupState.obj
 0001:0002c810       ??1?$basic_ifstream@DU?$char_traits@D@std@@@std@@UAE@XZ 0042d810 f i StartupState.obj
 0001:0002c880       ??1?$vector@V?$basic_string@DU?$char_traits@D@std@@V?$allocator@D@2@@std@@V?$allocator@V?$basic_string@DU?$char_traits@D@std@@V?$allocator@D@2@@std@@@2@@std@@QAE@XZ 0042d880 f i StartupState.obj
 0001:0002c8f0       ??1Slider@@UAE@XZ          0042d8f0 f i StartupState.obj
 0001:0002c910       ??1_Sentry_base@?$basic_istream@DU?$char_traits@D@std@@@std@@QAE@XZ 0042d910 f i StartupState.obj
 0001:0002c9a0       ??1sentry@?$basic_istream@DU?$char_traits@D@std@@@std@@QAE@XZ 0042d9a0 f i StartupState.obj
 0001:0002c9c0       ??A?$basic_string@DU?$char_traits@D@std@@V?$allocator@D@2@@std@@QAEAADI@Z 0042d9c0 f i StartupState.obj
 0001:0002ca50       ??A?$vector@V?$basic_string@DU?$char_traits@D@std@@V?$allocator@D@2@@std@@V?$allocator@V?$basic_string@DU?$char_traits@D@std@@V?$allocator@D@2@@std@@@2@@std@@QAEAAV?$basic_string@DU?$char_traits@D@std@@V?$allocator@D@2@@1@I@Z 0042da50 f i StartupState.obj
 0001:0002cb00       ??Bsentry@?$basic_istream@DU?$char_traits@D@std@@@std@@QBE_NXZ 0042db00 f i StartupState.obj
 0001:0002cb20       ??Y?$basic_string@DU?$char_traits@D@std@@V?$allocator@D@2@@std@@QAEAAV01@D@Z 0042db20 f i StartupState.obj
 0001:0002cb50       ??_D?$basic_ifstream@DU?$char_traits@D@std@@@std@@QAEXXZ 0042db50 f i StartupState.obj
 0001:0002cb7a       ??_E?$basic_ifstream@DU?$char_traits@D@std@@@std@@$4PPPPPPPM@A@AEPAXI@Z 0042db7a f i StartupState.obj
 0001:0002cb90       ??_E?$basic_ifstream@DU?$char_traits@D@std@@@std@@UAEPAXI@Z 0042db90 f i StartupState.obj
 0001:0002cb90       ??_G?$basic_ifstream@DU?$char_traits@D@std@@@std@@UAEPAXI@Z 0042db90 f i StartupState.obj
 0001:0002cbe0       ??_G?$basic_string@DU?$char_traits@D@std@@V?$allocator@D@2@@std@@QAEPAXI@Z 0042dbe0 f i StartupState.obj
 0001:0002cc20       ??_ESlider@@UAEPAXI@Z      0042dc20 f i StartupState.obj
 0001:0002cc20       ??_GSlider@@UAEPAXI@Z      0042dc20 f i StartupState.obj
 0001:0002cc60       ?_Calculate_growth@?$vector@V?$basic_string@DU?$char_traits@D@std@@V?$allocator@D@2@@std@@V?$allocator@V?$basic_string@DU?$char_traits@D@std@@V?$allocator@D@2@@std@@@2@@std@@ABEII@Z 0042dc60 f i StartupState.obj
 0001:0002ccd0       ?_Change_array@?$vector@V?$basic_string@DU?$char_traits@D@std@@V?$allocator@D@2@@std@@V?$allocator@V?$basic_string@DU?$char_traits@D@std@@V?$allocator@D@2@@std@@@2@@std@@AAEXQAV?$basic_string@DU?$char_traits@D@std@@V?$allocator@D@2@@2@II@Z 0042dcd0 f i StartupState.obj
 0001:0002cda0       ?_Eos@?$basic_string@DU?$char_traits@D@std@@V?$allocator@D@2@@std@@AAEXI@Z 0042dda0 f i StartupState.obj
 0001:0002cdf0       ?_Get_first@?$_Compressed_pair@V?$allocator@V?$basic_string@DU?$char_traits@D@std@@V?$allocator@D@2@@std@@@std@@V?$_Vector_val@U?$_Simple_types@V?$basic_string@DU?$char_traits@D@std@@V?$allocator@D@2@@std@@@std@@@2@$00@std@@QAEAAV?$allocator@V?$basic_string@DU?$char_traits@D@std@@V?$allocator@D@2@@std@@@2@XZ 0042ddf0 f i StartupState.obj
 0001:0002ce10       ?_Get_first@?$_Compressed_pair@V?$allocator@V?$basic_string@DU?$char_traits@D@std@@V?$allocator@D@2@@std@@@std@@V?$_Vector_val@U?$_Simple_types@V?$basic_string@DU?$char_traits@D@std@@V?$allocator@D@2@@std@@@std@@@2@$00@std@@QBEABV?$allocator@V?$basic_string@DU?$char_traits@D@std@@V?$allocator@D@2@@std@@@2@XZ 0042de10 f i StartupState.obj
 0001:0002ce30       ?_Getal@?$vector@V?$basic_string@DU?$char_traits@D@std@@V?$allocator@D@2@@std@@V?$allocator@V?$basic_string@DU?$char_traits@D@std@@V?$allocator@D@2@@std@@@2@@std@@AAEAAV?$allocator@V?$basic_string@DU?$char_traits@D@std@@V?$allocator@D@2@@std@@@2@XZ 0042de30 f i StartupState.obj
 0001:0002ce50       ?_Getal@?$vector@V?$basic_string@DU?$char_traits@D@std@@V?$allocator@D@2@@std@@V?$allocator@V?$basic_string@DU?$char_traits@D@std@@V?$allocator@D@2@@std@@@2@@std@@ABEABV?$allocator@V?$basic_string@DU?$char_traits@D@std@@V?$allocator@D@2@@std@@@2@XZ 0042de50 f i StartupState.obj
 0001:0002ce70       ?_Orphan_range@?$vector@V?$basic_string@DU?$char_traits@D@std@@V?$allocator@D@2@@std@@V?$allocator@V?$basic_string@DU?$char_traits@D@std@@V?$allocator@D@2@@std@@@2@@std@@ABEXPAV?$basic_string@DU?$char_traits@D@std@@V?$allocator@D@2@@2@0@Z 0042de70 f i StartupState.obj
 0001:0002cea0       ?_Orphan_range_locked@?$vector@V?$basic_string@DU?$char_traits@D@std@@V?$allocator@D@2@@std@@V?$allocator@V?$basic_string@DU?$char_traits@D@std@@V?$allocator@D@2@@std@@@2@@std@@ABEXPAV?$basic_string@DU?$char_traits@D@std@@V?$allocator@D@2@@2@0@Z 0042dea0 f i StartupState.obj
 0001:0002cf30       ?_Orphan_range_unlocked@?$vector@V?$basic_string@DU?$char_traits@D@std@@V?$allocator@D@2@@std@@V?$allocator@V?$basic_string@DU?$char_traits@D@std@@V?$allocator@D@2@@std@@@2@@std@@ABEXPAV?$basic_string@DU?$char_traits@D@std@@V?$allocator@D@2@@2@0@Z 0042df30 f i StartupState.obj
 0001:0002cfc0       ?_Release@?$_Uninitialized_backout_al@V?$allocator@V?$basic_string@DU?$char_traits@D@std@@V?$allocator@D@2@@std@@@std@@@std@@QAEPAV?$basic_string@DU?$char_traits@D@std@@V?$allocator@D@2@@2@XZ 0042dfc0 f i StartupState.obj
 0001:0002cff0       ?_Tidy@?$vector@V?$basic_string@DU?$char_traits@D@std@@V?$allocator@D@2@@std@@V?$allocator@V?$basic_string@DU?$char_traits@D@std@@V?$allocator@D@2@@std@@@2@@std@@AAEXXZ 0042dff0 f i StartupState.obj
 0001:0002d0f0       ?_Xlength@?$vector@V?$basic_string@DU?$char_traits@D@std@@V?$allocator@D@2@@std@@V?$allocator@V?$basic_string@DU?$char_traits@D@std@@V?$allocator@D@2@@std@@@2@@std@@CAXXZ 0042e0f0 f i StartupState.obj
 0001:0002d110       ?allocate@?$allocator@V?$basic_string@DU?$char_traits@D@std@@V?$allocator@D@2@@std@@@std@@QAEPAV?$basic_string@DU?$char_traits@D@std@@V?$allocator@D@2@@2@I@Z 0042e110 f i StartupState.obj
 0001:0002d140       ?capacity@?$vector@V?$basic_string@DU?$char_traits@D@std@@V?$allocator@D@2@@std@@V?$allocator@V?$basic_string@DU?$char_traits@D@std@@V?$allocator@D@2@@std@@@2@@std@@QBEIXZ 0042e140 f i StartupState.obj
 0001:0002d170       ?close@?$basic_ifstream@DU?$char_traits@D@std@@@std@@QAEXXZ 0042e170 f i StartupState.obj
 0001:0002d1b0       ?deallocate@?$allocator@V?$basic_string@DU?$char_traits@D@std@@V?$allocator@D@2@@std@@@std@@QAEXQAV?$basic_string@DU?$char_traits@D@std@@V?$allocator@D@2@@2@I@Z 0042e1b0 f i StartupState.obj
 0001:0002d250       ?drawBackgroundString@BaseEngine@@QAEXHHPBDIPAVFont@@@Z 0042e250 f i StartupState.obj
 0001:0002d290       ?erase@?$basic_string@DU?$char_traits@D@std@@V?$allocator@D@2@@std@@QAEAAV12@I@Z 0042e290 f i StartupState.obj
 0001:0002d2d0       ?getMapHeight@TileManager@@QBEHXZ 0042e2d0 f i StartupState.obj
 0001:0002d2f0       ?getMapWidth@TileManager@@QBEHXZ 0042e2f0 f i StartupState.obj
 0001:0002d310       ?getMapYForScreenY@TileManager@@QBEHH@Z 0042e310 f i StartupState.obj
 0001:0002d340       ?isValidTilePosition@TileManager@@QBE_NHH@Z 0042e340 f i StartupState.obj
 0001:0002d3d0       ?length@?$basic_string@DU?$char_traits@D@std@@V?$allocator@D@2@@std@@QBEIXZ 0042e3d0 f i StartupState.obj
 0001:0002d3f0       ?max_size@?$_Default_allocator_traits@V?$allocator@V?$basic_string@DU?$char_traits@D@std@@V?$allocator@D@2@@std@@@std@@@std@@SAIABV?$allocator@V?$basic_string@DU?$char_traits@D@std@@V?$allocator@D@2@@std@@@2@@Z 0042e3f0 f i StartupState.obj
 0001:0002d400       ?max_size@?$vector@V?$basic_string@DU?$char_traits@D@std@@V?$allocator@D@2@@std@@V?$allocator@V?$basic_string@DU?$char_traits@D@std@@V?$allocator@D@2@@std@@@2@@std@@QBEIXZ 0042e400 f i StartupState.obj
 0001:0002d450       ?open@?$basic_ifstream@DU?$char_traits@D@std@@@std@@QAEXPBDHH@Z 0042e450 f i StartupState.obj
 0001:0002d4d0       ?push_back@?$vector@V?$basic_string@DU?$char_traits@D@std@@V?$allocator@D@2@@std@@V?$allocator@V?$basic_string@DU?$char_traits@D@std@@V?$allocator@D@2@@std@@@2@@std@@QAEXABV?$basic_string@DU?$char_traits@D@std@@V?$allocator@D@2@@2@@Z 0042e4d0 f i StartupState.obj
 0001:0002d4f0       ?setTopLeftPositionOnScreen@TileManager@@QAEXHH@Z 0042e4f0 f i StartupState.obj
 0001:0002d520       ?virtSetupBackgroundBuffer@State@@UAEXXZ 0042e520 f   State.obj
 0001:0002d530       ?virtInitialiseObjects@State@@UAEXXZ 0042e530 f   State.obj
 0001:0002d540       ?virtKeyDown@State@@UAEXH@Z 0042e540 f   State.obj
 0001:0002d550       ?virtDrawStringsUnderneath@State@@UAEXXZ 0042e550 f   State.obj
 0001:0002d560       ?virtMouseDown@State@@UAEXHHH@Z 0042e560 f   State.obj
 0001:0002d570       ?virtMainLoopDoBeforeUpdate@State@@UAEXXZ 0042e570 f   State.obj
 0001:0002d580       ?copyAllBackgroundBuffer@State@@UAEXXZ 0042e580 f   State.obj
 0001:0002d590       ?virtCreateSurfaces@State@@UAEXXZ 0042e590 f   State.obj
 0001:0002d5a0       ?virtKeyUp@State@@UAEXH@Z  0042e5a0 f   State.obj
 0001:0002d5b0       ??1State@@UAE@XZ           0042e5b0 f   State.obj
 0001:0002d5f0       ?drawAllTiles@TileManager@@QBEXPAVBaseEngine@@PAVDrawingSurface@@@Z 0042e5f0 f   TileManager.obj
 0001:0002d690       ?drawSomeTiles@TileManager@@QBEXPAVBaseEngine@@PAVDrawingSurface@@HHHH@Z 0042e690 f   TileManager.obj
 0001:0002d730       ?virtDrawTileAt@TileManager@@UBEXPAVBaseEngine@@PAVDrawingSurface@@HHHH@Z 0042e730 f   TileManager.obj
 0001:0002d820       ??0BouncingBall@@QAE@PAVBouncingBallMain@@HHHHPBDHH@Z 0042e820 f   BouncingBall.obj
 0001:0002d8f0       ??1BouncingBall@@UAE@XZ    0042e8f0 f   BouncingBall.obj
 0001:0002d910       ?virtDraw@BouncingBall@@UAEXXZ 0042e910 f   BouncingBall.obj
 0001:0002dbe0       ?virtDoUpdate@BouncingBall@@UAEXH@Z 0042ebe0 f   BouncingBall.obj
 0001:0002dc00       ??0BouncingBall1@@QAE@PAVBouncingBallMain@@HHHHPBDHHPAVTileManager@@@Z 0042ec00 f   BouncingBall.obj
 0001:0002dca0       ?setMovement@BouncingBall1@@QAEXHHHHHHH@Z 0042eca0 f   BouncingBall.obj
 0001:0002dd10       ?virtDoUpdate@BouncingBall1@@UAEXH@Z 0042ed10 f   BouncingBall.obj
 0001:0002de80       ??0BouncingBall2@@QAE@PAVBouncingBallMain@@HHHHPBDHH@Z 0042ee80 f   BouncingBall.obj
 0001:0002df00       ?setPosition@BouncingBall2@@QAEXNN@Z 0042ef00 f   BouncingBall.obj
 0001:0002df30       ?setSpeed@BouncingBall2@@QAEXNN@Z 0042ef30 f   BouncingBall.obj
 0001:0002df60       ?virtDoUpdate@BouncingBall2@@UAEXH@Z 0042ef60 f   BouncingBall.obj
 0001:0002e550       ??0MovementPosition@@QAE@XZ 0042f550 f i BouncingBall.obj
 0001:0002e5d0       ??1BouncingBall1@@UAE@XZ   0042f5d0 f i BouncingBall.obj
 0001:0002e5f0       ??1BouncingBall2@@UAE@XZ   0042f5f0 f i BouncingBall.obj
 0001:0002e610       ??_EBouncingBall1@@UAEPAXI@Z 0042f610 f i BouncingBall.obj
 0001:0002e610       ??_GBouncingBall1@@UAEPAXI@Z 0042f610 f i BouncingBall.obj
 0001:0002e650       ??_EBouncingBall2@@UAEPAXI@Z 0042f650 f i BouncingBall.obj
 0001:0002e650       ??_GBouncingBall2@@UAEPAXI@Z 0042f650 f i BouncingBall.obj
 0001:0002e690       ??_EBouncingBall@@UAEPAXI@Z 0042f690 f i BouncingBall.obj
 0001:0002e690       ??_GBouncingBall@@UAEPAXI@Z 0042f690 f i BouncingBall.obj
 0001:0002e6d0       ?calculate@MovementPosition@@QAEXH@Z 0042f6d0 f i BouncingBall.obj
 0001:0002e7c0       ?getX@MovementPosition@@QBEHXZ 0042f7c0 f i BouncingBall.obj
 0001:0002e7e0       ?getY@MovementPosition@@QBEHXZ 0042f7e0 f i BouncingBall.obj
 0001:0002e800       ?hasMovementFinished@MovementPosition@@QBE_NH@Z 0042f800 f i BouncingBall.obj
 0001:0002e840       ?reverse@MovementPosition@@QAEXXZ 0042f840 f i BouncingBall.obj
 0001:0002e8d0       ?setup@MovementPosition@@QAEXHHHHHH@Z 0042f8d0 f i BouncingBall.obj
 0001:0002e940       ?virtMouseDown@BouncingBall@@UAEXHHH@Z 0042f940 f i BouncingBall.obj
 0001:0002e980       ?virtSetupBackgroundBuffer@BouncingBallMain@@UAEXXZ 0042f980 f   BouncingBallMain.obj
 0001:0002f1c0       ?virtInitialiseObjects@BouncingBallMain@@UAEHXZ 004301c0 f   BouncingBallMain.obj
 0001:0002f490       ?virtDrawStringsUnderneath@BouncingBallMain@@UAEXXZ 00430490 f   BouncingBallMain.obj
 0001:0002f4d0       ?virtMouseDown@BouncingBallMain@@UAEXHHH@Z 004304d0 f   BouncingBallMain.obj
 0001:0002f510       ?virtKeyDown@BouncingBallMain@@UAEXH@Z 00430510 f   BouncingBallMain.obj
 0001:0002f830       ?drawBackgroundLine@BaseEngine@@QAEXHHHHI@Z 00430830 f i BouncingBallMain.obj
 0001:0002f8a0       ?drawBackgroundPolygon@BaseEngine@@QAEXNNNNNNNNI@Z 004308a0 f i BouncingBallMain.obj
 0001:0002f960       ?drawBackgroundPolygon@BaseEngine@@QAEXNNNNNNNNNNI@Z 00430960 f i BouncingBallMain.obj
 0001:0002fa30       ?drawBackgroundPolygon@BaseEngine@@QAEXNNNNNNNNNNNNI@Z 00430a30 f i BouncingBallMain.obj
 0001:0002fb20       ?drawBackgroundPolygon@BaseEngine@@QAEXNNNNNNNNNNNNNNI@Z 00430b20 f i BouncingBallMain.obj
 0001:0002fc20       ?drawBackgroundPolygon@BaseEngine@@QAEXNNNNNNNNNNNNNNNNI@Z 00430c20 f i BouncingBallMain.obj
 0001:0002fd60       ?drawBackgroundTriangle@BaseEngine@@QAEXHHHHHHI@Z 00430d60 f i BouncingBallMain.obj
 0001:0002fdf0       ?drawBackgroundVerticalSidedRegion@BaseEngine@@QAEXNNNNNNI@Z 00430df0 f i BouncingBallMain.obj
 0001:0002fe80       ?getFont@BaseEngine@@QAEPAVFont@@PBDH@Z 00430e80 f i BouncingBallMain.obj
 0001:0002feb0       ?virtSetupBackgroundBuffer@WinState@@UAEXXZ 00430eb0 f   WinState.obj
 0001:0002ffa0       ?virtKeyDown@WinState@@UAEXH@Z 00430fa0 f   WinState.obj
 0001:00030040       ?copyAllBackgroundBuffer@WinState@@UAEXXZ 00431040 f   WinState.obj
 0001:00030080       ?virtCreateSurfaces@WinState@@UAEXXZ 00431080 f   WinState.obj
 0001:000300e0       ?virtInitialiseObjects@WinState@@UAEXXZ 004310e0 f   WinState.obj
 0001:000303c0       ??0Arrow@@QAE@HHPAVBaseEngine@@@Z 004313c0 f i WinState.obj
 0001:00030400       ??1Arrow@@UAE@XZ           00431400 f i WinState.obj
 0001:00030420       ??_EArrow@@UAEPAXI@Z       00431420 f i WinState.obj
 0001:00030420       ??_GArrow@@UAEPAXI@Z       00431420 f i WinState.obj
 0001:00030460       ?virtInitialise@ZoomingDemo@@UAEHXZ 00431460 f   ZoomingDemo.obj
 0001:000304b0       ?virtSetupBackgroundBuffer@ZoomingDemo@@UAEXXZ 004314b0 f   ZoomingDemo.obj
 0001:000304d0       ?virtInitialiseObjects@ZoomingDemo@@UAEHXZ 004314d0 f   ZoomingDemo.obj
 0001:00030690       ?virtDrawStringsUnderneath@ZoomingDemo@@UAEXXZ 00431690 f   ZoomingDemo.obj
 0001:00030740       ?virtDrawStringsOnTop@ZoomingDemo@@UAEXXZ 00431740 f   ZoomingDemo.obj
 0001:000307c0       ?virtMouseDown@ZoomingDemo@@UAEXHHH@Z 004317c0 f   ZoomingDemo.obj
 0001:00030810       ?virtKeyDown@ZoomingDemo@@UAEXH@Z 00431810 f   ZoomingDemo.obj
 0001:00030910       ?virtMouseWheel@ZoomingDemo@@UAEXHHHH@Z 00431910 f   ZoomingDemo.obj
 0001:00030b30       ??0SimpleFlashingDragableImageObject@@QAE@HHPAVBaseEngine@@V?$basic_string@DU?$char_traits@D@std@@V?$allocator@D@2@@std@@1_N2@Z 00431b30 f i ZoomingDemo.obj
 0001:00030d30       ??1SimpleFlashingDragableImageObject@@UAE@XZ 00431d30 f i ZoomingDemo.obj
 0001:00030d70       ??_ESimpleFlashingDragableImageObject@@UAEPAXI@Z 00431d70 f i ZoomingDemo.obj
 0001:00030d70       ??_GSimpleFlashingDragableImageObject@@UAEPAXI@Z 00431d70 f i ZoomingDemo.obj
 0001:00030db0       ?changeOffset@FilterPointsTranslation@@QAEXHH@Z 00431db0 f i ZoomingDemo.obj
 0001:00030df0       ?compress@FilterPointsScaling@@QAEXXZ 00431df0 f i ZoomingDemo.obj
 0001:00030e20       ?compressX@FilterPointsScaling@@QAEXXZ 00431e20 f i ZoomingDemo.obj
 0001:00030e70       ?compressY@FilterPointsScaling@@QAEXXZ 00431e70 f i ZoomingDemo.obj
 0001:00030ec0       ?setOffset@FilterPointsTranslation@@QAEXHH@Z 00431ec0 f i ZoomingDemo.obj
 0001:00030ef0       ?stretch@FilterPointsScaling@@QAEXXZ 00431ef0 f i ZoomingDemo.obj
 0001:00030f20       ?stretchX@FilterPointsScaling@@QAEXXZ 00431f20 f i ZoomingDemo.obj
 0001:00030f70       ?stretchY@FilterPointsScaling@@QAEXXZ 00431f70 f i ZoomingDemo.obj
 0001:00030fc0       ?virtDoUpdate@SimpleFlashingDragableImageObject@@UAEXH@Z 00431fc0 f i ZoomingDemo.obj
 0001:00031020       ?virtDraw@SimpleFlashingDragableImageObject@@UAEXXZ 00432020 f i ZoomingDemo.obj
 0001:00031110       ?virtMouseDown@SimpleFlashingDragableImageObject@@UAEXHHH@Z 00432110 f i ZoomingDemo.obj
 0001:00031180       ?virtMouseMoved@SimpleFlashingDragableImageObject@@UAEXHH@Z 00432180 f i ZoomingDemo.obj
 0001:000311e0       ?virtMouseUp@SimpleFlashingDragableImageObject@@UAEXHHH@Z 004321e0 f i ZoomingDemo.obj
 0001:00031200       ?filter@ZoomPoints@@UAE_NPAVDrawingSurface@@AAH1AAI@Z 00432200 f   ZoomPoints.obj
 0001:00031230       ?handleXthenY@ZoomPoints@@QAEXPAVDrawingSurface@@HHAAI@Z 00432230 f   ZoomPoints.obj
 0001:000312c0       ?handleY@ZoomPoints@@QAEXPAVDrawingSurface@@HHAAI@Z 004322c0 f   ZoomPoints.obj
 0001:000313a0       ?compress@ZoomPoints@@QAEXXZ 004323a0 f   ZoomPoints.obj
 0001:00031400       ?stretch@ZoomPoints@@QAEXXZ 00432400 f   ZoomPoints.obj
 0001:00031460       ?filterConvertVirtualToRealXPosition@ZoomPoints@@UAEHH@Z 00432460 f   ZoomPoints.obj
 0001:000314c0       ?filterConvertVirtualToRealYPosition@ZoomPoints@@UAEHH@Z 004324c0 f   ZoomPoints.obj
 0001:00031520       ?filterConvertRealToVirtualXPosition@ZoomPoints@@UAEHH@Z 00432520 f   ZoomPoints.obj
 0001:00031570       ?filterConvertRealToVirtualYPosition@ZoomPoints@@UAEHH@Z 00432570 f   ZoomPoints.obj
 0001:000316b0       ??0MazeDemoMain@@QAE@XZ    004326b0 f   MazeDemoMain.obj
 0001:00031730       ??1MazeDemoMain@@UAE@XZ    00432730 f   MazeDemoMain.obj
 0001:00031770       ?virtSetupBackgroundBuffer@MazeDemoMain@@UAEXXZ 00432770 f   MazeDemoMain.obj
 0001:00031960       ?virtInitialiseObjects@MazeDemoMain@@UAEHXZ 00432960 f   MazeDemoMain.obj
 0001:00031b60       ?virtDrawStringsUnderneath@MazeDemoMain@@UAEXXZ 00432b60 f   MazeDemoMain.obj
 0001:00031bf0       ?virtMouseDown@MazeDemoMain@@UAEXHHH@Z 00432bf0 f   MazeDemoMain.obj
 0001:00031c00       ?virtKeyDown@MazeDemoMain@@UAEXH@Z 00432c00 f   MazeDemoMain.obj
 0001:00031e50       ??0MazeDemoTileManager@@QAE@XZ 00432e50 f i MazeDemoMain.obj
 0001:00031e80       ??0TileManager@@QAE@HH@Z   00432e80 f i MazeDemoMain.obj
 0001:00031f00       ??1MazeDemoTileManager@@UAE@XZ 00432f00 f i MazeDemoMain.obj
 0001:00031f30       ??_EMazeDemoMain@@UAEPAXI@Z 00432f30 f i MazeDemoMain.obj
 0001:00031f30       ??_GMazeDemoMain@@UAEPAXI@Z 00432f30 f i MazeDemoMain.obj
 0001:00031f70       ??_EMazeDemoTileManager@@UAEPAXI@Z 00432f70 f i MazeDemoMain.obj
 0001:00031f70       ??_GMazeDemoTileManager@@UAEPAXI@Z 00432f70 f i MazeDemoMain.obj
 0001:00031fb0       ??0MazeDemoObject@@QAE@PAVMazeDemoMain@@HH@Z 00432fb0 f   MazeDemoObject.obj
 0001:00032090       ??1MazeDemoObject@@UAE@XZ  00433090 f   MazeDemoObject.obj
 0001:000320b0       ?virtDraw@MazeDemoObject@@UAEXXZ 004330b0 f   MazeDemoObject.obj
 0001:00032160       ?virtDoUpdate@MazeDemoObject@@UAEXH@Z 00433160 f   MazeDemoObject.obj
 0001:00032800       ??_EMazeDemoObject@@UAEPAXI@Z 00433800 f i MazeDemoObject.obj
 0001:00032800       ??_GMazeDemoObject@@UAEPAXI@Z 00433800 f i MazeDemoObject.obj
 0001:00032840       ?GetTileManager@MazeDemoMain@@QAEAAVMazeDemoTileManager@@XZ 00433840 f i MazeDemoObject.obj
 0001:00032860       ?checkCircles@CollisionDetection@@SA_NHHHHH@Z 00433860 f i MazeDemoObject.obj
 0001:000328c0       ?getXDiffForDirection@MazeDemoObject@@QAEHH@Z 004338c0 f i MazeDemoObject.obj
 0001:00032930       ?getYDiffForDirection@MazeDemoObject@@QAEHH@Z 00433930 f i MazeDemoObject.obj
 0001:000329a0       ?virtDrawTileAt@MazeDemoTileManager@@UBEXPAVBaseEngine@@PAVDrawingSurface@@HHHH@Z 004339a0 f   MazeDemoTileManager.obj
 0001:00032b85       _SDL_CreateRGBSurface      00433b85 f   SDL2:SDL2.dll
 0001:00032b8b       _SDL_FreeSurface           00433b8b f   SDL2:SDL2.dll
 0001:00032b91       _SDL_UpperBlit             00433b91 f   SDL2:SDL2.dll
 0001:00032b97       _SDL_LockSurface           00433b97 f   SDL2:SDL2.dll
 0001:00032b9d       _SDL_UnlockSurface         00433b9d f   SDL2:SDL2.dll
 0001:00032ba3       _SDL_FillRect              00433ba3 f   SDL2:SDL2.dll
 0001:00032ba9       _SDL_GetError              00433ba9 f   SDL2:SDL2.dll
 0001:00032baf       _SDL_CreateWindow          00433baf f   SDL2:SDL2.dll
 0001:00032bb5       _SDL_PollEvent             00433bb5 f   SDL2:SDL2.dll
 0001:00032bbb       _SDL_WaitEvent             00433bbb f   SDL2:SDL2.dll
 0001:00032bc1       _SDL_CreateRenderer        00433bc1 f   SDL2:SDL2.dll
 0001:00032bc7       _SDL_CreateTexture         00433bc7 f   SDL2:SDL2.dll
 0001:00032bcd       _SDL_UpdateTexture         00433bcd f   SDL2:SDL2.dll
 0001:00032bd3       _SDL_RenderCopy            00433bd3 f   SDL2:SDL2.dll
 0001:00032bd9       _SDL_RenderPresent         00433bd9 f   SDL2:SDL2.dll
 0001:00032bdf       _SDL_GetTicks              00433bdf f   SDL2:SDL2.dll
 0001:00032be5       _SDL_Init                  00433be5 f   SDL2:SDL2.dll
 0001:00032beb       _SDL_Quit                  00433beb f   SDL2:SDL2.dll
 0001:00032bf1       _SDL_SetClipRect           00433bf1 f   SDL2:SDL2.dll
 0001:00032bf7       _SDL_UpperBlitScaled       00433bf7 f   SDL2:SDL2.dll
 0001:00032bfd       _IMG_Load                  00433bfd f   SDL2_image:SDL2_image.dll
 0001:00032c03       _TTF_RenderText_Solid      00433c03 f   SDL2_ttf:SDL2_ttf.dll
 0001:00032c09       _TTF_Init                  00433c09 f   SDL2_ttf:SDL2_ttf.dll
 0001:00032c0f       _TTF_Quit                  00433c0f f   SDL2_ttf:SDL2_ttf.dll
 0001:00032c15       _TTF_OpenFont              00433c15 f   SDL2_ttf:SDL2_ttf.dll
 0001:00032c1b       _TTF_CloseFont             00433c1b f   SDL2_ttf:SDL2_ttf.dll
 0001:00032c21       ??0_Lockit@std@@QAE@H@Z    00433c21 f   msvcprtd:MSVCP140D.dll
 0001:00032c27       ??1_Lockit@std@@QAE@XZ     00433c27 f   msvcprtd:MSVCP140D.dll
 0001:00032c2d       ?_Xlength_error@std@@YAXPBD@Z 00433c2d f   msvcprtd:MSVCP140D.dll
 0001:00032c33       ?uncaught_exception@std@@YA_NXZ 00433c33 f   msvcprtd:MSVCP140D.dll
 0001:00032c39       ?good@ios_base@std@@QBE_NXZ 00433c39 f   msvcprtd:MSVCP140D.dll
 0001:00032c3f       ?flags@ios_base@std@@QBEHXZ 00433c3f f   msvcprtd:MSVCP140D.dll
 0001:00032c45       ?width@ios_base@std@@QBE_JXZ 00433c45 f   msvcprtd:MSVCP140D.dll
 0001:00032c4b       ?width@ios_base@std@@QAE_J_J@Z 00433c4b f   msvcprtd:MSVCP140D.dll
 0001:00032c51       ?sputc@?$basic_streambuf@DU?$char_traits@D@std@@@std@@QAEHD@Z 00433c51 f   msvcprtd:MSVCP140D.dll
 0001:00032c57       ?sputn@?$basic_streambuf@DU?$char_traits@D@std@@@std@@QAE_JPBD_J@Z 00433c57 f   msvcprtd:MSVCP140D.dll
 0001:00032c5d       ?setstate@?$basic_ios@DU?$char_traits@D@std@@@std@@QAEXH_N@Z 00433c5d f   msvcprtd:MSVCP140D.dll
 0001:00032c63       ?tie@?$basic_ios@DU?$char_traits@D@std@@@std@@QBEPAV?$basic_ostream@DU?$char_traits@D@std@@@2@XZ 00433c63 f   msvcprtd:MSVCP140D.dll
 0001:00032c69       ?rdbuf@?$basic_ios@DU?$char_traits@D@std@@@std@@QBEPAV?$basic_streambuf@DU?$char_traits@D@std@@@2@XZ 00433c69 f   msvcprtd:MSVCP140D.dll
 0001:00032c6f       ?fill@?$basic_ios@DU?$char_traits@D@std@@@std@@QBEDXZ 00433c6f f   msvcprtd:MSVCP140D.dll
 0001:00032c75       ?widen@?$basic_ios@DU?$char_traits@D@std@@@std@@QBEDD@Z 00433c75 f   msvcprtd:MSVCP140D.dll
 0001:00032c7b       ?_Osfx@?$basic_ostream@DU?$char_traits@D@std@@@std@@QAEXXZ 00433c7b f   msvcprtd:MSVCP140D.dll
 0001:00032c81       ??6?$basic_ostream@DU?$char_traits@D@std@@@std@@QAEAAV01@P6AAAV01@AAV01@@Z@Z 00433c81 f   msvcprtd:MSVCP140D.dll
 0001:00032c87       ?put@?$basic_ostream@DU?$char_traits@D@std@@@std@@QAEAAV12@D@Z 00433c87 f   msvcprtd:MSVCP140D.dll
 0001:00032c8d       ?flush@?$basic_ostream@DU?$char_traits@D@std@@@std@@QAEAAV12@XZ 00433c8d f   msvcprtd:MSVCP140D.dll
 0001:00032c93       ?_Xout_of_range@std@@YAXPBD@Z 00433c93 f   msvcprtd:MSVCP140D.dll
 0001:00032ca0       ??0_Fac_node@std@@QAE@PAU01@PAV_Facet_base@1@@Z 00433ca0 f i msvcprtd:locale0_implib.obj
 0001:00032cd0       ??1_Fac_node@std@@QAE@XZ   00433cd0 f i msvcprtd:locale0_implib.obj
 0001:00032d50       ??1_Fac_tidy_reg_t@std@@QAE@XZ 00433d50 f i msvcprtd:locale0_implib.obj
 0001:00032db0       ??2_Fac_node@std@@SAPAXI@Z 00433db0 f i msvcprtd:locale0_implib.obj
 0001:00032e10       ??3_Fac_node@std@@SAXPAX@Z 00433e10 f i msvcprtd:locale0_implib.obj
 0001:00032e30       ??_G_Fac_node@std@@QAEPAXI@Z 00433e30 f i msvcprtd:locale0_implib.obj
 0001:00032e90       ?_Facet_Register@std@@YAXPAV_Facet_base@1@@Z 00433e90 f   msvcprtd:locale0_implib.obj
 0001:00032f40       ?__empty_global_delete@@YAXPAXIW4align_val_t@std@@@Z 00433f40 f i msvcprtd:locale0_implib.obj
 0001:00032f50       ?__empty_global_delete@@YAXPAXW4align_val_t@std@@@Z 00433f50 f i msvcprtd:locale0_implib.obj
 0001:00032f55       ??Bid@locale@std@@QAEIXZ   00433f55 f   msvcprtd:MSVCP140D.dll
 0001:00032f5b       ?_Getgloballocale@locale@std@@CAPAV_Locimp@12@XZ 00433f5b f   msvcprtd:MSVCP140D.dll
 0001:00032f61       ?always_noconv@codecvt_base@std@@QBE_NXZ 00433f61 f   msvcprtd:MSVCP140D.dll
 0001:00032f67       ?in@?$codecvt@DDU_Mbstatet@@@std@@QBEHAAU_Mbstatet@@PBD1AAPBDPAD3AAPAD@Z 00433f67 f   msvcprtd:MSVCP140D.dll
 0001:00032f6d       ?out@?$codecvt@DDU_Mbstatet@@@std@@QBEHAAU_Mbstatet@@PBD1AAPBDPAD3AAPAD@Z 00433f6d f   msvcprtd:MSVCP140D.dll
 0001:00032f73       ?unshift@?$codecvt@DDU_Mbstatet@@@std@@QBEHAAU_Mbstatet@@PAD1AAPAD@Z 00433f73 f   msvcprtd:MSVCP140D.dll
 0001:00032f79       ?_Getcat@?$codecvt@DDU_Mbstatet@@@std@@SAIPAPBVfacet@locale@2@PBV42@@Z 00433f79 f   msvcprtd:MSVCP140D.dll
 0001:00032f7f       ??0?$basic_streambuf@DU?$char_traits@D@std@@@std@@IAE@XZ 00433f7f f   msvcprtd:MSVCP140D.dll
 0001:00032f85       ??1?$basic_streambuf@DU?$char_traits@D@std@@@std@@UAE@XZ 00433f85 f   msvcprtd:MSVCP140D.dll
 0001:00032f8b       ?getloc@?$basic_streambuf@DU?$char_traits@D@std@@@std@@QBE?AVlocale@2@XZ 00433f8b f   msvcprtd:MSVCP140D.dll
 0001:00032f91       ?eback@?$basic_streambuf@DU?$char_traits@D@std@@@std@@IBEPADXZ 00433f91 f   msvcprtd:MSVCP140D.dll
 0001:00032f97       ?gptr@?$basic_streambuf@DU?$char_traits@D@std@@@std@@IBEPADXZ 00433f97 f   msvcprtd:MSVCP140D.dll
 0001:00032f9d       ?pptr@?$basic_streambuf@DU?$char_traits@D@std@@@std@@IBEPADXZ 00433f9d f   msvcprtd:MSVCP140D.dll
 0001:00032fa3       ?egptr@?$basic_streambuf@DU?$char_traits@D@std@@@std@@IBEPADXZ 00433fa3 f   msvcprtd:MSVCP140D.dll
 0001:00032fa9       ?gbump@?$basic_streambuf@DU?$char_traits@D@std@@@std@@IAEXH@Z 00433fa9 f   msvcprtd:MSVCP140D.dll
 0001:00032faf       ?setg@?$basic_streambuf@DU?$char_traits@D@std@@@std@@IAEXPAD00@Z 00433faf f   msvcprtd:MSVCP140D.dll
 0001:00032fb5       ?epptr@?$basic_streambuf@DU?$char_traits@D@std@@@std@@IBEPADXZ 00433fb5 f   msvcprtd:MSVCP140D.dll
 0001:00032fbb       ?_Gndec@?$basic_streambuf@DU?$char_traits@D@std@@@std@@IAEPADXZ 00433fbb f   msvcprtd:MSVCP140D.dll
 0001:00032fc1       ?_Gninc@?$basic_streambuf@DU?$char_traits@D@std@@@std@@IAEPADXZ 00433fc1 f   msvcprtd:MSVCP140D.dll
 0001:00032fc7       ?_Gnavail@?$basic_streambuf@DU?$char_traits@D@std@@@std@@IBE_JXZ 00433fc7 f   msvcprtd:MSVCP140D.dll
 0001:00032fcd       ?pbump@?$basic_streambuf@DU?$char_traits@D@std@@@std@@IAEXH@Z 00433fcd f   msvcprtd:MSVCP140D.dll
 0001:00032fd3       ?_Pninc@?$basic_streambuf@DU?$char_traits@D@std@@@std@@IAEPADXZ 00433fd3 f   msvcprtd:MSVCP140D.dll
 0001:00032fd9       ?_Pnavail@?$basic_streambuf@DU?$char_traits@D@std@@@std@@IBE_JXZ 00433fd9 f   msvcprtd:MSVCP140D.dll
 0001:00032fdf       ?_Init@?$basic_streambuf@DU?$char_traits@D@std@@@std@@IAEXXZ 00433fdf f   msvcprtd:MSVCP140D.dll
 0001:00032fe5       ?_Init@?$basic_streambuf@DU?$char_traits@D@std@@@std@@IAEXPAPAD0PAH001@Z 00433fe5 f   msvcprtd:MSVCP140D.dll
 0001:00032feb       ?xsgetn@?$basic_streambuf@DU?$char_traits@D@std@@@std@@MAE_JPAD_J@Z 00433feb f   msvcprtd:MSVCP140D.dll
 0001:00032ff1       ?xsputn@?$basic_streambuf@DU?$char_traits@D@std@@@std@@MAE_JPBD_J@Z 00433ff1 f   msvcprtd:MSVCP140D.dll
 0001:00032ff7       ??1?$basic_ios@DU?$char_traits@D@std@@@std@@UAE@XZ 00433ff7 f   msvcprtd:MSVCP140D.dll
 0001:00032ffd       ?clear@?$basic_ios@DU?$char_traits@D@std@@@std@@QAEXH_N@Z 00433ffd f   msvcprtd:MSVCP140D.dll
 0001:00033003       ??0?$basic_ios@DU?$char_traits@D@std@@@std@@IAE@XZ 00434003 f   msvcprtd:MSVCP140D.dll
 0001:00033009       ??0?$basic_ostream@DU?$char_traits@D@std@@@std@@QAE@PAV?$basic_streambuf@DU?$char_traits@D@std@@@1@_N@Z 00434009 f   msvcprtd:MSVCP140D.dll
 0001:0003300f       ??1?$basic_ostream@DU?$char_traits@D@std@@@std@@UAE@XZ 0043400f f   msvcprtd:MSVCP140D.dll
 0001:00033015       ??6?$basic_ostream@DU?$char_traits@D@std@@@std@@QAEAAV01@H@Z 00434015 f   msvcprtd:MSVCP140D.dll
 0001:0003301b       ?_Fiopen@std@@YAPAU_iobuf@@PBDHH@Z 0043401b f   msvcprtd:MSVCP140D.dll
 0001:00033021       ?showmanyc@?$basic_streambuf@DU?$char_traits@D@std@@@std@@MAE_JXZ 00434021 f   msvcprtd:MSVCP140D.dll
 0001:00035eb0       ___std_count_trivial_1@12  00436eb0 f   msvcprtd:vector_algorithms.obj
 0001:00035ed0       ___std_count_trivial_2@12  00436ed0 f   msvcprtd:vector_algorithms.obj
 0001:00035ef0       ___std_count_trivial_4@12  00436ef0 f   msvcprtd:vector_algorithms.obj
 0001:00035f10       ___std_count_trivial_8@16  00436f10 f   msvcprtd:vector_algorithms.obj
 0001:00035f40       ___std_find_trivial_1@12   00436f40 f   msvcprtd:vector_algorithms.obj
 0001:00035f60       ___std_find_trivial_2@12   00436f60 f   msvcprtd:vector_algorithms.obj
 0001:00035f80       ___std_find_trivial_4@12   00436f80 f   msvcprtd:vector_algorithms.obj
 0001:00035fa0       ___std_find_trivial_8@16   00436fa0 f   msvcprtd:vector_algorithms.obj
 0001:00035fd0       ___std_find_trivial_unsized_1@8 00436fd0 f   msvcprtd:vector_algorithms.obj
 0001:00035ff0       ___std_find_trivial_unsized_2@8 00436ff0 f   msvcprtd:vector_algorithms.obj
 0001:00036010       ___std_find_trivial_unsized_4@8 00437010 f   msvcprtd:vector_algorithms.obj
 0001:00036030       ___std_find_trivial_unsized_8@12 00437030 f   msvcprtd:vector_algorithms.obj
 0001:00036050       ___std_reverse_copy_trivially_copyable_1 00437050 f   msvcprtd:vector_algorithms.obj
 0001:000362e0       ___std_reverse_copy_trivially_copyable_2 004372e0 f   msvcprtd:vector_algorithms.obj
 0001:00036570       ___std_reverse_copy_trivially_copyable_4 00437570 f   msvcprtd:vector_algorithms.obj
 0001:000367a0       ___std_reverse_copy_trivially_copyable_8 004377a0 f   msvcprtd:vector_algorithms.obj
 0001:000369a0       ___std_reverse_trivially_swappable_1 004379a0 f   msvcprtd:vector_algorithms.obj
 0001:00036d20       ___std_reverse_trivially_swappable_2 00437d20 f   msvcprtd:vector_algorithms.obj
 0001:000370a0       ___std_reverse_trivially_swappable_4 004380a0 f   msvcprtd:vector_algorithms.obj
 0001:00037390       ___std_reverse_trivially_swappable_8 00438390 f   msvcprtd:vector_algorithms.obj
 0001:00037650       ___std_swap_ranges_trivially_swappable 00438650 f   msvcprtd:vector_algorithms.obj
 0001:00037680       ___std_swap_ranges_trivially_swappable_noalias 00438680 f   msvcprtd:vector_algorithms.obj
 0001:00037999       ?is@?$ctype@D@std@@QBE_NFD@Z 00438999 f   msvcprtd:MSVCP140D.dll
 0001:0003799f       ?_Getcat@?$ctype@D@std@@SAIPAPBVfacet@locale@2@PBV42@@Z 0043899f f   msvcprtd:MSVCP140D.dll
 0001:000379a5       ??Bios_base@std@@QBE_NXZ   004389a5 f   msvcprtd:MSVCP140D.dll
 0001:000379ab       ?getloc@ios_base@std@@QBE?AVlocale@2@XZ 004389ab f   msvcprtd:MSVCP140D.dll
 0001:000379b1       ?sgetc@?$basic_streambuf@DU?$char_traits@D@std@@@std@@QAEHXZ 004389b1 f   msvcprtd:MSVCP140D.dll
 0001:000379b7       ?snextc@?$basic_streambuf@DU?$char_traits@D@std@@@std@@QAEHXZ 004389b7 f   msvcprtd:MSVCP140D.dll
 0001:000379bd       ??0?$basic_istream@DU?$char_traits@D@std@@@std@@QAE@PAV?$basic_streambuf@DU?$char_traits@D@std@@@1@_N@Z 004389bd f   msvcprtd:MSVCP140D.dll
 0001:000379c3       ??1?$basic_istream@DU?$char_traits@D@std@@@std@@UAE@XZ 004389c3 f   msvcprtd:MSVCP140D.dll
 0001:000379c9       ?_Ipfx@?$basic_istream@DU?$char_traits@D@std@@@std@@QAE_N_N@Z 004389c9 f   msvcprtd:MSVCP140D.dll
 0001:000379cf       ??5?$basic_istream@DU?$char_traits@D@std@@@std@@QAEAAV01@AAH@Z 004389cf f   msvcprtd:MSVCP140D.dll
 0001:000379d5       ?_Xbad_alloc@std@@YAXXZ    004389d5 f   msvcprtd:MSVCP140D.dll
 0001:00037db0       ?configure_argv@__scrt_narrow_argv_policy@@SAHXZ 00438db0 f i MSVCRTD:exe_main.obj
 0001:00037dd0       ?initialize_environment@__scrt_narrow_environment_policy@@SAHXZ 00438dd0 f i MSVCRTD:exe_main.obj
 0001:00037e30       ?set_app_type@__scrt_main_policy@@SAXXZ 00438e30 f i MSVCRTD:exe_main.obj
 0001:00037e50       ?set_commode@__scrt_file_policy@@SAXXZ 00438e50 f i MSVCRTD:exe_main.obj
 0001:00037e70       ?set_fmode@__scrt_file_policy@@SAXXZ 00438e70 f i MSVCRTD:exe_main.obj
 0001:00037e90       _mainCRTStartup            00438e90 f   MSVCRTD:exe_main.obj
 0001:00037ea0       ??2@YAPAXI@Z               00438ea0 f   MSVCRTD:new_scalar.obj
 0001:00037f00       ??3@YAXPAXI@Z              00438f00 f   MSVCRTD:delete_scalar_size.obj
 0001:00037f20       ??_V@YAXPAX@Z              00438f20 f   MSVCRTD:delete_array.obj
 0001:00037f40       @__security_check_cookie@4 00438f40 f   MSVCRTD:secchk.obj
 0001:00037f60       ??1type_info@@UAE@XZ       00438f60 f   MSVCRTD:std_type_info_static.obj
 0001:00037f80       ??_Etype_info@@UAEPAXI@Z   00438f80 f i MSVCRTD:std_type_info_static.obj
 0001:00037f80       ??_Gtype_info@@UAEPAXI@Z   00438f80 f i MSVCRTD:std_type_info_static.obj
 0001:00037fc0       ??_U@YAPAXI@Z              00438fc0 f   MSVCRTD:new_array.obj
 0001:00038120       _NtCurrentTeb              00439120 f i MSVCRTD:utility.obj
 0001:00038130       ___scrt_acquire_startup_lock 00439130 f   MSVCRTD:utility.obj
 0001:00038190       ___scrt_dllmain_after_initialize_c 00439190 f   MSVCRTD:utility.obj
 0001:000381d0       ___scrt_dllmain_before_initialize_c 004391d0 f   MSVCRTD:utility.obj
 0001:00038200       ___scrt_dllmain_crt_thread_attach 00439200 f   MSVCRTD:utility.obj
 0001:00038240       ___scrt_dllmain_crt_thread_detach 00439240 f   MSVCRTD:utility.obj
 0001:00038260       ___scrt_dllmain_exception_filter 00439260 f   MSVCRTD:utility.obj
 0001:000382c0       ___scrt_dllmain_uninitialize_c 004392c0 f   MSVCRTD:utility.obj
 0001:00038300       ___scrt_dllmain_uninitialize_critical 00439300 f   MSVCRTD:utility.obj
 0001:00038320       ___scrt_initialize_crt     00439320 f   MSVCRTD:utility.obj
 0001:00038380       ___scrt_initialize_onexit_tables 00439380 f   MSVCRTD:utility.obj
 0001:00038490       ___scrt_is_nonwritable_in_current_image 00439490 f   MSVCRTD:utility.obj
 0001:00038610       ___scrt_release_startup_lock 00439610 f   MSVCRTD:utility.obj
 0001:00038640       ___scrt_uninitialize_crt   00439640 f   MSVCRTD:utility.obj
 0001:00038690       __onexit                   00439690 f   MSVCRTD:utility.obj
 0001:00038710       _at_quick_exit             00439710 f   MSVCRTD:utility.obj
 0001:00038760       _atexit                    00439760 f   MSVCRTD:utility.obj
 0001:000387a0       @_guard_check_icall_nop@4  004397a0 f i MSVCRTD:guard_support.obj
 0001:000387b0       _ReadNoFence               004397b0 f i MSVCRTD:guard_support.obj
 0001:000387d0       _ReadPointerNoFence        004397d0 f i MSVCRTD:guard_support.obj
 0001:000387f0       ___castguard_check_failure_debugbreak 004397f0 f i MSVCRTD:guard_support.obj
 0001:00038810       ___castguard_check_failure_fastfail 00439810 f i MSVCRTD:guard_support.obj
 0001:00038840       ___castguard_check_failure_nop 00439840 f i MSVCRTD:guard_support.obj
 0001:00038850       ___castguard_check_failure_os_handled 00439850 f i MSVCRTD:guard_support.obj
 0001:00038900       ___castguard_slow_path_check_debugbreak 00439900 f i MSVCRTD:guard_support.obj
 0001:00038940       ___castguard_slow_path_check_fastfail 00439940 f i MSVCRTD:guard_support.obj
 0001:00038990       ___castguard_slow_path_check_nop 00439990 f i MSVCRTD:guard_support.obj
 0001:000389a0       ___castguard_slow_path_check_os_handled 004399a0 f i MSVCRTD:guard_support.obj
 0001:00038a40       __guard_icall_checks_enforced 00439a40 f i MSVCRTD:guard_support.obj
 0001:00038a80       ___isa_available_init      00439a80 f   MSVCRTD:cpu_disp.obj
 0001:00038f10       ___security_init_cookie    00439f10 f   MSVCRTD:gs_support.obj
 0001:00038fb0       __matherr                  00439fb0 f   MSVCRTD:matherr.obj
 0001:00038fc0       __get_startup_argv_mode    00439fc0 f   MSVCRTD:argv_mode.obj
 0001:00038fd0       __get_startup_commit_mode  00439fd0 f   MSVCRTD:commit_mode.obj
 0001:00038fe0       __get_startup_file_mode    00439fe0 f   MSVCRTD:file_mode.obj
 0001:00038ff0       __get_startup_new_mode     00439ff0 f   MSVCRTD:new_mode.obj
 0001:00039000       __get_startup_thread_locale_mode 0043a000 f   MSVCRTD:thread_locale.obj
 0001:00039010       ?__scrt_initialize_type_info@@YAXXZ 0043a010 f   MSVCRTD:tncleanup.obj
 0001:00039030       ?__scrt_uninitialize_type_info@@YAXXZ 0043a030 f   MSVCRTD:tncleanup.obj
 0001:00039050       __should_initialize_environment 0043a050 f   MSVCRTD:env_mode.obj
 0001:00039060       __initialize_default_precision 0043a060 f   MSVCRTD:default_precision.obj
 0001:00039090       __initialize_invalid_parameter_handler 0043a090 f   MSVCRTD:invalid_parameter_handler.obj
 0001:000390a0       __initialize_denormal_control 0043a0a0 f   MSVCRTD:denormal_control.obj
 0001:000390b0       ___local_stdio_scanf_options 0043a0b0 f i MSVCRTD:default_local_stdio_options.obj
 0001:000390c0       ___scrt_initialize_default_local_stdio_options 0043a0c0 f   MSVCRTD:default_local_stdio_options.obj
 0001:00039110       ___scrt_is_user_matherr_present 0043a110 f   MSVCRTD:matherr_detection.obj
 0001:00039140       ___scrt_get_dyn_tls_init_callback 0043a140 f   MSVCRTD:dyn_tls_init.obj
 0001:00039150       ___scrt_get_dyn_tls_dtor_callback 0043a150 f   MSVCRTD:dyn_tls_dtor.obj
 0001:00039160       ___scrt_fastfail           0043a160 f   MSVCRTD:utility_desktop.obj
 0001:000392f0       ___scrt_get_show_window_mode 0043a2f0 f   MSVCRTD:utility_desktop.obj
 0001:00039340       ___scrt_initialize_mta     0043a340 f   MSVCRTD:utility_desktop.obj
 0001:00039350       ___scrt_initialize_winrt   0043a350 f   MSVCRTD:utility_desktop.obj
 0001:00039360       ___scrt_is_managed_app     0043a360 f   MSVCRTD:utility_desktop.obj
 0001:00039410       ___scrt_set_unhandled_exception_filter 0043a410 f   MSVCRTD:utility_desktop.obj
 0001:00039430       ___scrt_exe_initialize_mta 0043a430 f   MSVCRTD:utility_desktop.obj
 0001:00039430       ___scrt_stub_for_initialize_mta 0043a430 f   MSVCRTD:utility_desktop.obj
 0001:00039440       ___scrt_unhandled_exception_filter@4 0043a440 f   MSVCRTD:utility_desktop.obj
 0001:000394e0       __crt_debugger_hook        0043a4e0 f   MSVCRTD:utility_desktop.obj
 0001:00039500       __RTC_Initialize           0043a500 f   MSVCRTD:initsect.obj
 0001:00039540       __RTC_Terminate            0043a540 f   MSVCRTD:initsect.obj
 0001:00039580       __except_handler4          0043a580 f   MSVCRTD:chandler4gs.obj
 0001:000395d0       ??0bad_alloc@std@@QAE@XZ   0043a5d0 f i MSVCRTD:throw_bad_alloc.obj
 0001:00039600       ?__scrt_throw_std_bad_alloc@@YAXXZ 0043a600 f   MSVCRTD:throw_bad_alloc.obj
 0001:00039630       ?__scrt_throw_std_bad_array_new_length@@YAXXZ 0043a630 f   MSVCRTD:throw_bad_alloc.obj
 0001:00039660       ??3@YAXPAX@Z               0043a660 f   MSVCRTD:delete_scalar.obj
 0001:00039680       ___raise_securityfailure   0043a680 f   MSVCRTD:gs_report.obj
 0001:000396c0       ___report_gsfailure        0043a6c0 f   MSVCRTD:gs_report.obj
 0001:00039810       ___report_rangecheckfailure 0043a810 f   MSVCRTD:gs_report.obj
 0001:00039820       ___report_securityfailure  0043a820 f   MSVCRTD:gs_report.obj
 0001:00039930       ___report_securityfailureEx 0043a930 f   MSVCRTD:gs_report.obj
 0001:00039aa0       ___scrt_is_ucrt_dll_in_use 0043aaa0 f   MSVCRTD:ucrt_detection.obj
 0001:00039acd       __purecall                 0043aacd f   vcruntimed:VCRUNTIME140D.dll
 0001:00039ad3       _memcmp                    0043aad3 f   vcruntimed:VCRUNTIME140D.dll
 0001:00039ad9       _memcpy                    0043aad9 f   vcruntimed:VCRUNTIME140D.dll
 0001:00039adf       _memmove                   0043aadf f   vcruntimed:VCRUNTIME140D.dll
 0001:00039ae5       ___std_exception_copy      0043aae5 f   vcruntimed:VCRUNTIME140D.dll
 0001:00039aeb       ___std_exception_destroy   0043aaeb f   vcruntimed:VCRUNTIME140D.dll
 0001:00039af1       __CxxThrowException@8      0043aaf1 f   vcruntimed:VCRUNTIME140D.dll
 0001:00039af7       ___CxxFrameHandler3        0043aaf7 f   vcruntimed:VCRUNTIME140D.dll
 0001:00039afd       _memset                    0043aafd f   vcruntimed:VCRUNTIME140D.dll
 0001:00039b03       ___RTDynamicCast           0043ab03 f   vcruntimed:VCRUNTIME140D.dll
 0001:00039b09       ___std_type_info_destroy_list 0043ab09 f   vcruntimed:VCRUNTIME140D.dll
 0001:00039b0f       ___current_exception       0043ab0f f   vcruntimed:VCRUNTIME140D.dll
 0001:00039b15       ___current_exception_context 0043ab15 f   vcruntimed:VCRUNTIME140D.dll
 0001:00039b1b       __except_handler4_common   0043ab1b f   vcruntimed:VCRUNTIME140D.dll
 0001:00039b21       __invalid_parameter        0043ab21 f   ucrtd:ucrtbased.dll
 0001:00039b27       __CrtDbgReport             0043ab27 f   ucrtd:ucrtbased.dll
 0001:00039b2d       ___acrt_iob_func           0043ab2d f   ucrtd:ucrtbased.dll
 0001:00039b33       ___stdio_common_vfprintf   0043ab33 f   ucrtd:ucrtbased.dll
 0001:00039b39       _strlen                    0043ab39 f   ucrtd:ucrtbased.dll
 0001:00039b3f       _rand                      0043ab3f f   ucrtd:ucrtbased.dll
 0001:00039b45       _atan                      0043ab45 f   ucrtd:ucrtbased.dll
 0001:00039b4b       _cos                       0043ab4b f   ucrtd:ucrtbased.dll
 0001:00039b51       _sin                       0043ab51 f   ucrtd:ucrtbased.dll
 0001:00039b57       _sqrt                      0043ab57 f   ucrtd:ucrtbased.dll
 0001:00039b5d       _pow                       0043ab5d f   ucrtd:ucrtbased.dll
 0001:00039b63       _atan2                     0043ab63 f   ucrtd:ucrtbased.dll
 0001:00039b69       __CrtDumpMemoryLeaks       0043ab69 f   ucrtd:ucrtbased.dll
 0001:00039b6f       _srand                     0043ab6f f   ucrtd:ucrtbased.dll
 0001:00039b75       ___stdio_common_vsprintf   0043ab75 f   ucrtd:ucrtbased.dll
 0001:00039b7b       __time64                   0043ab7b f   ucrtd:ucrtbased.dll
 0001:00039b81       _puts                      0043ab81 f   ucrtd:ucrtbased.dll
 0001:00039b87       _strcmp                    0043ab87 f   ucrtd:ucrtbased.dll
 0001:00039b8d       _strcpy                    0043ab8d f   ucrtd:ucrtbased.dll
 0001:00039b93       __get_stream_buffer_pointers 0043ab93 f   ucrtd:ucrtbased.dll
 0001:00039b99       _fclose                    0043ab99 f   ucrtd:ucrtbased.dll
 0001:00039b9f       _fflush                    0043ab9f f   ucrtd:ucrtbased.dll
 0001:00039ba5       _fgetc                     0043aba5 f   ucrtd:ucrtbased.dll
 0001:00039bab       _fgetpos                   0043abab f   ucrtd:ucrtbased.dll
 0001:00039bb1       _fputc                     0043abb1 f   ucrtd:ucrtbased.dll
 0001:00039bb7       _fread                     0043abb7 f   ucrtd:ucrtbased.dll
 0001:00039bbd       _fsetpos                   0043abbd f   ucrtd:ucrtbased.dll
 0001:00039bc3       __fseeki64                 0043abc3 f   ucrtd:ucrtbased.dll
 0001:00039bc9       _fwrite                    0043abc9 f   ucrtd:ucrtbased.dll
 0001:00039bcf       _setvbuf                   0043abcf f   ucrtd:ucrtbased.dll
 0001:00039bd5       _ungetc                    0043abd5 f   ucrtd:ucrtbased.dll
 0001:00039bdb       __lock_file                0043abdb f   ucrtd:ucrtbased.dll
 0001:00039be1       __unlock_file              0043abe1 f   ucrtd:ucrtbased.dll
 0001:00039be7       __free_dbg                 0043abe7 f   ucrtd:ucrtbased.dll
 0001:00039bed       __malloc_dbg               0043abed f   ucrtd:ucrtbased.dll
 0001:00039bf3       __seh_filter_exe           0043abf3 f   ucrtd:ucrtbased.dll
 0001:00039bf9       __set_app_type             0043abf9 f   ucrtd:ucrtbased.dll
 0001:00039bff       ___setusermatherr          0043abff f   ucrtd:ucrtbased.dll
 0001:00039c05       __configure_narrow_argv    0043ac05 f   ucrtd:ucrtbased.dll
 0001:00039c0b       __initialize_narrow_environment 0043ac0b f   ucrtd:ucrtbased.dll
 0001:00039c11       __get_initial_narrow_environment 0043ac11 f   ucrtd:ucrtbased.dll
 0001:00039c17       __initterm                 0043ac17 f   ucrtd:ucrtbased.dll
 0001:00039c1d       __initterm_e               0043ac1d f   ucrtd:ucrtbased.dll
 0001:00039c23       _exit                      0043ac23 f   ucrtd:ucrtbased.dll
 0001:00039c29       __exit                     0043ac29 f   ucrtd:ucrtbased.dll
 0001:00039c2f       __set_fmode                0043ac2f f   ucrtd:ucrtbased.dll
 0001:00039c35       ___p___argc                0043ac35 f   ucrtd:ucrtbased.dll
 0001:00039c3b       ___p___argv                0043ac3b f   ucrtd:ucrtbased.dll
 0001:00039c41       __cexit                    0043ac41 f   ucrtd:ucrtbased.dll
 0001:00039c47       __c_exit                   0043ac47 f   ucrtd:ucrtbased.dll
 0001:00039c4d       __register_thread_local_exe_atexit_callback 0043ac4d f   ucrtd:ucrtbased.dll
 0001:00039c53       __configthreadlocale       0043ac53 f   ucrtd:ucrtbased.dll
 0001:00039c59       __set_new_mode             0043ac59 f   ucrtd:ucrtbased.dll
 0001:00039c5f       ___p__commode              0043ac5f f   ucrtd:ucrtbased.dll
 0001:00039c65       __callnewh                 0043ac65 f   ucrtd:ucrtbased.dll
 0001:00039c6b       _malloc                    0043ac6b f   ucrtd:ucrtbased.dll
 0001:00039c71       __seh_filter_dll           0043ac71 f   ucrtd:ucrtbased.dll
 0001:00039c77       __initialize_onexit_table  0043ac77 f   ucrtd:ucrtbased.dll
 0001:00039c7d       __register_onexit_function 0043ac7d f   ucrtd:ucrtbased.dll
 0001:00039c83       __execute_onexit_table     0043ac83 f   ucrtd:ucrtbased.dll
 0001:00039c89       __crt_atexit               0043ac89 f   ucrtd:ucrtbased.dll
 0001:00039c8f       __crt_at_quick_exit        0043ac8f f   ucrtd:ucrtbased.dll
 0001:00039c95       __controlfp_s              0043ac95 f   ucrtd:ucrtbased.dll
 0001:00039c9b       _terminate                 0043ac9b f   ucrtd:ucrtbased.dll
 0001:00039df0       _WinMain@16                0043adf0 f   SDL2main:SDL_windows_main.obj
 0001:00039e00       _main                      0043ae00 f   SDL2main:SDL_windows_main.obj
 0001:00039f50       _wmain                     0043af50 f   SDL2main:SDL_windows_main.obj
 0001:00039f55       _IsProcessorFeaturePresent@4 0043af55 f   kernel32:KERNEL32.dll
 0001:00039f5b       _QueryPerformanceCounter@4 0043af5b f   kernel32:KERNEL32.dll
 0001:00039f61       _GetCurrentProcessId@0     0043af61 f   kernel32:KERNEL32.dll
 0001:00039f67       _GetCurrentThreadId@0      0043af67 f   kernel32:KERNEL32.dll
 0001:00039f6d       _GetSystemTimeAsFileTime@4 0043af6d f   kernel32:KERNEL32.dll
 0001:00039f73       _InitializeSListHead@4     0043af73 f   kernel32:KERNEL32.dll
 0001:00039f79       _IsDebuggerPresent@0       0043af79 f   kernel32:KERNEL32.dll
 0001:00039f7f       _UnhandledExceptionFilter@4 0043af7f f   kernel32:KERNEL32.dll
 0001:00039f85       _SetUnhandledExceptionFilter@4 0043af85 f   kernel32:KERNEL32.dll
 0001:00039f8b       _GetStartupInfoW@4         0043af8b f   kernel32:KERNEL32.dll
 0001:00039f91       _GetModuleHandleW@4        0043af91 f   kernel32:KERNEL32.dll
 0001:00039f97       _GetCurrentProcess@0       0043af97 f   kernel32:KERNEL32.dll
 0001:00039f9d       _TerminateProcess@8        0043af9d f   kernel32:KERNEL32.dll
 0001:00039fa3       _GetCommandLineW@0         0043afa3 f   kernel32:KERNEL32.dll
 0001:00039fa9       _VirtualAlloc@16           0043afa9 f   kernel32:KERNEL32.dll
 0001:00039faf       _VirtualFree@12            0043afaf f   kernel32:KERNEL32.dll
 0001:00039fb5       _WideCharToMultiByte@32    0043afb5 f   kernel32:KERNEL32.dll
 0001:00039fbb       _SDL_SetMainReady          0043afbb f   SDL2:SDL2.dll
 0001:00039fc1       _SDL_ShowSimpleMessageBox  0043afc1 f   SDL2:SDL2.dll
 0001:00039fd0       ___acrt_initialize         0043afd0 f   MSVCRTD:ucrt_stubs.obj
 0001:00039fd0       ___scrt_stub_for_acrt_initialize 0043afd0 f   MSVCRTD:ucrt_stubs.obj
 0001:00039fd0       ___vcrt_initialize         0043afd0 f   MSVCRTD:ucrt_stubs.obj
 0001:00039fe0       ___acrt_thread_attach      0043afe0 f   MSVCRTD:ucrt_stubs.obj
 0001:00039fe0       ___scrt_stub_for_acrt_thread_attach 0043afe0 f   MSVCRTD:ucrt_stubs.obj
 0001:00039fe0       ___vcrt_thread_attach      0043afe0 f   MSVCRTD:ucrt_stubs.obj
 0001:00039ff0       ___acrt_thread_detach      0043aff0 f   MSVCRTD:ucrt_stubs.obj
 0001:00039ff0       ___scrt_stub_for_acrt_thread_detach 0043aff0 f   MSVCRTD:ucrt_stubs.obj
 0001:00039ff0       ___vcrt_thread_detach      0043aff0 f   MSVCRTD:ucrt_stubs.obj
 0001:0003a000       ___acrt_uninitialize       0043b000 f   MSVCRTD:ucrt_stubs.obj
 0001:0003a000       ___scrt_stub_for_acrt_uninitialize 0043b000 f   MSVCRTD:ucrt_stubs.obj
 0001:0003a000       ___vcrt_uninitialize       0043b000 f   MSVCRTD:ucrt_stubs.obj
 0001:0003a010       ___acrt_uninitialize_critical 0043b010 f   MSVCRTD:ucrt_stubs.obj
 0001:0003a010       ___scrt_stub_for_acrt_uninitialize_critical 0043b010 f   MSVCRTD:ucrt_stubs.obj
 0001:0003a010       ___vcrt_uninitialize_critical 0043b010 f   MSVCRTD:ucrt_stubs.obj
 0001:0003a020       ___scrt_stub_for_is_c_termination_complete 0043b020 f   MSVCRTD:ucrt_stubs.obj
 0001:0003a020       __is_c_termination_complete 0043b020 f   MSVCRTD:ucrt_stubs.obj
 0001:0003a030       __filter_x86_sse2_floating_point_exception 0043b030 f   MSVCRTD:x86_exception_filter.obj
 0001:0003a030       __filter_x86_sse2_floating_point_exception_default 0043b030 f   MSVCRTD:x86_exception_filter.obj
 0002:00000000       ___xc_a                    00442000     MSVCRTD:initializers.obj
 0002:0000030c       ___xc_z                    0044230c     MSVCRTD:initializers.obj
 0002:00000410       ___xi_a                    00442410     MSVCRTD:initializers.obj
 0002:0000071c       ___xi_z                    0044271c     MSVCRTD:initializers.obj
 0002:00000820       ___xp_a                    00442820     MSVCRTD:initializers.obj
 0002:00000924       ___xp_z                    00442924     MSVCRTD:initializers.obj
 0002:00000a28       ___xt_a                    00442a28     MSVCRTD:initializers.obj
 0002:00000b2c       ___xt_z                    00442b2c     MSVCRTD:initializers.obj
 0002:00001054       ??_7exception@std@@6B@     00443054     Arrow.obj
 0002:00001060       ??_C@_0BC@EOODALEL@Unknown?5exception@ 00443060     Arrow.obj
 0002:0000107c       ??_7bad_alloc@std@@6B@     0044307c     Arrow.obj
 0002:0000108c       ??_7bad_array_new_length@std@@6B@ 0044308c     Arrow.obj
 0002:00001098       ??_C@_0BF@KINCDENJ@bad?5array?5new?5length@ 00443098     Arrow.obj
 0002:000010b4       ??_C@_0BB@FCMFBGOM@invalid?5argument@ 004430b4     Arrow.obj
 0002:000010c8       ??_C@_02DKCKIIND@?$CFs@    004430c8     Arrow.obj
 0002:000010d0       ??_C@_0GC@GFIHGGPN@C?3?2Program?5Files?2Microsoft?5Visu@ 004430d0     Arrow.obj
 0002:00001148       ??_C@_1ME@KDCJLOP@?$AAC?$AA?3?$AA?2?$AAP?$AAr?$AAo?$AAg?$AAr?$AAa?$AAm?$AA?5?$AAF?$AAi?$AAl?$AAe@ 00443148     Arrow.obj
 0002:00001234       ??_C@_11LOCGONAA@@         00443234     Arrow.obj
 0002:00001238       ??_C@_1CG@JNLFBNGN@?$AA?$CC?$AAi?$AAn?$AAv?$AAa?$AAl?$AAi?$AAd?$AA?5?$AAa?$AAr?$AAg?$AAu?$AAm?$AAe@ 00443238     Arrow.obj
 0002:00001268       ??_C@_0BJ@LFDBABJJ@ITERATOR?5LIST?5CORRUPTED?$CB@ 00443268     Arrow.obj
 0002:00001288       ??_C@_1DG@PLBPCAEM@?$AA?$CC?$AAI?$AAT?$AAE?$AAR?$AAA?$AAT?$AAO?$AAR?$AA?5?$AAL?$AAI?$AAS?$AAT?$AA?5@ 00443288     Arrow.obj
 0002:000012c8       ??_C@_0BA@JFNIOLAK@string?5too?5long@ 004432c8     Arrow.obj
 0002:000012dc       ??_C@_0BB@GCADKGJO@map?1set?5too?5long@ 004432dc     Arrow.obj
 0002:000012f0       ??_C@_0DC@BNOGMHFL@Error?5creating?5surface?5in?5RawIm@ 004432f0     Arrow.obj
 0002:00001330       ??_7ImagePixelMapping@@6B@ 00443330     Arrow.obj
 0002:00001340       ??_7ImageTracking@@6B@     00443340     Arrow.obj
 0002:0000134c       ??_C@_0BD@IFIGDDIC@?7?7?$CL?$CL?$CL?5Load?5image?3?5@ 0044334c     Arrow.obj
 0002:00001364       ??_C@_0DJ@OJEPJEDH@ImageManager?3?3getImagePtrbyURL?$CI@ 00443364     Arrow.obj
 0002:000013a8       ??_C@_0BJ@LOCNEGOL@Failed?5to?5load?5image?5?$CFs?6@ 004433a8     Arrow.obj
 0002:000013c8       ??_C@_0BP@OLDKBHLM@map?1set?5iterators?5incompatible@ 004433c8     Arrow.obj
 0002:000013f0       ??_C@_0GA@INMJJLGF@C?3?2Program?5Files?2Microsoft?5Visu@ 004433f0     Arrow.obj
 0002:00001468       ??_C@_1MA@LBEPAJEF@?$AAC?$AA?3?$AA?2?$AAP?$AAr?$AAo?$AAg?$AAr?$AAa?$AAm?$AA?5?$AAF?$AAi?$AAl?$AAe@ 00443468     Arrow.obj
 0002:00001550       ??_C@_1EC@JLIDLCDH@?$AA?$CC?$AAm?$AAa?$AAp?$AA?1?$AAs?$AAe?$AAt?$AA?5?$AAi?$AAt?$AAe?$AAr?$AAa?$AAt@ 00443550     Arrow.obj
 0002:000015a0       ??_C@_0DG@LCFNIIPB@cannot?5dereference?5value?9initia@ 004435a0     Arrow.obj
 0002:000015e0       ??_C@_1HA@ILGCNILF@?$AA?$CC?$AAc?$AAa?$AAn?$AAn?$AAo?$AAt?$AA?5?$AAd?$AAe?$AAr?$AAe?$AAf?$AAe?$AAr@ 004435e0     Arrow.obj
 0002:00001668       ??_C@_0CI@OKFEHCEB@cannot?5dereference?5end?5map?1set?5@ 00443668     Arrow.obj
 0002:00001698       ??_C@_1FE@NKHAAGMB@?$AA?$CC?$AAc?$AAa?$AAn?$AAn?$AAo?$AAt?$AA?5?$AAd?$AAe?$AAr?$AAe?$AAf?$AAe?$AAr@ 00443698     Arrow.obj
 0002:000016fc       ??_C@_0DG@KGHKKGBC@null?5pointer?5cannot?5point?5to?5a?5@ 004436fc     Arrow.obj
 0002:00001740       ??_C@_1HA@FACCKGGH@?$AA?$CC?$AAn?$AAu?$AAl?$AAl?$AA?5?$AAp?$AAo?$AAi?$AAn?$AAt?$AAe?$AAr?$AA?5?$AAc@ 00443740     Arrow.obj
 0002:000017c8       ??_C@_0DA@GGPHOHEL@map?1set?5erase?5iterator?5from?5inc@ 004437c8     Arrow.obj
 0002:00001808       ??_C@_1GE@FENJBJJO@?$AA?$CC?$AAm?$AAa?$AAp?$AA?1?$AAs?$AAe?$AAt?$AA?5?$AAe?$AAr?$AAa?$AAs?$AAe?$AA?5@ 00443808     Arrow.obj
 0002:00001880       ??_C@_0CE@JAJNKOFK@cannot?5erase?5map?1set?5end?$CI?$CJ?5iter@ 00443880     Arrow.obj
 0002:000018b0       ??_C@_1EM@MEAEPHLP@?$AA?$CC?$AAc?$AAa?$AAn?$AAn?$AAo?$AAt?$AA?5?$AAe?$AAr?$AAa?$AAs?$AAe?$AA?5?$AAm@ 004438b0     Arrow.obj
 0002:00001910       ??_7?$_Ref_count@VRawImageData@@@std@@6B@ 00443910     Arrow.obj
 0002:00001928       ??_C@_0GD@JCANJH@C?3?2Program?5Files?2Microsoft?5Visu@ 00443928     Arrow.obj
 0002:000019a0       ??_C@_1MG@LDPLICNP@?$AAC?$AA?3?$AA?2?$AAP?$AAr?$AAo?$AAg?$AAr?$AAa?$AAm?$AA?5?$AAF?$AAi?$AAl?$AAe@ 004439a0     Arrow.obj
 0002:00001a90       ??_C@_0BD@FEEMDEPI@invalid?5comparator@ 00443a90     Arrow.obj
 0002:00001aa8       ??_C@_1CK@NDNHPKPI@?$AA?$CC?$AAi?$AAn?$AAv?$AAa?$AAl?$AAi?$AAd?$AA?5?$AAc?$AAo?$AAm?$AAp?$AAa?$AAr@ 00443aa8     Arrow.obj
 0002:00002304       ??_C@_0CN@GHCLOPHF@Error?5in?5setting?5pixel?9?5should?5@ 00444304     DraggingDemo.obj
 0002:00002340       ??_C@_0JM@GIEKPEHN@WARNING?3?5Attempted?5write?5to?5sur@ 00444340     DraggingDemo.obj
 0002:00002400       ??_7DragableBaseClassObject@@6B@ 00444400     DraggingDemo.obj
 0002:00002458       ??_7DragableObject@@6B@    00444458     DraggingDemo.obj
 0002:000024b0       ??_7DragableImageObject@@6B@ 004444b0     DraggingDemo.obj
 0002:00002508       ??_7ImageObject@@6B@       00444508     DraggingDemo.obj
 0002:00002548       ??_C@_0GB@FLOGEF@C?3?2Program?5Files?2Microsoft?5Visu@ 00444548     DraggingDemo.obj
 0002:000025c0       ??_C@_1MC@LACENGKK@?$AAC?$AA?3?$AA?2?$AAP?$AAr?$AAo?$AAg?$AAr?$AAa?$AAm?$AA?5?$AAF?$AAi?$AAl?$AAe@ 004445c0     DraggingDemo.obj
 0002:000026a8       ??_C@_0BO@PFKOHNJC@vector?5subscript?5out?5of?5range@ 004446a8     DraggingDemo.obj
 0002:000026d0       ??_C@_1EA@LEKOKFNB@?$AA?$CC?$AAv?$AAe?$AAc?$AAt?$AAo?$AAr?$AA?5?$AAs?$AAu?$AAb?$AAs?$AAc?$AAr?$AAi@ 004446d0     DraggingDemo.obj
 0002:0000271c       ??_C@_0BA@FOIKENOD@vector?5too?5long@ 0044471c     DraggingDemo.obj
 0002:00002a88       ?MY_PI@DrawingSurface@@2NB 00444a88     DrawingSurface.obj
 0002:00002b40       ??_C@_0LN@HOLHFHJI@WARNING?3?5Attempted?5blit?5to?5lock@ 00444b40     DrawingSurface.obj
 0002:00002c28       __real@3fe0000000000000    00444c28     DrawingSurface.obj
 0002:00002c38       __real@3fe0c152382d7365    00444c38     DrawingSurface.obj
 0002:00002c48       __real@3ff0000000000000    00444c48     DrawingSurface.obj
 0002:00002c58       __real@3ff8000000000000    00444c58     DrawingSurface.obj
 0002:00002c68       __real@3ff921fb54442d18    00444c68     DrawingSurface.obj
 0002:00002c78       __real@4000000000000000    00444c78     DrawingSurface.obj
 0002:00002c88       __real@4008000000000000    00444c88     DrawingSurface.obj
 0002:00002c98       __real@400921fb54442d18    00444c98     DrawingSurface.obj
 0002:00002ca8       __real@400f6a7a2955385e    00444ca8     DrawingSurface.obj
 0002:00002cb8       __real@4010000000000000    00444cb8     DrawingSurface.obj
 0002:00002cc8       __real@401921fb54442d18    00444cc8     DrawingSurface.obj
 0002:00003118       ??_7GameObject@@6B@        00445118     Enemy.obj
 0002:0000315c       ??_7Attack@@6B@            0044515c     Enemy.obj
 0002:0000319c       ??_C@_08HKKFAGEA@ufo1?4png@ 0044519c     Enemy.obj
 0002:000035b0       ??_7FlashingDemo@@6BDisplayableObjectContainer@@@ 004455b0     FlashingDemo.obj
 0002:0000365c       ??_7FlashingDemo@@6BFilterPoints@@@ 0044565c     FlashingDemo.obj
 0002:00003ecc       ??_7MappableImageObject@@6B@ 00445ecc     ImageMappingDemo.obj
 0002:00003f20       __real@3f1a36e2eb1c432d    00445f20     ImageMappingDemo.obj
 0002:00003f30       __real@4059000000000000    00445f30     ImageMappingDemo.obj
 0002:00003f40       __real@c059000000000000    00445f40     ImageMappingDemo.obj
 0002:00004358       ??_C@_0CE@FFEOOBMH@vector?$DMbool?$DO?5subscript?5out?5of?5r@ 00446358     MST.obj
 0002:00004388       ??_C@_1EM@HCHFCCIP@?$AA?$CC?$AAv?$AAe?$AAc?$AAt?$AAo?$AAr?$AA?$DM?$AAb?$AAo?$AAo?$AAl?$AA?$DO?$AA?5?$AAs@ 00446388     MST.obj
 0002:000043e4       ??_C@_0CE@EAMOGAIE@vector?5erase?5iterator?5outside?5r@ 004463e4     MST.obj
 0002:00004410       ??_C@_1EM@BEMPOGMM@?$AA?$CC?$AAv?$AAe?$AAc?$AAt?$AAo?$AAr?$AA?5?$AAe?$AAr?$AAa?$AAs?$AAe?$AA?5?$AAi@ 00446410     MST.obj
 0002:0000446c       ??_C@_0DL@EIIPGNKA@cannot?5dereference?5value?9initia@ 0044646c     MST.obj
 0002:000044b8       ??_C@_1HK@NLJEKNBE@?$AA?$CC?$AAc?$AAa?$AAn?$AAn?$AAo?$AAt?$AA?5?$AAd?$AAe?$AAr?$AAe?$AAf?$AAe?$AAr@ 004464b8     MST.obj
 0002:0000454c       ??_C@_0CK@FLJLFEAD@vector?$DMbool?$DO?5iterator?5not?5deref@ 0044654c     MST.obj
 0002:00004580       ??_C@_1FI@IBAHAGLP@?$AA?$CC?$AAv?$AAe?$AAc?$AAt?$AAo?$AAr?$AA?$DM?$AAb?$AAo?$AAo?$AAl?$AA?$DO?$AA?5?$AAi@ 00446580     MST.obj
 0002:000045ec       ??_C@_0BP@KGLJJIBC@front?$CI?$CJ?5called?5on?5empty?5vector@ 004465ec     MST.obj
 0002:00004618       ??_C@_1EC@GDGFILAB@?$AA?$CC?$AAf?$AAr?$AAo?$AAn?$AAt?$AA?$CI?$AA?$CJ?$AA?5?$AAc?$AAa?$AAl?$AAl?$AAe?$AAd@ 00446618     MST.obj
 0002:00004668       ??_C@_0BI@PJHAPDF@vector?5empty?5before?5pop@ 00446668     MST.obj
 0002:00004684       ??_C@_1DE@IPIBMNGD@?$AA?$CC?$AAv?$AAe?$AAc?$AAt?$AAo?$AAr?$AA?5?$AAe?$AAm?$AAp?$AAt?$AAy?$AA?5?$AAb@ 00446684     MST.obj
 0002:000046c4       ??_C@_0BG@EOMJEIFA@vector?$DMbool?$DO?5too?5long@ 004466c4     MST.obj
 0002:000046e0       ??_C@_0CO@LHPFLLJB@cannot?5seek?5value?9initialized?5v@ 004466e0     MST.obj
 0002:00004718       ??_C@_1GA@EIHBFEJD@?$AA?$CC?$AAc?$AAa?$AAn?$AAn?$AAo?$AAt?$AA?5?$AAs?$AAe?$AAe?$AAk?$AA?5?$AAv?$AAa@ 00446718     MST.obj
 0002:0000478c       ??_C@_0CJ@DIFMEJBE@cannot?5seek?5vector?5iterator?5bef@ 0044678c     MST.obj
 0002:000047c0       ??_C@_1FG@JCGKNFIB@?$AA?$CC?$AAc?$AAa?$AAn?$AAn?$AAo?$AAt?$AA?5?$AAs?$AAe?$AAe?$AAk?$AA?5?$AAv?$AAe@ 004467c0     MST.obj
 0002:00004828       ??_C@_0CG@JDIOCKHH@cannot?5seek?5vector?5iterator?5aft@ 00446828     MST.obj
 0002:00004858       ??_C@_1FA@LCODAPOP@?$AA?$CC?$AAc?$AAa?$AAn?$AAn?$AAo?$AAt?$AA?5?$AAs?$AAe?$AAe?$AAk?$AA?5?$AAv?$AAe@ 00446858     MST.obj
 0002:000048b8       ??_C@_0DI@PBEELKIF@vector?5iterators?5in?5range?5are?5f@ 004468b8     MST.obj
 0002:00004900       ??_C@_1HE@KBMFDAFB@?$AA?$CC?$AAv?$AAe?$AAc?$AAt?$AAo?$AAr?$AA?5?$AAi?$AAt?$AAe?$AAr?$AAa?$AAt?$AAo@ 00446900     MST.obj
 0002:0000498c       ??_C@_0CB@LIAHLBAO@vector?5iterator?5range?5transpose@ 0044698c     MST.obj
 0002:000049b8       ??_C@_1EG@ODKBEHFN@?$AA?$CC?$AAv?$AAe?$AAc?$AAt?$AAo?$AAr?$AA?5?$AAi?$AAt?$AAe?$AAr?$AAa?$AAt?$AAo@ 004469b8     MST.obj
 0002:00005508       ??_7State@@6B@             00447508     LoseState.obj
 0002:0000553c       ??_7StartupState@@6B@      0044753c     LoseState.obj
 0002:00005570       ??_7LoseState@@6B@         00447570     LoseState.obj
 0002:00005e60       ??_7FilterPoints@@6B@      00447e60     BaseEngine.obj
 0002:00005e7c       ??_7DisplayableObjectContainer@@6B@ 00447e7c     BaseEngine.obj
 0002:00005e8c       ??_7BaseEngine@@6BDisplayableObjectContainer@@@ 00447e8c     BaseEngine.obj
 0002:00005f38       ??_7BaseEngine@@6BFilterPoints@@@ 00447f38     BaseEngine.obj
 0002:00005f50       ??_C@_0DE@CHADHGFF@can?8t?5dereference?5value?9initial@ 00447f50     BaseEngine.obj
 0002:00005f90       ??_C@_1GM@FNBFNBEL@?$AA?$CC?$AAc?$AAa?$AAn?$AA?8?$AAt?$AA?5?$AAd?$AAe?$AAr?$AAe?$AAf?$AAe?$AAr?$AAe@ 00447f90     BaseEngine.obj
 0002:00006014       ??_C@_0CP@MDHADBHN@can?8t?5dereference?5out?5of?5range?5@ 00448014     BaseEngine.obj
 0002:00006050       ??_C@_1GC@JDCKOLAC@?$AA?$CC?$AAc?$AAa?$AAn?$AA?8?$AAt?$AA?5?$AAd?$AAe?$AAr?$AAe?$AAf?$AAe?$AAr?$AAe@ 00448050     BaseEngine.obj
 0002:000060c8       ??_C@_0DC@KEKNBAEB@can?8t?5increment?5value?9initializ@ 004480c8     BaseEngine.obj
 0002:00006108       ??_C@_1GI@EDCILPL@?$AA?$CC?$AAc?$AAa?$AAn?$AA?8?$AAt?$AA?5?$AAi?$AAn?$AAc?$AAr?$AAe?$AAm?$AAe?$AAn@ 00448108     BaseEngine.obj
 0002:00006184       ??_C@_0CJ@OAAAAGPM@can?8t?5increment?5vector?5iterator@ 00448184     BaseEngine.obj
 0002:000061b8       ??_C@_1FG@LDPPKMGP@?$AA?$CC?$AAc?$AAa?$AAn?$AA?8?$AAt?$AA?5?$AAi?$AAn?$AAc?$AAr?$AAe?$AAm?$AAe?$AAn@ 004481b8     BaseEngine.obj
 0002:00006220       ??_C@_0BO@CAOBBIOC@vector?5iterators?5incompatible@ 00448220     BaseEngine.obj
 0002:00006248       ??_C@_1EA@DJDGNIII@?$AA?$CC?$AAv?$AAe?$AAc?$AAt?$AAo?$AAr?$AA?5?$AAi?$AAt?$AAe?$AAr?$AAa?$AAt?$AAo@ 00448248     BaseEngine.obj
 0002:000066a0       ??_7DisplayableObject@@6B@ 004486a0     DisplayableObject.obj
 0002:00006948       ??_C@_0BI@GMOFELCF@Free?5font?3?5?$CFd?5point?5?$CFs?6@ 00448948     FontManager.obj
 0002:000075ec       ??_7bad_cast@std@@6B@      004495ec     Psydp3Engine.obj
 0002:000075f8       ??_C@_08EPJLHIJG@bad?5cast@ 004495f8     Psydp3Engine.obj
 0002:00007608       ??_7TileManager@@6B@       00449608     Psydp3Engine.obj
 0002:00007618       ??_7NumberTiles@@6B@       00449618     Psydp3Engine.obj
 0002:00007628       ??_7CircuitTiles@@6B@      00449628     Psydp3Engine.obj
 0002:00007638       ??_7ZoomPoints@@6B@        00449638     Psydp3Engine.obj
 0002:00007654       ??_7ScrollPoints@@6B@      00449654     Psydp3Engine.obj
 0002:00007670       ??_7Psydp3Engine@@6BDisplayableObjectContainer@@@ 00449670     Psydp3Engine.obj
 0002:0000771c       ??_7Psydp3Engine@@6BFilterPoints@@@ 0044971c     Psydp3Engine.obj
 0002:00007738       ??_7?$basic_filebuf@DU?$char_traits@D@std@@@std@@6B@ 00449738     Psydp3Engine.obj
 0002:00007784       ??_7?$basic_ofstream@DU?$char_traits@D@std@@@std@@6B@ 00449784     Psydp3Engine.obj
 0002:0000778c       ??_8?$basic_ofstream@DU?$char_traits@D@std@@@std@@7B@ 0044978c     Psydp3Engine.obj
 0002:00007798       ??_C@_0GC@JMEKGKBE@C?3?2Program?5Files?2Microsoft?5Visu@ 00449798     Psydp3Engine.obj
 0002:00007810       ??_C@_1ME@OELOGCDO@?$AAC?$AA?3?$AA?2?$AAP?$AAr?$AAo?$AAg?$AAr?$AAa?$AAm?$AA?5?$AAF?$AAi?$AAl?$AAe@ 00449810     Psydp3Engine.obj
 0002:000078fc       ??_C@_0BP@PFIPNLNI@front?$CI?$CJ?5called?5on?5empty?5string@ 004498fc     Psydp3Engine.obj
 0002:00007928       ??_C@_1EC@DINNLDHA@?$AA?$CC?$AAf?$AAr?$AAo?$AAn?$AAt?$AA?$CI?$AA?$CJ?$AA?5?$AAc?$AAa?$AAl?$AAl?$AAe?$AAd@ 00449928     Psydp3Engine.obj
 0002:00007978       ??_C@_0BI@CFPLBAOH@invalid?5string?5position@ 00449978     Psydp3Engine.obj
 0002:00007dd8       __real@3fa999999999999a    00449dd8     Attack.obj
 0002:00007de8       __real@3fc0a3d70a3d70a4    00449de8     Attack.obj
 0002:00007df8       __real@3fd41b2f769cf0e0    00449df8     Attack.obj
 0002:00008254       ??_7RunningState@@6B@      0044a254     RunningState.obj
 0002:00008288       ??_7WinState@@6B@          0044a288     RunningState.obj
 0002:000082bc       ??_7Player@@6B@            0044a2bc     RunningState.obj
 0002:000082fc       ??_C@_0M@FJKAEAFD@rocket1?4png@ 0044a2fc     RunningState.obj
 0002:00008310       ??_7Enemy@@6B@             0044a310     RunningState.obj
 0002:00008350       ??_C@_09HHGBBPKO@ship1?4png@ 0044a350     RunningState.obj
 0002:00008360       ??_7PauseSymbol@@6B@       0044a360     RunningState.obj
 0002:000083a4       ??_7MST@@6B@               0044a3a4     RunningState.obj
 0002:00008a20       ??_7CroppedImagePixelMapping@@6B@ 0044aa20     SimpleImage.obj
 0002:00008eec       ??_7BouncingObject@@6B@    0044aeec     SimpleDemo.obj
 0002:00008f30       __real@0000000000000000    0044af30     SimpleDemo.obj
 0002:00008f40       __real@3f747ae147ae147b    0044af40     SimpleDemo.obj
 0002:00008f50       __real@4004000000000000    0044af50     SimpleDemo.obj
 0002:00008f60       __real@400c000000000000    0044af60     SimpleDemo.obj
 0002:00008f70       __real@4069000000000000    0044af70     SimpleDemo.obj
 0002:00008f80       __real@4072c00000000000    0044af80     SimpleDemo.obj
 0002:00008f90       __xmm@80000000000000008000000000000000 0044af90     SimpleDemo.obj
 0002:000097b8       ??_7StarfieldDemo@@6BDisplayableObjectContainer@@@ 0044b7b8     StarfieldDemo.obj
 0002:00009864       ??_7StarfieldDemo@@6BFilterPoints@@@ 0044b864     StarfieldDemo.obj
 0002:00009d34       ??_7Slider@@6B@            0044bd34     StartupState.obj
 0002:00009d78       ??_7?$basic_ifstream@DU?$char_traits@D@std@@@std@@6B@ 0044bd78     StartupState.obj
 0002:00009d80       ??_8?$basic_ifstream@DU?$char_traits@D@std@@@std@@7B@ 0044bd80     StartupState.obj
 0002:00009d8c       ??_C@_0BO@LFGPDMIB@string?5subscript?5out?5of?5range@ 0044bd8c     StartupState.obj
 0002:00009db0       ??_C@_1EA@OADAPGGK@?$AA?$CC?$AAs?$AAt?$AAr?$AAi?$AAn?$AAg?$AA?5?$AAs?$AAu?$AAb?$AAs?$AAc?$AAr?$AAi@ 0044bdb0     StartupState.obj
 0002:0000a840       ??_7BouncingBall@@6B@      0044c840     BouncingBall.obj
 0002:0000a884       ??_7BouncingBall1@@6B@     0044c884     BouncingBall.obj
 0002:0000a8c8       ??_7BouncingBall2@@6B@     0044c8c8     BouncingBall.obj
 0002:0000a908       __real@3f847ae147ae147b    0044c908     BouncingBall.obj
 0002:0000ad58       __real@3fe999999999999a    0044cd58     BouncingBallMain.obj
 0002:0000ad68       __real@3ff199999999999a    0044cd68     BouncingBallMain.obj
 0002:0000ad78       __real@3ff3333333333333    0044cd78     BouncingBallMain.obj
 0002:0000ad88       __real@4049000000000000    0044cd88     BouncingBallMain.obj
 0002:0000ad98       __real@4062c00000000000    0044cd98     BouncingBallMain.obj
 0002:0000ada8       __real@4066800000000000    0044cda8     BouncingBallMain.obj
 0002:0000adb8       __real@406f400000000000    0044cdb8     BouncingBallMain.obj
 0002:0000adc8       __real@4071300000000000    0044cdc8     BouncingBallMain.obj
 0002:0000add8       __real@4074500000000000    0044cdd8     BouncingBallMain.obj
 0002:0000ade8       __real@4075e00000000000    0044cde8     BouncingBallMain.obj
 0002:0000adf8       __real@4077700000000000    0044cdf8     BouncingBallMain.obj
 0002:0000ae08       __real@4079000000000000    0044ce08     BouncingBallMain.obj
 0002:0000ae18       __real@4079a00000000000    0044ce18     BouncingBallMain.obj
 0002:0000ae28       __real@407c200000000000    0044ce28     BouncingBallMain.obj
 0002:0000ae38       __real@407f400000000000    0044ce38     BouncingBallMain.obj
 0002:0000ae48       __real@4081300000000000    0044ce48     BouncingBallMain.obj
 0002:0000ae58       __real@4082c00000000000    0044ce58     BouncingBallMain.obj
 0002:0000ae68       __real@4084500000000000    0044ce68     BouncingBallMain.obj
 0002:0000ae78       __real@4087700000000000    0044ce78     BouncingBallMain.obj
 0002:0000b2dc       ??_7Arrow@@6B@             0044d2dc     WinState.obj
 0002:0000b7c4       ??_7SimpleFlashingDragableImageObject@@6B@ 0044d7c4     ZoomingDemo.obj
 0002:0000bfd8       ??_7MazeDemoTileManager@@6B@ 0044dfd8     MazeDemoMain.obj
 0002:0000bfe8       ??_7MazeDemoMain@@6BDisplayableObjectContainer@@@ 0044dfe8     MazeDemoMain.obj
 0002:0000c094       ??_7MazeDemoMain@@6BFilterPoints@@@ 0044e094     MazeDemoMain.obj
 0002:0000c4b8       ??_7MazeDemoObject@@6B@    0044e4b8     MazeDemoObject.obj
 0002:0000c8fc       ??_C@_0DK@PCBCHJKC@D?3?2a?2_work?21?2s?2src?2vctools?2crt?2@ 0044e8fc     msvcprtd:locale0_implib.obj
 0002:0000c950       __xmm@000102030405060708090a0b0c0d0e0f 0044e950     msvcprtd:vector_algorithms.obj
 0002:0000c970       __xmm@010003020504070609080b0a0d0c0f0e 0044e970     msvcprtd:vector_algorithms.obj
 0002:0000c9a0       __ymm@0000000000000001000000020000000300000004000000050000000600000007 0044e9a0     msvcprtd:vector_algorithms.obj
 0002:0000c9e0       __ymm@000102030405060708090a0b0c0d0e0f000102030405060708090a0b0c0d0e0f 0044e9e0     msvcprtd:vector_algorithms.obj
 0002:0000ca20       __ymm@010003020504070609080b0a0d0c0f0e010003020504070609080b0a0d0c0f0e 0044ea20     msvcprtd:vector_algorithms.obj
 0002:0000ca4c       ??_7type_info@@6B@         0044ea4c     MSVCRTD:std_type_info_static.obj
 0002:0000ca54       ??_C@_0P@GHFPNOJB@bad?5allocation@ 0044ea54     MSVCRTD:throw_bad_alloc.obj
 0002:0000ca74       ??_C@_0BJ@HFNMHALN@Out?5of?5memory?5?9?5aborting@ 0044ea74     SDL2main:SDL_windows_main.obj
 0002:0000ca94       ??_C@_0M@HFFOIJBL@Fatal?5Error@ 0044ea94     SDL2main:SDL_windows_main.obj
 0002:0000caa8       __load_config_used         0044eaa8     MSVCRTD:loadcfg.obj
 0002:0000ce00       ___CastGuardVftablesStart  0044ee00     MSVCRTD:guard_support.obj
 0002:0000cf80       ___CastGuardVftablesEnd    0044ef80     MSVCRTD:guard_support.obj
 0002:0000d0cc       ??_R4exception@std@@6B@    0044f0cc     Arrow.obj
 0002:0000d0e4       ??_R3exception@std@@8      0044f0e4     Arrow.obj
 0002:0000d0f8       ??_R2exception@std@@8      0044f0f8     Arrow.obj
 0002:0000d100       ??_R1A@?0A@EA@exception@std@@8 0044f100     Arrow.obj
 0002:0000d124       ??_R4bad_alloc@std@@6B@    0044f124     Arrow.obj
 0002:0000d13c       ??_R3bad_alloc@std@@8      0044f13c     Arrow.obj
 0002:0000d150       ??_R2bad_alloc@std@@8      0044f150     Arrow.obj
 0002:0000d15c       ??_R1A@?0A@EA@bad_alloc@std@@8 0044f15c     Arrow.obj
 0002:0000d180       ??_R4bad_array_new_length@std@@6B@ 0044f180     Arrow.obj
 0002:0000d198       ??_R3bad_array_new_length@std@@8 0044f198     Arrow.obj
 0002:0000d1ac       ??_R2bad_array_new_length@std@@8 0044f1ac     Arrow.obj
 0002:0000d1bc       ??_R1A@?0A@EA@bad_array_new_length@std@@8 0044f1bc     Arrow.obj
 0002:0000d1e0       ??_R3_Ref_count_base@std@@8 0044f1e0     Arrow.obj
 0002:0000d1f4       ??_R2_Ref_count_base@std@@8 0044f1f4     Arrow.obj
 0002:0000d1fc       ??_R1A@?0A@EA@_Ref_count_base@std@@8 0044f1fc     Arrow.obj
 0002:0000d220       ??_R4ImagePixelMapping@@6B@ 0044f220     Arrow.obj
 0002:0000d238       ??_R3ImagePixelMapping@@8  0044f238     Arrow.obj
 0002:0000d24c       ??_R2ImagePixelMapping@@8  0044f24c     Arrow.obj
 0002:0000d254       ??_R1A@?0A@EA@ImagePixelMapping@@8 0044f254     Arrow.obj
 0002:0000d278       ??_R4ImageTracking@@6B@    0044f278     Arrow.obj
 0002:0000d290       ??_R3ImageTracking@@8      0044f290     Arrow.obj
 0002:0000d2a4       ??_R2ImageTracking@@8      0044f2a4     Arrow.obj
 0002:0000d2b0       ??_R1A@?0A@EA@ImageTracking@@8 0044f2b0     Arrow.obj
 0002:0000d2d4       ??_R4?$_Ref_count@VRawImageData@@@std@@6B@ 0044f2d4     Arrow.obj
 0002:0000d2ec       ??_R3?$_Ref_count@VRawImageData@@@std@@8 0044f2ec     Arrow.obj
 0002:0000d300       ??_R2?$_Ref_count@VRawImageData@@@std@@8 0044f300     Arrow.obj
 0002:0000d30c       ??_R1A@?0A@EA@?$_Ref_count@VRawImageData@@@std@@8 0044f30c     Arrow.obj
 0002:0000d330       ??_R4DragableBaseClassObject@@6B@ 0044f330     DraggingDemo.obj
 0002:0000d348       ??_R3DragableBaseClassObject@@8 0044f348     DraggingDemo.obj
 0002:0000d35c       ??_R2DragableBaseClassObject@@8 0044f35c     DraggingDemo.obj
 0002:0000d368       ??_R1A@?0A@EA@DragableBaseClassObject@@8 0044f368     DraggingDemo.obj
 0002:0000d38c       ??_R1A@?0A@EA@DisplayableObject@@8 0044f38c     DraggingDemo.obj
 0002:0000d3b0       ??_R3DisplayableObject@@8  0044f3b0     DraggingDemo.obj
 0002:0000d3c4       ??_R2DisplayableObject@@8  0044f3c4     DraggingDemo.obj
 0002:0000d3cc       ??_R4DragableObject@@6B@   0044f3cc     DraggingDemo.obj
 0002:0000d3e4       ??_R3DragableObject@@8     0044f3e4     DraggingDemo.obj
 0002:0000d3f8       ??_R2DragableObject@@8     0044f3f8     DraggingDemo.obj
 0002:0000d408       ??_R1A@?0A@EA@DragableObject@@8 0044f408     DraggingDemo.obj
 0002:0000d42c       ??_R4DragableImageObject@@6B@ 0044f42c     DraggingDemo.obj
 0002:0000d444       ??_R3DragableImageObject@@8 0044f444     DraggingDemo.obj
 0002:0000d458       ??_R2DragableImageObject@@8 0044f458     DraggingDemo.obj
 0002:0000d468       ??_R1A@?0A@EA@DragableImageObject@@8 0044f468     DraggingDemo.obj
 0002:0000d48c       ??_R4ImageObject@@6B@      0044f48c     DraggingDemo.obj
 0002:0000d4a4       ??_R3ImageObject@@8        0044f4a4     DraggingDemo.obj
 0002:0000d4b8       ??_R2ImageObject@@8        0044f4b8     DraggingDemo.obj
 0002:0000d4c4       ??_R1A@?0A@EA@ImageObject@@8 0044f4c4     DraggingDemo.obj
 0002:0000d4e8       ??_R4GameObject@@6B@       0044f4e8     Enemy.obj
 0002:0000d500       ??_R3GameObject@@8         0044f500     Enemy.obj
 0002:0000d514       ??_R2GameObject@@8         0044f514     Enemy.obj
 0002:0000d520       ??_R1A@?0A@EA@GameObject@@8 0044f520     Enemy.obj
 0002:0000d544       ??_R4Attack@@6B@           0044f544     Enemy.obj
 0002:0000d55c       ??_R3Attack@@8             0044f55c     Enemy.obj
 0002:0000d570       ??_R2Attack@@8             0044f570     Enemy.obj
 0002:0000d580       ??_R1A@?0A@EA@Attack@@8    0044f580     Enemy.obj
 0002:0000d5a4       ??_R3DisplayableObjectContainer@@8 0044f5a4     FlashingDemo.obj
 0002:0000d5b8       ??_R2DisplayableObjectContainer@@8 0044f5b8     FlashingDemo.obj
 0002:0000d5c0       ??_R1A@?0A@EA@DisplayableObjectContainer@@8 0044f5c0     FlashingDemo.obj
 0002:0000d5e4       ??_R4FlashingDemo@@6BDisplayableObjectContainer@@@ 0044f5e4     FlashingDemo.obj
 0002:0000d5fc       ??_R3FlashingDemo@@8       0044f5fc     FlashingDemo.obj
 0002:0000d610       ??_R2FlashingDemo@@8       0044f610     FlashingDemo.obj
 0002:0000d624       ??_R1A@?0A@EA@FlashingDemo@@8 0044f624     FlashingDemo.obj
 0002:0000d648       ??_R1A@?0A@EA@BaseEngine@@8 0044f648     FlashingDemo.obj
 0002:0000d66c       ??_R3BaseEngine@@8         0044f66c     FlashingDemo.obj
 0002:0000d680       ??_R2BaseEngine@@8         0044f680     FlashingDemo.obj
 0002:0000d690       ??_R1BM@?0A@EA@FilterPoints@@8 0044f690     FlashingDemo.obj
 0002:0000d6b4       ??_R3FilterPoints@@8       0044f6b4     FlashingDemo.obj
 0002:0000d6c8       ??_R2FilterPoints@@8       0044f6c8     FlashingDemo.obj
 0002:0000d6d0       ??_R1A@?0A@EA@FilterPoints@@8 0044f6d0     FlashingDemo.obj
 0002:0000d6f4       ??_R4FlashingDemo@@6BFilterPoints@@@ 0044f6f4     FlashingDemo.obj
 0002:0000d70c       ??_R4MappableImageObject@@6B@ 0044f70c     ImageMappingDemo.obj
 0002:0000d724       ??_R3MappableImageObject@@8 0044f724     ImageMappingDemo.obj
 0002:0000d738       ??_R2MappableImageObject@@8 0044f738     ImageMappingDemo.obj
 0002:0000d74c       ??_R1A@?0A@EA@MappableImageObject@@8 0044f74c     ImageMappingDemo.obj
 0002:0000d770       ??_R4State@@6B@            0044f770     LoseState.obj
 0002:0000d788       ??_R3State@@8              0044f788     LoseState.obj
 0002:0000d79c       ??_R2State@@8              0044f79c     LoseState.obj
 0002:0000d7a4       ??_R1A@?0A@EA@State@@8     0044f7a4     LoseState.obj
 0002:0000d7c8       ??_R4StartupState@@6B@     0044f7c8     LoseState.obj
 0002:0000d7e0       ??_R3StartupState@@8       0044f7e0     LoseState.obj
 0002:0000d7f4       ??_R2StartupState@@8       0044f7f4     LoseState.obj
 0002:0000d800       ??_R1A@?0A@EA@StartupState@@8 0044f800     LoseState.obj
 0002:0000d824       ??_R4LoseState@@6B@        0044f824     LoseState.obj
 0002:0000d83c       ??_R3LoseState@@8          0044f83c     LoseState.obj
 0002:0000d850       ??_R2LoseState@@8          0044f850     LoseState.obj
 0002:0000d85c       ??_R1A@?0A@EA@LoseState@@8 0044f85c     LoseState.obj
 0002:0000d880       ??_R4BaseEngine@@6BDisplayableObjectContainer@@@ 0044f880     BaseEngine.obj
 0002:0000d898       ??_R4BaseEngine@@6BFilterPoints@@@ 0044f898     BaseEngine.obj
 0002:0000d8b0       ??_R4FilterPoints@@6B@     0044f8b0     BaseEngine.obj
 0002:0000d8c8       ??_R4DisplayableObjectContainer@@6B@ 0044f8c8     BaseEngine.obj
 0002:0000d8e0       ??_R4DisplayableObject@@6B@ 0044f8e0     DisplayableObject.obj
 0002:0000d8f8       ??_R4?$basic_filebuf@DU?$char_traits@D@std@@@std@@6B@ 0044f8f8     Psydp3Engine.obj
 0002:0000d910       ??_R3?$basic_filebuf@DU?$char_traits@D@std@@@std@@8 0044f910     Psydp3Engine.obj
 0002:0000d924       ??_R2?$basic_filebuf@DU?$char_traits@D@std@@@std@@8 0044f924     Psydp3Engine.obj
 0002:0000d930       ??_R1A@?0A@EA@?$basic_filebuf@DU?$char_traits@D@std@@@std@@8 0044f930     Psydp3Engine.obj
 0002:0000d954       ??_R1A@?0A@EA@?$basic_streambuf@DU?$char_traits@D@std@@@std@@8 0044f954     Psydp3Engine.obj
 0002:0000d978       ??_R3?$basic_streambuf@DU?$char_traits@D@std@@@std@@8 0044f978     Psydp3Engine.obj
 0002:0000d98c       ??_R2?$basic_streambuf@DU?$char_traits@D@std@@@std@@8 0044f98c     Psydp3Engine.obj
 0002:0000d994       ??_R4?$basic_ofstream@DU?$char_traits@D@std@@@std@@6B@ 0044f994     Psydp3Engine.obj
 0002:0000d9ac       ??_R3?$basic_ofstream@DU?$char_traits@D@std@@@std@@8 0044f9ac     Psydp3Engine.obj
 0002:0000d9c0       ??_R2?$basic_ofstream@DU?$char_traits@D@std@@@std@@8 0044f9c0     Psydp3Engine.obj
 0002:0000d9dc       ??_R1A@?0A@EA@?$basic_ofstream@DU?$char_traits@D@std@@@std@@8 0044f9dc     Psydp3Engine.obj
 0002:0000da00       ??_R1A@?0A@EA@?$basic_ostream@DU?$char_traits@D@std@@@std@@8 0044fa00     Psydp3Engine.obj
 0002:0000da24       ??_R3?$basic_ostream@DU?$char_traits@D@std@@@std@@8 0044fa24     Psydp3Engine.obj
 0002:0000da38       ??_R2?$basic_ostream@DU?$char_traits@D@std@@@std@@8 0044fa38     Psydp3Engine.obj
 0002:0000da4c       ??_R1A@A@3FA@?$basic_ios@DU?$char_traits@D@std@@@std@@8 0044fa4c     Psydp3Engine.obj
 0002:0000da70       ??_R3?$basic_ios@DU?$char_traits@D@std@@@std@@8 0044fa70     Psydp3Engine.obj
 0002:0000da84       ??_R2?$basic_ios@DU?$char_traits@D@std@@@std@@8 0044fa84     Psydp3Engine.obj
 0002:0000da94       ??_R1A@?0A@EA@?$basic_ios@DU?$char_traits@D@std@@@std@@8 0044fa94     Psydp3Engine.obj
 0002:0000dab8       ??_R1A@?0A@EA@ios_base@std@@8 0044fab8     Psydp3Engine.obj
 0002:0000dadc       ??_R3ios_base@std@@8       0044fadc     Psydp3Engine.obj
 0002:0000daf0       ??_R2ios_base@std@@8       0044faf0     Psydp3Engine.obj
 0002:0000dafc       ??_R17?0A@EA@?$_Iosb@H@std@@8 0044fafc     Psydp3Engine.obj
 0002:0000db20       ??_R3?$_Iosb@H@std@@8      0044fb20     Psydp3Engine.obj
 0002:0000db34       ??_R2?$_Iosb@H@std@@8      0044fb34     Psydp3Engine.obj
 0002:0000db3c       ??_R1A@?0A@EA@?$_Iosb@H@std@@8 0044fb3c     Psydp3Engine.obj
 0002:0000db60       ??_R1A@A@3EA@ios_base@std@@8 0044fb60     Psydp3Engine.obj
 0002:0000db84       ??_R17A@3EA@?$_Iosb@H@std@@8 0044fb84     Psydp3Engine.obj
 0002:0000dba8       ??_R4bad_cast@std@@6B@     0044fba8     Psydp3Engine.obj
 0002:0000dbc0       ??_R3bad_cast@std@@8       0044fbc0     Psydp3Engine.obj
 0002:0000dbd4       ??_R2bad_cast@std@@8       0044fbd4     Psydp3Engine.obj
 0002:0000dbe0       ??_R1A@?0A@EA@bad_cast@std@@8 0044fbe0     Psydp3Engine.obj
 0002:0000dc04       ??_R4Psydp3Engine@@6BDisplayableObjectContainer@@@ 0044fc04     Psydp3Engine.obj
 0002:0000dc1c       ??_R3Psydp3Engine@@8       0044fc1c     Psydp3Engine.obj
 0002:0000dc30       ??_R2Psydp3Engine@@8       0044fc30     Psydp3Engine.obj
 0002:0000dc44       ??_R1A@?0A@EA@Psydp3Engine@@8 0044fc44     Psydp3Engine.obj
 0002:0000dc68       ??_R4Psydp3Engine@@6BFilterPoints@@@ 0044fc68     Psydp3Engine.obj
 0002:0000dc80       ??_R4TileManager@@6B@      0044fc80     Psydp3Engine.obj
 0002:0000dc98       ??_R3TileManager@@8        0044fc98     Psydp3Engine.obj
 0002:0000dcac       ??_R2TileManager@@8        0044fcac     Psydp3Engine.obj
 0002:0000dcb4       ??_R1A@?0A@EA@TileManager@@8 0044fcb4     Psydp3Engine.obj
 0002:0000dcd8       ??_R4NumberTiles@@6B@      0044fcd8     Psydp3Engine.obj
 0002:0000dcf0       ??_R3NumberTiles@@8        0044fcf0     Psydp3Engine.obj
 0002:0000dd04       ??_R2NumberTiles@@8        0044fd04     Psydp3Engine.obj
 0002:0000dd10       ??_R1A@?0A@EA@NumberTiles@@8 0044fd10     Psydp3Engine.obj
 0002:0000dd34       ??_R4CircuitTiles@@6B@     0044fd34     Psydp3Engine.obj
 0002:0000dd4c       ??_R3CircuitTiles@@8       0044fd4c     Psydp3Engine.obj
 0002:0000dd60       ??_R2CircuitTiles@@8       0044fd60     Psydp3Engine.obj
 0002:0000dd6c       ??_R1A@?0A@EA@CircuitTiles@@8 0044fd6c     Psydp3Engine.obj
 0002:0000dd90       ??_R4ZoomPoints@@6B@       0044fd90     Psydp3Engine.obj
 0002:0000dda8       ??_R3ZoomPoints@@8         0044fda8     Psydp3Engine.obj
 0002:0000ddbc       ??_R2ZoomPoints@@8         0044fdbc     Psydp3Engine.obj
 0002:0000ddc8       ??_R1A@?0A@EA@ZoomPoints@@8 0044fdc8     Psydp3Engine.obj
 0002:0000ddec       ??_R4ScrollPoints@@6B@     0044fdec     Psydp3Engine.obj
 0002:0000de04       ??_R3ScrollPoints@@8       0044fe04     Psydp3Engine.obj
 0002:0000de18       ??_R2ScrollPoints@@8       0044fe18     Psydp3Engine.obj
 0002:0000de24       ??_R1A@?0A@EA@ScrollPoints@@8 0044fe24     Psydp3Engine.obj
 0002:0000de48       ??_R4RunningState@@6B@     0044fe48     RunningState.obj
 0002:0000de60       ??_R3RunningState@@8       0044fe60     RunningState.obj
 0002:0000de74       ??_R2RunningState@@8       0044fe74     RunningState.obj
 0002:0000de80       ??_R1A@?0A@EA@RunningState@@8 0044fe80     RunningState.obj
 0002:0000dea4       ??_R4WinState@@6B@         0044fea4     RunningState.obj
 0002:0000debc       ??_R3WinState@@8           0044febc     RunningState.obj
 0002:0000ded0       ??_R2WinState@@8           0044fed0     RunningState.obj
 0002:0000dedc       ??_R1A@?0A@EA@WinState@@8  0044fedc     RunningState.obj
 0002:0000df00       ??_R4Player@@6B@           0044ff00     RunningState.obj
 0002:0000df18       ??_R3Player@@8             0044ff18     RunningState.obj
 0002:0000df2c       ??_R2Player@@8             0044ff2c     RunningState.obj
 0002:0000df3c       ??_R1A@?0A@EA@Player@@8    0044ff3c     RunningState.obj
 0002:0000df60       ??_R4Enemy@@6B@            0044ff60     RunningState.obj
 0002:0000df78       ??_R3Enemy@@8              0044ff78     RunningState.obj
 0002:0000df8c       ??_R2Enemy@@8              0044ff8c     RunningState.obj
 0002:0000df9c       ??_R1A@?0A@EA@Enemy@@8     0044ff9c     RunningState.obj
 0002:0000dfc0       ??_R4PauseSymbol@@6B@      0044ffc0     RunningState.obj
 0002:0000dfd8       ??_R3PauseSymbol@@8        0044ffd8     RunningState.obj
 0002:0000dfec       ??_R2PauseSymbol@@8        0044ffec     RunningState.obj
 0002:0000dff8       ??_R1A@?0A@EA@PauseSymbol@@8 0044fff8     RunningState.obj
 0002:0000e01c       ??_R4MST@@6B@              0045001c     RunningState.obj
 0002:0000e034       ??_R3MST@@8                00450034     RunningState.obj
 0002:0000e048       ??_R2MST@@8                00450048     RunningState.obj
 0002:0000e058       ??_R1A@?0A@EA@MST@@8       00450058     RunningState.obj
 0002:0000e07c       ??_R4CroppedImagePixelMapping@@6B@ 0045007c     SimpleImage.obj
 0002:0000e094       ??_R3CroppedImagePixelMapping@@8 00450094     SimpleImage.obj
 0002:0000e0a8       ??_R2CroppedImagePixelMapping@@8 004500a8     SimpleImage.obj
 0002:0000e0b4       ??_R1A@?0A@EA@CroppedImagePixelMapping@@8 004500b4     SimpleImage.obj
 0002:0000e0d8       ??_R4BouncingObject@@6B@   004500d8     SimpleDemo.obj
 0002:0000e0f0       ??_R3BouncingObject@@8     004500f0     SimpleDemo.obj
 0002:0000e104       ??_R2BouncingObject@@8     00450104     SimpleDemo.obj
 0002:0000e110       ??_R1A@?0A@EA@BouncingObject@@8 00450110     SimpleDemo.obj
 0002:0000e134       ??_R4StarfieldDemo@@6BDisplayableObjectContainer@@@ 00450134     StarfieldDemo.obj
 0002:0000e14c       ??_R3StarfieldDemo@@8      0045014c     StarfieldDemo.obj
 0002:0000e160       ??_R2StarfieldDemo@@8      00450160     StarfieldDemo.obj
 0002:0000e174       ??_R1A@?0A@EA@StarfieldDemo@@8 00450174     StarfieldDemo.obj
 0002:0000e198       ??_R4StarfieldDemo@@6BFilterPoints@@@ 00450198     StarfieldDemo.obj
 0002:0000e1b0       ??_R4?$basic_ifstream@DU?$char_traits@D@std@@@std@@6B@ 004501b0     StartupState.obj
 0002:0000e1c8       ??_R3?$basic_ifstream@DU?$char_traits@D@std@@@std@@8 004501c8     StartupState.obj
 0002:0000e1dc       ??_R2?$basic_ifstream@DU?$char_traits@D@std@@@std@@8 004501dc     StartupState.obj
 0002:0000e1f8       ??_R1A@?0A@EA@?$basic_ifstream@DU?$char_traits@D@std@@@std@@8 004501f8     StartupState.obj
 0002:0000e21c       ??_R1A@?0A@EA@?$basic_istream@DU?$char_traits@D@std@@@std@@8 0045021c     StartupState.obj
 0002:0000e240       ??_R3?$basic_istream@DU?$char_traits@D@std@@@std@@8 00450240     StartupState.obj
 0002:0000e254       ??_R2?$basic_istream@DU?$char_traits@D@std@@@std@@8 00450254     StartupState.obj
 0002:0000e268       ??_R4Slider@@6B@           00450268     StartupState.obj
 0002:0000e280       ??_R3Slider@@8             00450280     StartupState.obj
 0002:0000e294       ??_R2Slider@@8             00450294     StartupState.obj
 0002:0000e2a0       ??_R1A@?0A@EA@Slider@@8    004502a0     StartupState.obj
 0002:0000e2c4       ??_R4BouncingBall@@6B@     004502c4     BouncingBall.obj
 0002:0000e2dc       ??_R3BouncingBall@@8       004502dc     BouncingBall.obj
 0002:0000e2f0       ??_R2BouncingBall@@8       004502f0     BouncingBall.obj
 0002:0000e2fc       ??_R1A@?0A@EA@BouncingBall@@8 004502fc     BouncingBall.obj
 0002:0000e320       ??_R4BouncingBall1@@6B@    00450320     BouncingBall.obj
 0002:0000e338       ??_R3BouncingBall1@@8      00450338     BouncingBall.obj
 0002:0000e34c       ??_R2BouncingBall1@@8      0045034c     BouncingBall.obj
 0002:0000e35c       ??_R1A@?0A@EA@BouncingBall1@@8 0045035c     BouncingBall.obj
 0002:0000e380       ??_R4BouncingBall2@@6B@    00450380     BouncingBall.obj
 0002:0000e398       ??_R3BouncingBall2@@8      00450398     BouncingBall.obj
 0002:0000e3ac       ??_R2BouncingBall2@@8      004503ac     BouncingBall.obj
 0002:0000e3bc       ??_R1A@?0A@EA@BouncingBall2@@8 004503bc     BouncingBall.obj
 0002:0000e3e0       ??_R4Arrow@@6B@            004503e0     WinState.obj
 0002:0000e3f8       ??_R3Arrow@@8              004503f8     WinState.obj
 0002:0000e40c       ??_R2Arrow@@8              0045040c     WinState.obj
 0002:0000e418       ??_R1A@?0A@EA@Arrow@@8     00450418     WinState.obj
 0002:0000e43c       ??_R4SimpleFlashingDragableImageObject@@6B@ 0045043c     ZoomingDemo.obj
 0002:0000e454       ??_R3SimpleFlashingDragableImageObject@@8 00450454     ZoomingDemo.obj
 0002:0000e468       ??_R2SimpleFlashingDragableImageObject@@8 00450468     ZoomingDemo.obj
 0002:0000e474       ??_R1A@?0A@EA@SimpleFlashingDragableImageObject@@8 00450474     ZoomingDemo.obj
 0002:0000e498       ??_R4MazeDemoMain@@6BDisplayableObjectContainer@@@ 00450498     MazeDemoMain.obj
 0002:0000e4b0       ??_R3MazeDemoMain@@8       004504b0     MazeDemoMain.obj
 0002:0000e4c4       ??_R2MazeDemoMain@@8       004504c4     MazeDemoMain.obj
 0002:0000e4d8       ??_R1A@?0A@EA@MazeDemoMain@@8 004504d8     MazeDemoMain.obj
 0002:0000e4fc       ??_R4MazeDemoMain@@6BFilterPoints@@@ 004504fc     MazeDemoMain.obj
 0002:0000e514       ??_R4MazeDemoTileManager@@6B@ 00450514     MazeDemoMain.obj
 0002:0000e52c       ??_R3MazeDemoTileManager@@8 0045052c     MazeDemoMain.obj
 0002:0000e540       ??_R2MazeDemoTileManager@@8 00450540     MazeDemoMain.obj
 0002:0000e54c       ??_R1A@?0A@EA@MazeDemoTileManager@@8 0045054c     MazeDemoMain.obj
 0002:0000e570       ??_R4MazeDemoObject@@6B@   00450570     MazeDemoObject.obj
 0002:0000e588       ??_R3MazeDemoObject@@8     00450588     MazeDemoObject.obj
 0002:0000e59c       ??_R2MazeDemoObject@@8     0045059c     MazeDemoObject.obj
 0002:0000e5a8       ??_R1A@?0A@EA@MazeDemoObject@@8 004505a8     MazeDemoObject.obj
 0002:0000e5cc       ??_R4type_info@@6B@        004505cc     MSVCRTD:std_type_info_static.obj
 0002:0000e5e4       ??_R3type_info@@8          004505e4     MSVCRTD:std_type_info_static.obj
 0002:0000e5f8       ??_R2type_info@@8          004505f8     MSVCRTD:std_type_info_static.obj
 0002:0000e600       ??_R1A@?0A@EA@type_info@@8 00450600     MSVCRTD:std_type_info_static.obj
 0002:0000e7b4       ___safe_se_handler_table   004507b4     <linker-defined>
 0002:0000ed64       ___rtc_iaa                 00450d64     MSVCRTD:initsect.obj
 0002:0000ee68       ___rtc_izz                 00450e68     MSVCRTD:initsect.obj
 0002:0000ef6c       ___rtc_taa                 00450f6c     MSVCRTD:initsect.obj
 0002:0000f070       ___rtc_tzz                 00451070     MSVCRTD:initsect.obj
 0002:0000f8cc       __TI3?AVbad_array_new_length@std@@ 004518cc     Arrow.obj
 0002:0000f8e0       __CTA3?AVbad_array_new_length@std@@ 004518e0     Arrow.obj
 0002:0000f8f4       __CT??_R0?AVbad_array_new_length@std@@@8??0bad_array_new_length@std@@QAE@ABV01@@Z12 004518f4     Arrow.obj
 0002:0000f914       __CT??_R0?AVbad_alloc@std@@@8??0bad_alloc@std@@QAE@ABV01@@Z12 00451914     Arrow.obj
 0002:0000f934       __CT??_R0?AVexception@std@@@8??0exception@std@@QAE@ABV01@@Z12 00451934     Arrow.obj
 0002:000108d0       __TI2?AVbad_cast@std@@     004528d0     Psydp3Engine.obj
 0002:000108e4       __CTA2?AVbad_cast@std@@    004528e4     Psydp3Engine.obj
 0002:000108f4       __CT??_R0?AVbad_cast@std@@@8??0bad_cast@std@@QAE@ABV01@@Z12 004528f4     Psydp3Engine.obj
 0002:00011448       __TI2?AVbad_alloc@std@@    00453448     MSVCRTD:throw_bad_alloc.obj
 0002:0001145c       __CTA2?AVbad_alloc@std@@   0045345c     MSVCRTD:throw_bad_alloc.obj
 0003:00000008       ___security_cookie         00454008     MSVCRTD:gs_cookie.obj
 0003:0000000c       ___security_cookie_complement 0045400c     MSVCRTD:gs_cookie.obj
 0003:00000014       __fltused                  00454014     MSVCRTD:fltused.obj
 0003:00000018       ___scrt_native_dllmain_reason 00454018     MSVCRTD:utility.obj
 0003:0000001c       ___isa_enabled             0045401c     MSVCRTD:cpu_disp.obj
 0003:00000020       ___scrt_default_matherr    00454020     MSVCRTD:matherr.obj
 0003:00000024       ___scrt_ucrt_dll_is_in_use 00454024     MSVCRTD:ucrt_stubs.obj
 0003:00000130       ??_R0?AVbad_array_new_length@std@@@8 00454130     Arrow.obj
 0003:00000160       ??_R0?AVbad_alloc@std@@@8  00454160     Arrow.obj
 0003:00000184       ??_R0?AVexception@std@@@8  00454184     Arrow.obj
 0003:000001a8       ??_R0?AVGameObject@@@8     004541a8     Enemy.obj
 0003:000001c8       ??_R0?AVPlayer@@@8         004541c8     Enemy.obj
 0003:000001e4       ??_R0?AVbad_cast@std@@@8   004541e4     Psydp3Engine.obj
 0003:00000204       ??_R0?AVEnemy@@@8          00454204     RunningState.obj
 0003:00000324       ??_R0?AV_Ref_count_base@std@@@8 00454324     Arrow.obj
 0003:0000034c       ??_R0?AVImagePixelMapping@@@8 0045434c     Arrow.obj
 0003:00000374       ??_R0?AVImageTracking@@@8  00454374     Arrow.obj
 0003:00000398       ??_R0?AV?$_Ref_count@VRawImageData@@@std@@@8 00454398     Arrow.obj
 0003:000003d0       ??_R0?AVDragableBaseClassObject@@@8 004543d0     DraggingDemo.obj
 0003:00000400       ??_R0?AVDisplayableObject@@@8 00454400     DraggingDemo.obj
 0003:00000428       ??_R0?AVDragableObject@@@8 00454428     DraggingDemo.obj
 0003:0000044c       ??_R0?AVDragableImageObject@@@8 0045444c     DraggingDemo.obj
 0003:00000474       ??_R0?AVImageObject@@@8    00454474     DraggingDemo.obj
 0003:00000494       ??_R0?AVAttack@@@8         00454494     Enemy.obj
 0003:000004b0       ??_R0?AVDisplayableObjectContainer@@@8 004544b0     FlashingDemo.obj
 0003:000004e4       ??_R0?AVFlashingDemo@@@8   004544e4     FlashingDemo.obj
 0003:00000504       ??_R0?AVBaseEngine@@@8     00454504     FlashingDemo.obj
 0003:00000524       ??_R0?AVFilterPoints@@@8   00454524     FlashingDemo.obj
 0003:00000544       ??_R0?AVMappableImageObject@@@8 00454544     ImageMappingDemo.obj
 0003:0000056c       ??_R0?AVState@@@8          0045456c     LoseState.obj
 0003:00000584       ??_R0?AVStartupState@@@8   00454584     LoseState.obj
 0003:000005a4       ??_R0?AVLoseState@@@8      004545a4     LoseState.obj
 0003:000005c0       ??_R0?AV?$basic_filebuf@DU?$char_traits@D@std@@@std@@@8 004545c0     Psydp3Engine.obj
 0003:00000608       ??_R0?AV?$basic_streambuf@DU?$char_traits@D@std@@@std@@@8 00454608     Psydp3Engine.obj
 0003:00000650       ??_R0?AV?$basic_ofstream@DU?$char_traits@D@std@@@std@@@8 00454650     Psydp3Engine.obj
 0003:00000698       ??_R0?AV?$basic_ostream@DU?$char_traits@D@std@@@std@@@8 00454698     Psydp3Engine.obj
 0003:000006e0       ??_R0?AV?$basic_ios@DU?$char_traits@D@std@@@std@@@8 004546e0     Psydp3Engine.obj
 0003:00000720       ??_R0?AVios_base@std@@@8   00454720     Psydp3Engine.obj
 0003:00000740       ??_R0?AV?$_Iosb@H@std@@@8  00454740     Psydp3Engine.obj
 0003:00000764       ??_R0?AVPsydp3Engine@@@8   00454764     Psydp3Engine.obj
 0003:00000784       ??_R0?AVTileManager@@@8    00454784     Psydp3Engine.obj
 0003:000007a4       ??_R0?AVNumberTiles@@@8    004547a4     Psydp3Engine.obj
 0003:000007c4       ??_R0?AVCircuitTiles@@@8   004547c4     Psydp3Engine.obj
 0003:000007e4       ??_R0?AVZoomPoints@@@8     004547e4     Psydp3Engine.obj
 0003:00000804       ??_R0?AVScrollPoints@@@8   00454804     Psydp3Engine.obj
 0003:00000824       ??_R0?AVRunningState@@@8   00454824     RunningState.obj
 0003:00000844       ??_R0?AVWinState@@@8       00454844     RunningState.obj
 0003:00000860       ??_R0?AVPauseSymbol@@@8    00454860     RunningState.obj
 0003:00000880       ??_R0?AVMST@@@8            00454880     RunningState.obj
 0003:00000898       ??_R0?AVCroppedImagePixelMapping@@@8 00454898     SimpleImage.obj
 0003:000008c8       ??_R0?AVBouncingObject@@@8 004548c8     SimpleDemo.obj
 0003:000008ec       ??_R0?AVStarfieldDemo@@@8  004548ec     StarfieldDemo.obj
 0003:00000910       ??_R0?AV?$basic_ifstream@DU?$char_traits@D@std@@@std@@@8 00454910     StartupState.obj
 0003:00000958       ??_R0?AV?$basic_istream@DU?$char_traits@D@std@@@std@@@8 00454958     StartupState.obj
 0003:000009a0       ??_R0?AVSlider@@@8         004549a0     StartupState.obj
 0003:000009bc       ??_R0?AVBouncingBall@@@8   004549bc     BouncingBall.obj
 0003:000009dc       ??_R0?AVBouncingBall1@@@8  004549dc     BouncingBall.obj
 0003:00000a00       ??_R0?AVBouncingBall2@@@8  00454a00     BouncingBall.obj
 0003:00000a24       ??_R0?AVArrow@@@8          00454a24     WinState.obj
 0003:00000a3c       ??_R0?AVSimpleFlashingDragableImageObject@@@8 00454a3c     ZoomingDemo.obj
 0003:00000a78       ??_R0?AVMazeDemoMain@@@8   00454a78     MazeDemoMain.obj
 0003:00000a98       ??_R0?AVMazeDemoTileManager@@@8 00454a98     MazeDemoMain.obj
 0003:00000ac0       ??_R0?AVMazeDemoObject@@@8 00454ac0     MazeDemoObject.obj
 0003:00000ae4       ??_R0?AVtype_info@@@8      00454ae4     MSVCRTD:std_type_info_static.obj
 0003:00000c28       ?_OptionsStorage@?1??__local_stdio_printf_options@@9@4_KA 00454c28     Arrow.obj
 0003:00000c34       ?_Stinit@?1??_Init@?$basic_filebuf@DU?$char_traits@D@std@@@std@@IAEXPAU_iobuf@@W4_Initfl@23@@Z@4U_Mbstatet@@A 00454c34     Psydp3Engine.obj
 0003:00000c40       ?_Psave@?$_Facetptr@V?$codecvt@DDU_Mbstatet@@@std@@@std@@2PBVfacet@locale@2@B 00454c40     Psydp3Engine.obj
 0003:00000c44       ?g_pManager@ImageManager@@0PAV1@A 00454c44     SimpleImage.obj
 0003:00000c48       ?_Psave@?$_Facetptr@V?$ctype@D@std@@@std@@2PBVfacet@locale@2@B 00454c48     StartupState.obj
 0003:00000c54       ___scrt_current_native_startup_state 00454c54     MSVCRTD:utility.obj
 0003:00000c58       ___scrt_native_startup_lock 00454c58     MSVCRTD:utility.obj
 0003:00000c80       ___isa_available           00454c80     MSVCRTD:cpu_disp.obj
 0003:00000c84       ___favor                   00454c84     MSVCRTD:cpu_disp.obj
 0003:00000c90       ?__type_info_root_node@@3U__type_info_node@@A 00454c90     MSVCRTD:tncleanup.obj
 0003:00000ca0       ?_OptionsStorage@?1??__local_stdio_scanf_options@@9@4_KA 00454ca0     MSVCRTD:default_local_stdio_options.obj
 0003:00000cac       ___scrt_debugger_hook_flag 00454cac     MSVCRTD:utility_desktop.obj
 0003:0000106c       ___dyn_tls_dtor_callback   0045506c     <common>
 0003:00001078       ___dyn_tls_init_callback   00455078     <common>
 0004:00000000       __imp__IsProcessorFeaturePresent@4 00456000     kernel32:KERNEL32.dll
 0004:00000004       __imp__QueryPerformanceCounter@4 00456004     kernel32:KERNEL32.dll
 0004:00000008       __imp__GetCurrentProcessId@0 00456008     kernel32:KERNEL32.dll
 0004:0000000c       __imp__GetCurrentThreadId@0 0045600c     kernel32:KERNEL32.dll
 0004:00000010       __imp__GetSystemTimeAsFileTime@4 00456010     kernel32:KERNEL32.dll
 0004:00000014       __imp__InitializeSListHead@4 00456014     kernel32:KERNEL32.dll
 0004:00000018       __imp__IsDebuggerPresent@0 00456018     kernel32:KERNEL32.dll
 0004:0000001c       __imp__UnhandledExceptionFilter@4 0045601c     kernel32:KERNEL32.dll
 0004:00000020       __imp__SetUnhandledExceptionFilter@4 00456020     kernel32:KERNEL32.dll
 0004:00000024       __imp__GetStartupInfoW@4   00456024     kernel32:KERNEL32.dll
 0004:00000028       __imp__GetCurrentProcess@0 00456028     kernel32:KERNEL32.dll
 0004:0000002c       __imp__TerminateProcess@8  0045602c     kernel32:KERNEL32.dll
 0004:00000030       __imp__GetCommandLineW@0   00456030     kernel32:KERNEL32.dll
 0004:00000034       __imp__VirtualAlloc@16     00456034     kernel32:KERNEL32.dll
 0004:00000038       __imp__GetModuleHandleW@4  00456038     kernel32:KERNEL32.dll
 0004:0000003c       __imp__VirtualFree@12      0045603c     kernel32:KERNEL32.dll
 0004:00000040       __imp__WideCharToMultiByte@32 00456040     kernel32:KERNEL32.dll
 0004:00000044       \177KERNEL32_NULL_THUNK_DATA 00456044     kernel32:KERNEL32.dll
 0004:0000007c       __imp_??Bios_base@std@@QBE_NXZ 0045607c     msvcprtd:MSVCP140D.dll
 0004:00000080       __imp_?_Getcat@?$ctype@D@std@@SAIPAPBVfacet@locale@2@PBV42@@Z 00456080     msvcprtd:MSVCP140D.dll
 0004:00000084       __imp_?getloc@ios_base@std@@QBE?AVlocale@2@XZ 00456084     msvcprtd:MSVCP140D.dll
 0004:00000088       __imp_?sgetc@?$basic_streambuf@DU?$char_traits@D@std@@@std@@QAEHXZ 00456088     msvcprtd:MSVCP140D.dll
 0004:0000008c       __imp_?snextc@?$basic_streambuf@DU?$char_traits@D@std@@@std@@QAEHXZ 0045608c     msvcprtd:MSVCP140D.dll
 0004:00000090       __imp_??0?$basic_istream@DU?$char_traits@D@std@@@std@@QAE@PAV?$basic_streambuf@DU?$char_traits@D@std@@@1@_N@Z 00456090     msvcprtd:MSVCP140D.dll
 0004:00000094       __imp_?_Ipfx@?$basic_istream@DU?$char_traits@D@std@@@std@@QAE_N_N@Z 00456094     msvcprtd:MSVCP140D.dll
 0004:00000098       __imp_??5?$basic_istream@DU?$char_traits@D@std@@@std@@QAEAAV01@AAH@Z 00456098     msvcprtd:MSVCP140D.dll
 0004:0000009c       __imp_?id@?$ctype@D@std@@2V0locale@2@A 0045609c     msvcprtd:MSVCP140D.dll
 0004:000000a0       __imp_?_Xbad_alloc@std@@YAXXZ 004560a0     msvcprtd:MSVCP140D.dll
 0004:000000a4       __imp_??1?$basic_istream@DU?$char_traits@D@std@@@std@@UAE@XZ 004560a4     msvcprtd:MSVCP140D.dll
 0004:000000a8       __imp_??0_Lockit@std@@QAE@H@Z 004560a8     msvcprtd:MSVCP140D.dll
 0004:000000ac       __imp_??1_Lockit@std@@QAE@XZ 004560ac     msvcprtd:MSVCP140D.dll
 0004:000000b0       __imp_?_Xlength_error@std@@YAXPBD@Z 004560b0     msvcprtd:MSVCP140D.dll
 0004:000000b4       __imp_?uncaught_exception@std@@YA_NXZ 004560b4     msvcprtd:MSVCP140D.dll
 0004:000000b8       __imp_?good@ios_base@std@@QBE_NXZ 004560b8     msvcprtd:MSVCP140D.dll
 0004:000000bc       __imp_?flags@ios_base@std@@QBEHXZ 004560bc     msvcprtd:MSVCP140D.dll
 0004:000000c0       __imp_?width@ios_base@std@@QBE_JXZ 004560c0     msvcprtd:MSVCP140D.dll
 0004:000000c4       __imp_?width@ios_base@std@@QAE_J_J@Z 004560c4     msvcprtd:MSVCP140D.dll
 0004:000000c8       __imp_?sputc@?$basic_streambuf@DU?$char_traits@D@std@@@std@@QAEHD@Z 004560c8     msvcprtd:MSVCP140D.dll
 0004:000000cc       __imp_?sputn@?$basic_streambuf@DU?$char_traits@D@std@@@std@@QAE_JPBD_J@Z 004560cc     msvcprtd:MSVCP140D.dll
 0004:000000d0       __imp_?setstate@?$basic_ios@DU?$char_traits@D@std@@@std@@QAEXH_N@Z 004560d0     msvcprtd:MSVCP140D.dll
 0004:000000d4       __imp_?tie@?$basic_ios@DU?$char_traits@D@std@@@std@@QBEPAV?$basic_ostream@DU?$char_traits@D@std@@@2@XZ 004560d4     msvcprtd:MSVCP140D.dll
 0004:000000d8       __imp_?rdbuf@?$basic_ios@DU?$char_traits@D@std@@@std@@QBEPAV?$basic_streambuf@DU?$char_traits@D@std@@@2@XZ 004560d8     msvcprtd:MSVCP140D.dll
 0004:000000dc       __imp_?fill@?$basic_ios@DU?$char_traits@D@std@@@std@@QBEDXZ 004560dc     msvcprtd:MSVCP140D.dll
 0004:000000e0       __imp_?widen@?$basic_ios@DU?$char_traits@D@std@@@std@@QBEDD@Z 004560e0     msvcprtd:MSVCP140D.dll
 0004:000000e4       __imp_?_Osfx@?$basic_ostream@DU?$char_traits@D@std@@@std@@QAEXXZ 004560e4     msvcprtd:MSVCP140D.dll
 0004:000000e8       __imp_??6?$basic_ostream@DU?$char_traits@D@std@@@std@@QAEAAV01@P6AAAV01@AAV01@@Z@Z 004560e8     msvcprtd:MSVCP140D.dll
 0004:000000ec       __imp_?put@?$basic_ostream@DU?$char_traits@D@std@@@std@@QAEAAV12@D@Z 004560ec     msvcprtd:MSVCP140D.dll
 0004:000000f0       __imp_?flush@?$basic_ostream@DU?$char_traits@D@std@@@std@@QAEAAV12@XZ 004560f0     msvcprtd:MSVCP140D.dll
 0004:000000f4       __imp_?cout@std@@3V?$basic_ostream@DU?$char_traits@D@std@@@1@A 004560f4     msvcprtd:MSVCP140D.dll
 0004:000000f8       __imp_?_Xout_of_range@std@@YAXPBD@Z 004560f8     msvcprtd:MSVCP140D.dll
 0004:000000fc       __imp_??Bid@locale@std@@QAEIXZ 004560fc     msvcprtd:MSVCP140D.dll
 0004:00000100       __imp_?_Getgloballocale@locale@std@@CAPAV_Locimp@12@XZ 00456100     msvcprtd:MSVCP140D.dll
 0004:00000104       __imp_?always_noconv@codecvt_base@std@@QBE_NXZ 00456104     msvcprtd:MSVCP140D.dll
 0004:00000108       __imp_?in@?$codecvt@DDU_Mbstatet@@@std@@QBEHAAU_Mbstatet@@PBD1AAPBDPAD3AAPAD@Z 00456108     msvcprtd:MSVCP140D.dll
 0004:0000010c       __imp_?out@?$codecvt@DDU_Mbstatet@@@std@@QBEHAAU_Mbstatet@@PBD1AAPBDPAD3AAPAD@Z 0045610c     msvcprtd:MSVCP140D.dll
 0004:00000110       __imp_?unshift@?$codecvt@DDU_Mbstatet@@@std@@QBEHAAU_Mbstatet@@PAD1AAPAD@Z 00456110     msvcprtd:MSVCP140D.dll
 0004:00000114       __imp_?_Getcat@?$codecvt@DDU_Mbstatet@@@std@@SAIPAPBVfacet@locale@2@PBV42@@Z 00456114     msvcprtd:MSVCP140D.dll
 0004:00000118       __imp_??0?$basic_streambuf@DU?$char_traits@D@std@@@std@@IAE@XZ 00456118     msvcprtd:MSVCP140D.dll
 0004:0000011c       __imp_??1?$basic_streambuf@DU?$char_traits@D@std@@@std@@UAE@XZ 0045611c     msvcprtd:MSVCP140D.dll
 0004:00000120       __imp_?getloc@?$basic_streambuf@DU?$char_traits@D@std@@@std@@QBE?AVlocale@2@XZ 00456120     msvcprtd:MSVCP140D.dll
 0004:00000124       __imp_?eback@?$basic_streambuf@DU?$char_traits@D@std@@@std@@IBEPADXZ 00456124     msvcprtd:MSVCP140D.dll
 0004:00000128       __imp_?gptr@?$basic_streambuf@DU?$char_traits@D@std@@@std@@IBEPADXZ 00456128     msvcprtd:MSVCP140D.dll
 0004:0000012c       __imp_?pptr@?$basic_streambuf@DU?$char_traits@D@std@@@std@@IBEPADXZ 0045612c     msvcprtd:MSVCP140D.dll
 0004:00000130       __imp_?egptr@?$basic_streambuf@DU?$char_traits@D@std@@@std@@IBEPADXZ 00456130     msvcprtd:MSVCP140D.dll
 0004:00000134       __imp_?gbump@?$basic_streambuf@DU?$char_traits@D@std@@@std@@IAEXH@Z 00456134     msvcprtd:MSVCP140D.dll
 0004:00000138       __imp_?setg@?$basic_streambuf@DU?$char_traits@D@std@@@std@@IAEXPAD00@Z 00456138     msvcprtd:MSVCP140D.dll
 0004:0000013c       __imp_?epptr@?$basic_streambuf@DU?$char_traits@D@std@@@std@@IBEPADXZ 0045613c     msvcprtd:MSVCP140D.dll
 0004:00000140       __imp_?_Gndec@?$basic_streambuf@DU?$char_traits@D@std@@@std@@IAEPADXZ 00456140     msvcprtd:MSVCP140D.dll
 0004:00000144       __imp_?_Gninc@?$basic_streambuf@DU?$char_traits@D@std@@@std@@IAEPADXZ 00456144     msvcprtd:MSVCP140D.dll
 0004:00000148       __imp_?_Gnavail@?$basic_streambuf@DU?$char_traits@D@std@@@std@@IBE_JXZ 00456148     msvcprtd:MSVCP140D.dll
 0004:0000014c       __imp_?pbump@?$basic_streambuf@DU?$char_traits@D@std@@@std@@IAEXH@Z 0045614c     msvcprtd:MSVCP140D.dll
 0004:00000150       __imp_?_Pninc@?$basic_streambuf@DU?$char_traits@D@std@@@std@@IAEPADXZ 00456150     msvcprtd:MSVCP140D.dll
 0004:00000154       __imp_?_Pnavail@?$basic_streambuf@DU?$char_traits@D@std@@@std@@IBE_JXZ 00456154     msvcprtd:MSVCP140D.dll
 0004:00000158       __imp_?_Init@?$basic_streambuf@DU?$char_traits@D@std@@@std@@IAEXXZ 00456158     msvcprtd:MSVCP140D.dll
 0004:0000015c       __imp_?_Init@?$basic_streambuf@DU?$char_traits@D@std@@@std@@IAEXPAPAD0PAH001@Z 0045615c     msvcprtd:MSVCP140D.dll
 0004:00000160       __imp_?xsgetn@?$basic_streambuf@DU?$char_traits@D@std@@@std@@MAE_JPAD_J@Z 00456160     msvcprtd:MSVCP140D.dll
 0004:00000164       __imp_?xsputn@?$basic_streambuf@DU?$char_traits@D@std@@@std@@MAE_JPBD_J@Z 00456164     msvcprtd:MSVCP140D.dll
 0004:00000168       __imp_??1?$basic_ios@DU?$char_traits@D@std@@@std@@UAE@XZ 00456168     msvcprtd:MSVCP140D.dll
 0004:0000016c       __imp_?clear@?$basic_ios@DU?$char_traits@D@std@@@std@@QAEXH_N@Z 0045616c     msvcprtd:MSVCP140D.dll
 0004:00000170       __imp_??0?$basic_ios@DU?$char_traits@D@std@@@std@@IAE@XZ 00456170     msvcprtd:MSVCP140D.dll
 0004:00000174       __imp_??0?$basic_ostream@DU?$char_traits@D@std@@@std@@QAE@PAV?$basic_streambuf@DU?$char_traits@D@std@@@1@_N@Z 00456174     msvcprtd:MSVCP140D.dll
 0004:00000178       __imp_??1?$basic_ostream@DU?$char_traits@D@std@@@std@@UAE@XZ 00456178     msvcprtd:MSVCP140D.dll
 0004:0000017c       __imp_??6?$basic_ostream@DU?$char_traits@D@std@@@std@@QAEAAV01@H@Z 0045617c     msvcprtd:MSVCP140D.dll
 0004:00000180       __imp_?_Fiopen@std@@YAPAU_iobuf@@PBDHH@Z 00456180     msvcprtd:MSVCP140D.dll
 0004:00000184       __imp_?showmanyc@?$basic_streambuf@DU?$char_traits@D@std@@@std@@MAE_JXZ 00456184     msvcprtd:MSVCP140D.dll
 0004:00000188       __imp_?id@?$codecvt@DDU_Mbstatet@@@std@@2V0locale@2@A 00456188     msvcprtd:MSVCP140D.dll
 0004:0000018c       __imp_?is@?$ctype@D@std@@QBE_NFD@Z 0045618c     msvcprtd:MSVCP140D.dll
 0004:00000190       \177MSVCP140D_NULL_THUNK_DATA 00456190     msvcprtd:MSVCP140D.dll
 0004:000001f0       __imp__SDL_UpperBlitScaled 004561f0     SDL2:SDL2.dll
 0004:000001f4       __imp__SDL_SetClipRect     004561f4     SDL2:SDL2.dll
 0004:000001f8       __imp__SDL_Quit            004561f8     SDL2:SDL2.dll
 0004:000001fc       __imp__SDL_Init            004561fc     SDL2:SDL2.dll
 0004:00000200       __imp__SDL_GetTicks        00456200     SDL2:SDL2.dll
 0004:00000204       __imp__SDL_RenderPresent   00456204     SDL2:SDL2.dll
 0004:00000208       __imp__SDL_RenderCopy      00456208     SDL2:SDL2.dll
 0004:0000020c       __imp__SDL_UpdateTexture   0045620c     SDL2:SDL2.dll
 0004:00000210       __imp__SDL_CreateTexture   00456210     SDL2:SDL2.dll
 0004:00000214       __imp__SDL_CreateRenderer  00456214     SDL2:SDL2.dll
 0004:00000218       __imp__SDL_SetMainReady    00456218     SDL2:SDL2.dll
 0004:0000021c       __imp__SDL_ShowSimpleMessageBox 0045621c     SDL2:SDL2.dll
 0004:00000220       __imp__SDL_WaitEvent       00456220     SDL2:SDL2.dll
 0004:00000224       __imp__SDL_PollEvent       00456224     SDL2:SDL2.dll
 0004:00000228       __imp__SDL_CreateWindow    00456228     SDL2:SDL2.dll
 0004:0000022c       __imp__SDL_GetError        0045622c     SDL2:SDL2.dll
 0004:00000230       __imp__SDL_FillRect        00456230     SDL2:SDL2.dll
 0004:00000234       __imp__SDL_UnlockSurface   00456234     SDL2:SDL2.dll
 0004:00000238       __imp__SDL_LockSurface     00456238     SDL2:SDL2.dll
 0004:0000023c       __imp__SDL_UpperBlit       0045623c     SDL2:SDL2.dll
 0004:00000240       __imp__SDL_FreeSurface     00456240     SDL2:SDL2.dll
 0004:00000244       __imp__SDL_CreateRGBSurface 00456244     SDL2:SDL2.dll
 0004:00000248       \177SDL2_NULL_THUNK_DATA   00456248     SDL2:SDL2.dll
 0004:00000284       __imp__IMG_Load            00456284     SDL2_image:SDL2_image.dll
 0004:00000288       \177SDL2_image_NULL_THUNK_DATA 00456288     SDL2_image:SDL2_image.dll
 0004:000002b4       __imp__TTF_RenderText_Solid 004562b4     SDL2_ttf:SDL2_ttf.dll
 0004:000002b8       __imp__TTF_OpenFont        004562b8     SDL2_ttf:SDL2_ttf.dll
 0004:000002bc       __imp__TTF_CloseFont       004562bc     SDL2_ttf:SDL2_ttf.dll
 0004:000002c0       __imp__TTF_Init            004562c0     SDL2_ttf:SDL2_ttf.dll
 0004:000002c4       __imp__TTF_Quit            004562c4     SDL2_ttf:SDL2_ttf.dll
 0004:000002c8       \177SDL2_ttf_NULL_THUNK_DATA 004562c8     SDL2_ttf:SDL2_ttf.dll
 0004:000002f8       __imp____current_exception_context 004562f8     vcruntimed:VCRUNTIME140D.dll
 0004:000002fc       __imp____current_exception 004562fc     vcruntimed:VCRUNTIME140D.dll
 0004:00000300       __imp___except_handler4_common 00456300     vcruntimed:VCRUNTIME140D.dll
 0004:00000304       __imp__memcmp              00456304     vcruntimed:VCRUNTIME140D.dll
 0004:00000308       __imp__memcpy              00456308     vcruntimed:VCRUNTIME140D.dll
 0004:0000030c       __imp__memmove             0045630c     vcruntimed:VCRUNTIME140D.dll
 0004:00000310       __imp____std_exception_copy 00456310     vcruntimed:VCRUNTIME140D.dll
 0004:00000314       __imp____std_exception_destroy 00456314     vcruntimed:VCRUNTIME140D.dll
 0004:00000318       __imp___CxxThrowException@8 00456318     vcruntimed:VCRUNTIME140D.dll
 0004:0000031c       __imp____CxxFrameHandler3  0045631c     vcruntimed:VCRUNTIME140D.dll
 0004:00000320       __imp__memset              00456320     vcruntimed:VCRUNTIME140D.dll
 0004:00000324       __imp____RTDynamicCast     00456324     vcruntimed:VCRUNTIME140D.dll
 0004:00000328       __imp____std_type_info_destroy_list 00456328     vcruntimed:VCRUNTIME140D.dll
 0004:0000032c       __imp___purecall           0045632c     vcruntimed:VCRUNTIME140D.dll
 0004:00000330       \177VCRUNTIME140D_NULL_THUNK_DATA 00456330     vcruntimed:VCRUNTIME140D.dll
 0004:00000364       __imp__fclose              00456364     ucrtd:ucrtbased.dll
 0004:00000368       __imp__fflush              00456368     ucrtd:ucrtbased.dll
 0004:0000036c       __imp__fgetc               0045636c     ucrtd:ucrtbased.dll
 0004:00000370       __imp__fgetpos             00456370     ucrtd:ucrtbased.dll
 0004:00000374       __imp__fputc               00456374     ucrtd:ucrtbased.dll
 0004:00000378       __imp__fread               00456378     ucrtd:ucrtbased.dll
 0004:0000037c       __imp__fsetpos             0045637c     ucrtd:ucrtbased.dll
 0004:00000380       __imp___fseeki64           00456380     ucrtd:ucrtbased.dll
 0004:00000384       __imp__fwrite              00456384     ucrtd:ucrtbased.dll
 0004:00000388       __imp__setvbuf             00456388     ucrtd:ucrtbased.dll
 0004:0000038c       __imp__ungetc              0045638c     ucrtd:ucrtbased.dll
 0004:00000390       __imp___lock_file          00456390     ucrtd:ucrtbased.dll
 0004:00000394       __imp___unlock_file        00456394     ucrtd:ucrtbased.dll
 0004:00000398       __imp___free_dbg           00456398     ucrtd:ucrtbased.dll
 0004:0000039c       __imp___malloc_dbg         0045639c     ucrtd:ucrtbased.dll
 0004:000003a0       __imp___seh_filter_exe     004563a0     ucrtd:ucrtbased.dll
 0004:000003a4       __imp___set_app_type       004563a4     ucrtd:ucrtbased.dll
 0004:000003a8       __imp____setusermatherr    004563a8     ucrtd:ucrtbased.dll
 0004:000003ac       __imp___configure_narrow_argv 004563ac     ucrtd:ucrtbased.dll
 0004:000003b0       __imp___initialize_narrow_environment 004563b0     ucrtd:ucrtbased.dll
 0004:000003b4       __imp__strcpy              004563b4     ucrtd:ucrtbased.dll
 0004:000003b8       __imp___initterm           004563b8     ucrtd:ucrtbased.dll
 0004:000003bc       __imp___initterm_e         004563bc     ucrtd:ucrtbased.dll
 0004:000003c0       __imp__exit                004563c0     ucrtd:ucrtbased.dll
 0004:000003c4       __imp___exit               004563c4     ucrtd:ucrtbased.dll
 0004:000003c8       __imp___set_fmode          004563c8     ucrtd:ucrtbased.dll
 0004:000003cc       __imp____p___argc          004563cc     ucrtd:ucrtbased.dll
 0004:000003d0       __imp____p___argv          004563d0     ucrtd:ucrtbased.dll
 0004:000003d4       __imp___cexit              004563d4     ucrtd:ucrtbased.dll
 0004:000003d8       __imp___c_exit             004563d8     ucrtd:ucrtbased.dll
 0004:000003dc       __imp___register_thread_local_exe_atexit_callback 004563dc     ucrtd:ucrtbased.dll
 0004:000003e0       __imp___configthreadlocale 004563e0     ucrtd:ucrtbased.dll
 0004:000003e4       __imp___set_new_mode       004563e4     ucrtd:ucrtbased.dll
 0004:000003e8       __imp____p__commode        004563e8     ucrtd:ucrtbased.dll
 0004:000003ec       __imp___callnewh           004563ec     ucrtd:ucrtbased.dll
 0004:000003f0       __imp__malloc              004563f0     ucrtd:ucrtbased.dll
 0004:000003f4       __imp___seh_filter_dll     004563f4     ucrtd:ucrtbased.dll
 0004:000003f8       __imp___initialize_onexit_table 004563f8     ucrtd:ucrtbased.dll
 0004:000003fc       __imp___register_onexit_function 004563fc     ucrtd:ucrtbased.dll
 0004:00000400       __imp___execute_onexit_table 00456400     ucrtd:ucrtbased.dll
 0004:00000404       __imp___crt_atexit         00456404     ucrtd:ucrtbased.dll
 0004:00000408       __imp___crt_at_quick_exit  00456408     ucrtd:ucrtbased.dll
 0004:0000040c       __imp___controlfp_s        0045640c     ucrtd:ucrtbased.dll
 0004:00000410       __imp__terminate           00456410     ucrtd:ucrtbased.dll
 0004:00000414       __imp___get_stream_buffer_pointers 00456414     ucrtd:ucrtbased.dll
 0004:00000418       __imp__strcmp              00456418     ucrtd:ucrtbased.dll
 0004:0000041c       __imp__puts                0045641c     ucrtd:ucrtbased.dll
 0004:00000420       __imp___time64             00456420     ucrtd:ucrtbased.dll
 0004:00000424       __imp____stdio_common_vsprintf 00456424     ucrtd:ucrtbased.dll
 0004:00000428       __imp__srand               00456428     ucrtd:ucrtbased.dll
 0004:0000042c       __imp___CrtDumpMemoryLeaks 0045642c     ucrtd:ucrtbased.dll
 0004:00000430       __imp__atan2               00456430     ucrtd:ucrtbased.dll
 0004:00000434       __imp__pow                 00456434     ucrtd:ucrtbased.dll
 0004:00000438       __imp__sqrt                00456438     ucrtd:ucrtbased.dll
 0004:0000043c       __imp__sin                 0045643c     ucrtd:ucrtbased.dll
 0004:00000440       __imp__cos                 00456440     ucrtd:ucrtbased.dll
 0004:00000444       __imp__atan                00456444     ucrtd:ucrtbased.dll
 0004:00000448       __imp__rand                00456448     ucrtd:ucrtbased.dll
 0004:0000044c       __imp__strlen              0045644c     ucrtd:ucrtbased.dll
 0004:00000450       __imp____stdio_common_vfprintf 00456450     ucrtd:ucrtbased.dll
 0004:00000454       __imp____acrt_iob_func     00456454     ucrtd:ucrtbased.dll
 0004:00000458       __imp___CrtDbgReport       00456458     ucrtd:ucrtbased.dll
 0004:0000045c       __imp___invalid_parameter  0045645c     ucrtd:ucrtbased.dll
 0004:00000460       __imp___get_initial_narrow_environment 00456460     ucrtd:ucrtbased.dll
 0004:00000464       \177ucrtbased_NULL_THUNK_DATA 00456464     ucrtd:ucrtbased.dll
 0004:000004c0       __IMPORT_DESCRIPTOR_SDL2   004564c0     SDL2:SDL2.dll
 0004:000004d4       __IMPORT_DESCRIPTOR_SDL2_image 004564d4     SDL2_image:SDL2_image.dll
 0004:000004e8       __IMPORT_DESCRIPTOR_SDL2_ttf 004564e8     SDL2_ttf:SDL2_ttf.dll
 0004:000004fc       __IMPORT_DESCRIPTOR_MSVCP140D 004564fc     msvcprtd:MSVCP140D.dll
 0004:00000510       __IMPORT_DESCRIPTOR_VCRUNTIME140D 00456510     vcruntimed:VCRUNTIME140D.dll
 0004:00000524       __IMPORT_DESCRIPTOR_ucrtbased 00456524     ucrtd:ucrtbased.dll
 0004:00000538       __IMPORT_DESCRIPTOR_KERNEL32 00456538     kernel32:KERNEL32.dll
 0004:0000054c       __NULL_IMPORT_DESCRIPTOR   0045654c     SDL2:SDL2.dll
 0005:00000000       ___guard_check_icall_fptr  00459000     MSVCRTD:guard_support.obj
 0005:00000004       ___guard_xfg_check_icall_fptr 00459004     MSVCRTD:guard_support.obj
 0005:00000008       ___castguard_check_failure_os_handled_fptr 00459008     MSVCRTD:guard_support.obj

 entry point at        0001:000000aa

 Static symbols

 0000:00000000       _volmd                     00400000     Arrow.obj
 0000:00000000       _volmd                     00400000     Arrow.obj
 0000:00000000       _volmd                     00400000     Arrow.obj
 0000:00000000       _volmd                     00400000     Arrow.obj
 0000:00000000       _volmd                     00400000     Arrow.obj
 0000:00000000       _volmd                     00400000     Arrow.obj
 0000:00000000       _volmd                     00400000     Arrow.obj
 0000:00000000       _volmd                     00400000     Arrow.obj
 0000:00000000       _volmd                     00400000     Arrow.obj
 0000:00000000       _volmd                     00400000     Arrow.obj
 0000:00000000       _volmd                     00400000     Arrow.obj
 0000:00000000       _volmd                     00400000     Arrow.obj
 0000:00000000       _volmd                     00400000     Arrow.obj
 0000:00000000       _volmd                     00400000     Arrow.obj
 0000:00000000       _volmd                     00400000     Arrow.obj
 0000:00000000       _volmd                     00400000     Arrow.obj
 0000:00000000       _volmd                     00400000     Arrow.obj
 0000:00000000       _volmd                     00400000     Arrow.obj
 0000:00000000       _volmd                     00400000     Arrow.obj
 0000:00000000       _volmd                     00400000     Arrow.obj
 0000:00000000       _volmd                     00400000     Arrow.obj
 0000:00000000       _volmd                     00400000     Arrow.obj
 0000:00000000       _volmd                     00400000     Arrow.obj
 0000:00000000       _volmd                     00400000     Arrow.obj
 0000:00000000       _volmd                     00400000     Arrow.obj
 0000:00000000       _volmd                     00400000     Arrow.obj
 0000:00000000       _volmd                     00400000     Arrow.obj
 0000:00000000       _volmd                     00400000     Arrow.obj
 0000:00000000       _volmd                     00400000     Arrow.obj
 0000:00000000       _volmd                     00400000     Arrow.obj
 0000:00000000       _volmd                     00400000     Arrow.obj
 0000:00000000       _volmd                     00400000     Arrow.obj
 0000:00000000       _volmd                     00400000     Arrow.obj
 0000:00000000       _volmd                     00400000     Arrow.obj
 0000:00000000       _volmd                     00400000     Arrow.obj
 0000:00000000       _volmd                     00400000     Arrow.obj
 0000:00000000       _volmd                     00400000     Arrow.obj
 0000:00000000       _volmd                     00400000     Arrow.obj
 0000:00000000       _volmd                     00400000     Arrow.obj
 0002:fffbe000       __catchsym$??$?6U?$char_traits@D@std@@@std@@YAAAV?$basic_ostream@DU?$char_traits@D@std@@@0@AAV10@PBD@Z$3 00400000     Attack.obj
 0002:fffbe000       __catchsym$??$_Insert_string@DU?$char_traits@D@std@@I@std@@YAAAV?$basic_ostream@DU?$char_traits@D@std@@@0@AAV10@QBDI@Z$3 00400000     Attack.obj
 0002:fffbe000       __ehfuncinfo$??$_Deallocate@$07$0A@@std@@YAXPAXI@Z 00400000     Attack.obj
 0002:fffbe000       __ehfuncinfo$??$_Deallocate_plain@V?$allocator@U_Container_proxy@std@@@std@@@std@@YAXAAV?$allocator@U_Container_proxy@std@@@0@QAU_Container_proxy@0@@Z 00400000     Attack.obj
 0002:fffbe000       __ehfuncinfo$??$_Freenode0@V?$allocator@U?$_Tree_node@U?$pair@$$CBV?$basic_string@DU?$char_traits@D@std@@V?$allocator@D@2@@std@@V?$weak_ptr@VRawImageData@@@2@@std@@PAX@std@@@std@@@?$_Tree_node@U?$pair@$$CBV?$basic_string@DU?$char_traits@D@std@@V?$allocator@D@2@@std@@V?$weak_ptr@VRawImageData@@@2@@std@@PAX@std@@SAXAAV?$allocator@U?$_Tree_node@U?$pair@$$CBV?$basic_string@DU?$char_traits@D@std@@V?$allocator@D@2@@std@@V?$weak_ptr@VRawImageData@@@2@@std@@PAX@std@@@1@PAU01@@Z 00400000     Attack.obj
 0002:fffbe000       __ehfuncinfo$??$_Freenode@V?$allocator@U?$_Tree_node@U?$pair@$$CBV?$basic_string@DU?$char_traits@D@std@@V?$allocator@D@2@@std@@V?$weak_ptr@VRawImageData@@@2@@std@@PAX@std@@@std@@@?$_Tree_node@U?$pair@$$CBV?$basic_string@DU?$char_traits@D@std@@V?$allocator@D@2@@std@@V?$weak_ptr@VRawImageData@@@2@@std@@PAX@std@@SAXAAV?$allocator@U?$_Tree_node@U?$pair@$$CBV?$basic_string@DU?$char_traits@D@std@@V?$allocator@D@2@@std@@V?$weak_ptr@VRawImageData@@@2@@std@@PAX@std@@@1@PAU01@@Z 00400000     Attack.obj
 0002:fffbe000       __ehfuncinfo$??0?$basic_string@DU?$char_traits@D@std@@V?$allocator@D@2@@std@@QAE@$$QAV01@@Z 00400000     Attack.obj
 0002:fffbe000       __ehfuncinfo$??0?$basic_string@DU?$char_traits@D@std@@V?$allocator@D@2@@std@@QAE@XZ 00400000     Attack.obj
 0002:fffbe000       __ehfuncinfo$??1?$_Alloc_construct_ptr@V?$allocator@U?$_Tree_node@U?$pair@$$CBV?$basic_string@DU?$char_traits@D@std@@V?$allocator@D@2@@std@@V?$shared_ptr@VRawImageData@@@2@@std@@PAX@std@@@std@@@std@@QAE@XZ 00400000     Attack.obj
 0002:fffbe000       __ehfuncinfo$??1?$_Alloc_construct_ptr@V?$allocator@U?$_Tree_node@U?$pair@$$CBV?$basic_string@DU?$char_traits@D@std@@V?$allocator@D@2@@std@@V?$weak_ptr@VRawImageData@@@2@@std@@PAX@std@@@std@@@std@@QAE@XZ 00400000     Attack.obj
 0002:fffbe000       __ehfuncinfo$??1?$_Tree_temp_node@V?$allocator@U?$_Tree_node@U?$pair@$$CBV?$basic_string@DU?$char_traits@D@std@@V?$allocator@D@2@@std@@V?$shared_ptr@VRawImageData@@@2@@std@@PAX@std@@@std@@@std@@QAE@XZ 00400000     Attack.obj
 0002:fffbe000       __ehfuncinfo$??1?$_Tree_temp_node@V?$allocator@U?$_Tree_node@U?$pair@$$CBV?$basic_string@DU?$char_traits@D@std@@V?$allocator@D@2@@std@@V?$weak_ptr@VRawImageData@@@2@@std@@PAX@std@@@std@@@std@@QAE@XZ 00400000     Attack.obj
 0002:fffbe000       __ehfuncinfo$??1RawImageData@@QAE@XZ 00400000     Attack.obj
 0002:fffbe000       __ehfuncinfo$??1_Sentry_base@?$basic_ostream@DU?$char_traits@D@std@@@std@@QAE@XZ 00400000     Attack.obj
 0002:fffbe000       __ehfuncinfo$??1sentry@?$basic_ostream@DU?$char_traits@D@std@@@std@@QAE@XZ 00400000     Attack.obj
 0002:fffbe000       __ehfuncinfo$?_Take_contents@?$basic_string@DU?$char_traits@D@std@@V?$allocator@D@2@@std@@AAEXAAV12@@Z 00400000     Attack.obj
 0002:fffbe000       __ehfuncinfo$?_Tidy_deallocate@?$basic_string@DU?$char_traits@D@std@@V?$allocator@D@2@@std@@AAEXXZ 00400000     Attack.obj
 0002:fffbe000       __ehfuncinfo$?getImagePtrbyURL@ImageManager@@QAE?AV?$shared_ptr@VRawImageData@@@std@@V?$basic_string@DU?$char_traits@D@std@@V?$allocator@D@2@@3@_N1@Z 00400000     Attack.obj
 0001:fffff000       __ehhandler$??$_Deallocate@$07$0A@@std@@YAXPAXI@Z 00400000 f   Attack.obj
 0001:fffff000       __ehhandler$??$_Deallocate_plain@V?$allocator@U_Container_proxy@std@@@std@@@std@@YAXAAV?$allocator@U_Container_proxy@std@@@0@QAU_Container_proxy@0@@Z 00400000 f   Attack.obj
 0001:fffff000       __ehhandler$??$_Freenode0@V?$allocator@U?$_Tree_node@U?$pair@$$CBV?$basic_string@DU?$char_traits@D@std@@V?$allocator@D@2@@std@@V?$weak_ptr@VRawImageData@@@2@@std@@PAX@std@@@std@@@?$_Tree_node@U?$pair@$$CBV?$basic_string@DU?$char_traits@D@std@@V?$allocator@D@2@@std@@V?$weak_ptr@VRawImageData@@@2@@std@@PAX@std@@SAXAAV?$allocator@U?$_Tree_node@U?$pair@$$CBV?$basic_string@DU?$char_traits@D@std@@V?$allocator@D@2@@std@@V?$weak_ptr@VRawImageData@@@2@@std@@PAX@std@@@1@PAU01@@Z 00400000 f   Attack.obj
 0001:fffff000       __ehhandler$??$_Freenode@V?$allocator@U?$_Tree_node@U?$pair@$$CBV?$basic_string@DU?$char_traits@D@std@@V?$allocator@D@2@@std@@V?$weak_ptr@VRawImageData@@@2@@std@@PAX@std@@@std@@@?$_Tree_node@U?$pair@$$CBV?$basic_string@DU?$char_traits@D@std@@V?$allocator@D@2@@std@@V?$weak_ptr@VRawImageData@@@2@@std@@PAX@std@@SAXAAV?$allocator@U?$_Tree_node@U?$pair@$$CBV?$basic_string@DU?$char_traits@D@std@@V?$allocator@D@2@@std@@V?$weak_ptr@VRawImageData@@@2@@std@@PAX@std@@@1@PAU01@@Z 00400000 f   Attack.obj
 0001:fffff000       __ehhandler$??0?$basic_string@DU?$char_traits@D@std@@V?$allocator@D@2@@std@@QAE@$$QAV01@@Z 00400000 f   Attack.obj
 0001:fffff000       __ehhandler$??0?$basic_string@DU?$char_traits@D@std@@V?$allocator@D@2@@std@@QAE@XZ 00400000 f   Attack.obj
 0001:fffff000       __ehhandler$??1?$_Alloc_construct_ptr@V?$allocator@U?$_Tree_node@U?$pair@$$CBV?$basic_string@DU?$char_traits@D@std@@V?$allocator@D@2@@std@@V?$shared_ptr@VRawImageData@@@2@@std@@PAX@std@@@std@@@std@@QAE@XZ 00400000 f   Attack.obj
 0001:fffff000       __ehhandler$??1?$_Alloc_construct_ptr@V?$allocator@U?$_Tree_node@U?$pair@$$CBV?$basic_string@DU?$char_traits@D@std@@V?$allocator@D@2@@std@@V?$weak_ptr@VRawImageData@@@2@@std@@PAX@std@@@std@@@std@@QAE@XZ 00400000 f   Attack.obj
 0001:fffff000       __ehhandler$??1?$_Tree_temp_node@V?$allocator@U?$_Tree_node@U?$pair@$$CBV?$basic_string@DU?$char_traits@D@std@@V?$allocator@D@2@@std@@V?$shared_ptr@VRawImageData@@@2@@std@@PAX@std@@@std@@@std@@QAE@XZ 00400000 f   Attack.obj
 0001:fffff000       __ehhandler$??1?$_Tree_temp_node@V?$allocator@U?$_Tree_node@U?$pair@$$CBV?$basic_string@DU?$char_traits@D@std@@V?$allocator@D@2@@std@@V?$weak_ptr@VRawImageData@@@2@@std@@PAX@std@@@std@@@std@@QAE@XZ 00400000 f   Attack.obj
 0001:fffff000       __ehhandler$??1RawImageData@@QAE@XZ 00400000 f   Attack.obj
 0001:fffff000       __ehhandler$??1_Sentry_base@?$basic_ostream@DU?$char_traits@D@std@@@std@@QAE@XZ 00400000 f   Attack.obj
 0001:fffff000       __ehhandler$??1sentry@?$basic_ostream@DU?$char_traits@D@std@@@std@@QAE@XZ 00400000 f   Attack.obj
 0001:fffff000       __ehhandler$?_Take_contents@?$basic_string@DU?$char_traits@D@std@@V?$allocator@D@2@@std@@AAEXAAV12@@Z 00400000 f   Attack.obj
 0001:fffff000       __ehhandler$?_Tidy_deallocate@?$basic_string@DU?$char_traits@D@std@@V?$allocator@D@2@@std@@AAEXXZ 00400000 f   Attack.obj
 0001:fffff000       __unwindfunclet$??$?0U?$pair@V?$basic_string@DU?$char_traits@D@std@@V?$allocator@D@2@@std@@V?$shared_ptr@VRawImageData@@@2@@std@@@?$_Tree_temp_node@V?$allocator@U?$_Tree_node@U?$pair@$$CBV?$basic_string@DU?$char_traits@D@std@@V?$allocator@D@2@@std@@V?$shared_ptr@VRawImageData@@@2@@std@@PAX@std@@@std@@@std@@QAE@AAV?$allocator@U?$_Tree_node@U?$pair@$$CBV?$basic_string@DU?$char_traits@D@std@@V?$allocator@D@2@@std@@V?$shared_ptr@VRawImageData@@@2@@std@@PAX@std@@@1@PAU?$_Tree_node@U?$pair@$$CBV?$basic_string@DU?$char_traits@D@std@@V?$allocator@D@2@@std@@V?$shared_ptr@VRawImageData@@@2@@std@@PAX@1@$$QAU?$pair@V?$basic_string@DU?$char_traits@D@std@@V?$allocator@D@2@@std@@V?$shared_ptr@VRawImageData@@@2@@1@@Z$0 00400000 f   Attack.obj
 0001:fffff000       __unwindfunclet$??$?0U?$pair@V?$basic_string@DU?$char_traits@D@std@@V?$allocator@D@2@@std@@V?$weak_ptr@VRawImageData@@@2@@std@@@?$_Tree_temp_node@V?$allocator@U?$_Tree_node@U?$pair@$$CBV?$basic_string@DU?$char_traits@D@std@@V?$allocator@D@2@@std@@V?$weak_ptr@VRawImageData@@@2@@std@@PAX@std@@@std@@@std@@QAE@AAV?$allocator@U?$_Tree_node@U?$pair@$$CBV?$basic_string@DU?$char_traits@D@std@@V?$allocator@D@2@@std@@V?$weak_ptr@VRawImageData@@@2@@std@@PAX@std@@@1@PAU?$_Tree_node@U?$pair@$$CBV?$basic_string@DU?$char_traits@D@std@@V?$allocator@D@2@@std@@V?$weak_ptr@VRawImageData@@@2@@std@@PAX@1@$$QAU?$pair@V?$basic_string@DU?$char_traits@D@std@@V?$allocator@D@2@@std@@V?$weak_ptr@VRawImageData@@@2@@1@@Z$0 00400000 f   Attack.obj
 0001:fffff000       __unwindfunclet$??$?0VRawImageData@@$0A@@?$shared_ptr@VRawImageData@@@std@@QAE@PAVRawImageData@@@Z$0 00400000 f   Attack.obj
 0001:fffff000       __unwindfunclet$??$?6U?$char_traits@D@std@@@std@@YAAAV?$basic_ostream@DU?$char_traits@D@std@@@0@AAV10@PBD@Z$2 00400000 f   Attack.obj
 0001:fffff000       __unwindfunclet$??$_Construct@$01PBD@?$basic_string@DU?$char_traits@D@std@@V?$allocator@D@2@@std@@AAEXQBDI@Z$0 00400000 f   Attack.obj
 0001:fffff000       __unwindfunclet$??$_Insert_string@DU?$char_traits@D@std@@I@std@@YAAAV?$basic_ostream@DU?$char_traits@D@std@@@0@AAV10@QBDI@Z$2 00400000 f   Attack.obj
 0001:fffff000       __unwindfunclet$??0?$_Tree_temp_node_alloc@V?$allocator@U?$_Tree_node@U?$pair@$$CBV?$basic_string@DU?$char_traits@D@std@@V?$allocator@D@2@@std@@V?$shared_ptr@VRawImageData@@@2@@std@@PAX@std@@@std@@@std@@QAE@AAV?$allocator@U?$_Tree_node@U?$pair@$$CBV?$basic_string@DU?$char_traits@D@std@@V?$allocator@D@2@@std@@V?$shared_ptr@VRawImageData@@@2@@std@@PAX@std@@@1@@Z$0 00400000 f   Attack.obj
 0001:fffff000       __unwindfunclet$??0?$_Tree_temp_node_alloc@V?$allocator@U?$_Tree_node@U?$pair@$$CBV?$basic_string@DU?$char_traits@D@std@@V?$allocator@D@2@@std@@V?$weak_ptr@VRawImageData@@@2@@std@@PAX@std@@@std@@@std@@QAE@AAV?$allocator@U?$_Tree_node@U?$pair@$$CBV?$basic_string@DU?$char_traits@D@std@@V?$allocator@D@2@@std@@V?$weak_ptr@VRawImageData@@@2@@std@@PAX@std@@@1@@Z$0 00400000 f   Attack.obj
 0001:fffff000       __unwindfunclet$??0?$basic_string@DU?$char_traits@D@std@@V?$allocator@D@2@@std@@QAE@ABV01@@Z$0 00400000 f   Attack.obj
 0001:fffff000       __unwindfunclet$??0ImageManager@@QAE@XZ$0 00400000 f   Attack.obj
 0001:fffff000       __unwindfunclet$??0RawImageData@@QAE@V?$basic_string@DU?$char_traits@D@std@@V?$allocator@D@2@@std@@@Z$0 00400000 f   Attack.obj
 0001:fffff000       __unwindfunclet$??0sentry@?$basic_ostream@DU?$char_traits@D@std@@@std@@QAE@AAV12@@Z$0 00400000 f   Attack.obj
 0001:fffff000       __unwindfunclet$?_Alloc_sentinel_and_proxy@?$_Tree@V?$_Tmap_traits@V?$basic_string@DU?$char_traits@D@std@@V?$allocator@D@2@@std@@V?$shared_ptr@VRawImageData@@@2@U?$less@V?$basic_string@DU?$char_traits@D@std@@V?$allocator@D@2@@std@@@2@V?$allocator@U?$pair@$$CBV?$basic_string@DU?$char_traits@D@std@@V?$allocator@D@2@@std@@V?$shared_ptr@VRawImageData@@@2@@std@@@2@$0A@@std@@@std@@IAEXXZ$0 00400000 f   Attack.obj
 0001:fffff000       __unwindfunclet$?_Alloc_sentinel_and_proxy@?$_Tree@V?$_Tmap_traits@V?$basic_string@DU?$char_traits@D@std@@V?$allocator@D@2@@std@@V?$weak_ptr@VRawImageData@@@2@U?$less@V?$basic_string@DU?$char_traits@D@std@@V?$allocator@D@2@@std@@@2@V?$allocator@U?$pair@$$CBV?$basic_string@DU?$char_traits@D@std@@V?$allocator@D@2@@std@@V?$weak_ptr@VRawImageData@@@2@@std@@@2@$0A@@std@@@std@@IAEXXZ$0 00400000 f   Attack.obj
 0001:fffff000       __unwindfunclet$?_Orphan_range_locked@?$vector@PAVDisplayableObject@@V?$allocator@PAVDisplayableObject@@@std@@@std@@ABEXPAPAVDisplayableObject@@0@Z$0 00400000 f   Attack.obj
 0001:fffff000       __unwindfunclet$?get@ImageManager@@SAPAV1@XZ$0 00400000 f   Attack.obj
 0001:fffff000       __unwindfunclet$?getImagePtrbyURL@ImageManager@@QAE?AV?$shared_ptr@VRawImageData@@@std@@V?$basic_string@DU?$char_traits@D@std@@V?$allocator@D@2@@3@_N1@Z$0 00400000 f   Attack.obj
 0001:fffff000       __unwindfunclet$?getImagebyURL@ImageManager@@QAE?AVSimpleImage@@V?$basic_string@DU?$char_traits@D@std@@V?$allocator@D@2@@std@@_N1@Z$0 00400000 f   Attack.obj
 0001:fffff000       __unwindfunclet$?loadAsNew@ImageManager@@QAE?AV?$shared_ptr@VRawImageData@@@std@@V?$basic_string@DU?$char_traits@D@std@@V?$allocator@D@2@@3@@Z$0 00400000 f   Attack.obj
 0001:fffff000       __unwindfunclet$?loadImage@ImageManager@@SA?AVSimpleImage@@V?$basic_string@DU?$char_traits@D@std@@V?$allocator@D@2@@std@@_N@Z$0 00400000 f   Attack.obj
 0001:fffff000       __unwindfunclet$?loadImage@RawImageData@@QAE_NV?$basic_string@DU?$char_traits@D@std@@V?$allocator@D@2@@std@@HHHHH_N@Z$0 00400000 f   Attack.obj
 0002:fffbe000       __unwindtable$??$?0U?$pair@V?$basic_string@DU?$char_traits@D@std@@V?$allocator@D@2@@std@@V?$shared_ptr@VRawImageData@@@2@@std@@@?$_Tree_temp_node@V?$allocator@U?$_Tree_node@U?$pair@$$CBV?$basic_string@DU?$char_traits@D@std@@V?$allocator@D@2@@std@@V?$shared_ptr@VRawImageData@@@2@@std@@PAX@std@@@std@@@std@@QAE@AAV?$allocator@U?$_Tree_node@U?$pair@$$CBV?$basic_string@DU?$char_traits@D@std@@V?$allocator@D@2@@std@@V?$shared_ptr@VRawImageData@@@2@@std@@PAX@std@@@1@PAU?$_Tree_node@U?$pair@$$CBV?$basic_string@DU?$char_traits@D@std@@V?$allocator@D@2@@std@@V?$shared_ptr@VRawImageData@@@2@@std@@PAX@1@$$QAU?$pair@V?$basic_string@DU?$char_traits@D@std@@V?$allocator@D@2@@std@@V?$shared_ptr@VRawImageData@@@2@@1@@Z 00400000     Attack.obj
 0002:fffbe000       __unwindtable$??$?0U?$pair@V?$basic_string@DU?$char_traits@D@std@@V?$allocator@D@2@@std@@V?$weak_ptr@VRawImageData@@@2@@std@@@?$_Tree_temp_node@V?$allocator@U?$_Tree_node@U?$pair@$$CBV?$basic_string@DU?$char_traits@D@std@@V?$allocator@D@2@@std@@V?$weak_ptr@VRawImageData@@@2@@std@@PAX@std@@@std@@@std@@QAE@AAV?$allocator@U?$_Tree_node@U?$pair@$$CBV?$basic_string@DU?$char_traits@D@std@@V?$allocator@D@2@@std@@V?$weak_ptr@VRawImageData@@@2@@std@@PAX@std@@@1@PAU?$_Tree_node@U?$pair@$$CBV?$basic_string@DU?$char_traits@D@std@@V?$allocator@D@2@@std@@V?$weak_ptr@VRawImageData@@@2@@std@@PAX@1@$$QAU?$pair@V?$basic_string@DU?$char_traits@D@std@@V?$allocator@D@2@@std@@V?$weak_ptr@VRawImageData@@@2@@1@@Z 00400000     Attack.obj
 0002:fffbe000       __unwindtable$??$?0VRawImageData@@$0A@@?$shared_ptr@VRawImageData@@@std@@QAE@PAVRawImageData@@@Z 00400000     Attack.obj
 0002:fffbe000       __unwindtable$??$_Construct@$01PBD@?$basic_string@DU?$char_traits@D@std@@V?$allocator@D@2@@std@@AAEXQBDI@Z 00400000     Attack.obj
 0002:fffbe000       __unwindtable$??0?$_Tree_temp_node_alloc@V?$allocator@U?$_Tree_node@U?$pair@$$CBV?$basic_string@DU?$char_traits@D@std@@V?$allocator@D@2@@std@@V?$shared_ptr@VRawImageData@@@2@@std@@PAX@std@@@std@@@std@@QAE@AAV?$allocator@U?$_Tree_node@U?$pair@$$CBV?$basic_string@DU?$char_traits@D@std@@V?$allocator@D@2@@std@@V?$shared_ptr@VRawImageData@@@2@@std@@PAX@std@@@1@@Z 00400000     Attack.obj
 0002:fffbe000       __unwindtable$??0?$_Tree_temp_node_alloc@V?$allocator@U?$_Tree_node@U?$pair@$$CBV?$basic_string@DU?$char_traits@D@std@@V?$allocator@D@2@@std@@V?$weak_ptr@VRawImageData@@@2@@std@@PAX@std@@@std@@@std@@QAE@AAV?$allocator@U?$_Tree_node@U?$pair@$$CBV?$basic_string@DU?$char_traits@D@std@@V?$allocator@D@2@@std@@V?$weak_ptr@VRawImageData@@@2@@std@@PAX@std@@@1@@Z 00400000     Attack.obj
 0002:fffbe000       __unwindtable$??0?$basic_string@DU?$char_traits@D@std@@V?$allocator@D@2@@std@@QAE@ABV01@@Z 00400000     Attack.obj
 0002:fffbe000       __unwindtable$??0ImageManager@@QAE@XZ 00400000     Attack.obj
 0002:fffbe000       __unwindtable$??0RawImageData@@QAE@V?$basic_string@DU?$char_traits@D@std@@V?$allocator@D@2@@std@@@Z 00400000     Attack.obj
 0002:fffbe000       __unwindtable$??0sentry@?$basic_ostream@DU?$char_traits@D@std@@@std@@QAE@AAV12@@Z 00400000     Attack.obj
 0002:fffbe000       __unwindtable$?_Alloc_sentinel_and_proxy@?$_Tree@V?$_Tmap_traits@V?$basic_string@DU?$char_traits@D@std@@V?$allocator@D@2@@std@@V?$shared_ptr@VRawImageData@@@2@U?$less@V?$basic_string@DU?$char_traits@D@std@@V?$allocator@D@2@@std@@@2@V?$allocator@U?$pair@$$CBV?$basic_string@DU?$char_traits@D@std@@V?$allocator@D@2@@std@@V?$shared_ptr@VRawImageData@@@2@@std@@@2@$0A@@std@@@std@@IAEXXZ 00400000     Attack.obj
 0002:fffbe000       __unwindtable$?_Alloc_sentinel_and_proxy@?$_Tree@V?$_Tmap_traits@V?$basic_string@DU?$char_traits@D@std@@V?$allocator@D@2@@std@@V?$weak_ptr@VRawImageData@@@2@U?$less@V?$basic_string@DU?$char_traits@D@std@@V?$allocator@D@2@@std@@@2@V?$allocator@U?$pair@$$CBV?$basic_string@DU?$char_traits@D@std@@V?$allocator@D@2@@std@@V?$weak_ptr@VRawImageData@@@2@@std@@@2@$0A@@std@@@std@@IAEXXZ 00400000     Attack.obj
 0002:fffbe000       __unwindtable$?_Orphan_range_locked@?$vector@PAVDisplayableObject@@V?$allocator@PAVDisplayableObject@@@std@@@std@@ABEXPAPAVDisplayableObject@@0@Z 00400000     Attack.obj
 0002:fffbe000       __unwindtable$?get@ImageManager@@SAPAV1@XZ 00400000     Attack.obj
 0002:fffbe000       __unwindtable$?getImagebyURL@ImageManager@@QAE?AVSimpleImage@@V?$basic_string@DU?$char_traits@D@std@@V?$allocator@D@2@@std@@_N1@Z 00400000     Attack.obj
 0002:fffbe000       __unwindtable$?loadAsNew@ImageManager@@QAE?AV?$shared_ptr@VRawImageData@@@std@@V?$basic_string@DU?$char_traits@D@std@@V?$allocator@D@2@@3@@Z 00400000     Attack.obj
 0002:fffbe000       __unwindtable$?loadImage@ImageManager@@SA?AVSimpleImage@@V?$basic_string@DU?$char_traits@D@std@@V?$allocator@D@2@@std@@_N@Z 00400000     Attack.obj
 0002:fffbe000       __unwindtable$?loadImage@RawImageData@@QAE_NV?$basic_string@DU?$char_traits@D@std@@V?$allocator@D@2@@std@@HHHHH_N@Z 00400000     Attack.obj
 0000:00000000       _volmd                     00400000     Attack.obj
 0000:00000000       _volmd                     00400000     Attack.obj
 0000:00000000       _volmd                     00400000     Attack.obj
 0000:00000000       _volmd                     00400000     Attack.obj
 0000:00000000       _volmd                     00400000     Attack.obj
 0000:00000000       _volmd                     00400000     Attack.obj
 0000:00000000       _volmd                     00400000     Attack.obj
 0000:00000000       _volmd                     00400000     Attack.obj
 0000:00000000       _volmd                     00400000     Attack.obj
 0000:00000000       _volmd                     00400000     Attack.obj
 0000:00000000       _volmd                     00400000     Attack.obj
 0000:00000000       _volmd                     00400000     Attack.obj
 0000:00000000       _volmd                     00400000     Attack.obj
 0000:00000000       _volmd                     00400000     Attack.obj
 0000:00000000       _volmd                     00400000     Attack.obj
 0000:00000000       _volmd                     00400000     Attack.obj
 0000:00000000       _volmd                     00400000     Attack.obj
 0000:00000000       _volmd                     00400000     Attack.obj
 0000:00000000       _volmd                     00400000     Attack.obj
 0000:00000000       _volmd                     00400000     Attack.obj
 0000:00000000       _volmd                     00400000     Attack.obj
 0000:00000000       _volmd                     00400000     Attack.obj
 0000:00000000       _volmd                     00400000     Attack.obj
 0000:00000000       _volmd                     00400000     Attack.obj
 0000:00000000       _volmd                     00400000     Attack.obj
 0000:00000000       _volmd                     00400000     Attack.obj
 0000:00000000       _volmd                     00400000     Attack.obj
 0000:00000000       _volmd                     00400000     Attack.obj
 0000:00000000       _volmd                     00400000     Attack.obj
 0000:00000000       _volmd                     00400000     Attack.obj
 0000:00000000       _volmd                     00400000     Attack.obj
 0000:00000000       _volmd                     00400000     Attack.obj
 0000:00000000       _volmd                     00400000     Attack.obj
 0000:00000000       _volmd                     00400000     Attack.obj
 0000:00000000       _volmd                     00400000     Attack.obj
 0000:00000000       _volmd                     00400000     Attack.obj
 0000:00000000       _volmd                     00400000     Attack.obj
 0000:00000000       _volmd                     00400000     Attack.obj
 0000:00000000       _volmd                     00400000     Attack.obj
 0000:00000000       _volmd                     00400000     Attack.obj
 0000:00000000       _volmd                     00400000     Attack.obj
 0002:fffbe000       __ehfuncinfo$??$_Deallocate@$07$0A@@std@@YAXPAXI@Z 00400000     BaseEngine.obj
 0002:fffbe000       __ehfuncinfo$??$_Deallocate_plain@V?$allocator@U_Container_proxy@std@@@std@@@std@@YAXAAV?$allocator@U_Container_proxy@std@@@0@QAU_Container_proxy@0@@Z 00400000     BaseEngine.obj
 0001:fffff000       __ehhandler$??$_Deallocate@$07$0A@@std@@YAXPAXI@Z 00400000 f   BaseEngine.obj
 0001:fffff000       __ehhandler$??$_Deallocate_plain@V?$allocator@U_Container_proxy@std@@@std@@@std@@YAXAAV?$allocator@U_Container_proxy@std@@@0@QAU_Container_proxy@0@@Z 00400000 f   BaseEngine.obj
 0001:fffff000       __unwindfunclet$??$_Uninitialized_value_construct_n@V?$allocator@PAVDisplayableObject@@@std@@@std@@YAPAPAVDisplayableObject@@PAPAV1@IAAV?$allocator@PAVDisplayableObject@@@0@@Z$0 00400000 f   BaseEngine.obj
 0002:fffbe000       __unwindtable$??$_Uninitialized_value_construct_n@V?$allocator@PAVDisplayableObject@@@std@@@std@@YAPAPAVDisplayableObject@@PAPAV1@IAAV?$allocator@PAVDisplayableObject@@@0@@Z 00400000     BaseEngine.obj
 0000:00000000       _volmd                     00400000     BaseEngine.obj
 0000:00000000       _volmd                     00400000     BaseEngine.obj
 0000:00000000       _volmd                     00400000     BaseEngine.obj
 0000:00000000       _volmd                     00400000     BaseEngine.obj
 0000:00000000       _volmd                     00400000     BaseEngine.obj
 0000:00000000       _volmd                     00400000     BaseEngine.obj
 0000:00000000       _volmd                     00400000     BaseEngine.obj
 0000:00000000       _volmd                     00400000     BaseEngine.obj
 0000:00000000       _volmd                     00400000     BaseEngine.obj
 0000:00000000       _volmd                     00400000     BaseEngine.obj
 0000:00000000       _volmd                     00400000     BaseEngine.obj
 0000:00000000       _volmd                     00400000     BaseEngine.obj
 0000:00000000       _volmd                     00400000     BaseEngine.obj
 0002:fffbe000       __catchsym$??$?6U?$char_traits@D@std@@@std@@YAAAV?$basic_ostream@DU?$char_traits@D@std@@@0@AAV10@PBD@Z$3 00400000     BouncingBall.obj
 0002:fffbe000       __ehfuncinfo$??1_Sentry_base@?$basic_ostream@DU?$char_traits@D@std@@@std@@QAE@XZ 00400000     BouncingBall.obj
 0002:fffbe000       __ehfuncinfo$??1sentry@?$basic_ostream@DU?$char_traits@D@std@@@std@@QAE@XZ 00400000     BouncingBall.obj
 0001:fffff000       __ehhandler$??1_Sentry_base@?$basic_ostream@DU?$char_traits@D@std@@@std@@QAE@XZ 00400000 f   BouncingBall.obj
 0001:fffff000       __ehhandler$??1sentry@?$basic_ostream@DU?$char_traits@D@std@@@std@@QAE@XZ 00400000 f   BouncingBall.obj
 0001:fffff000       __unwindfunclet$??$?6U?$char_traits@D@std@@@std@@YAAAV?$basic_ostream@DU?$char_traits@D@std@@@0@AAV10@PBD@Z$2 00400000 f   BouncingBall.obj
 0001:fffff000       __unwindfunclet$??0sentry@?$basic_ostream@DU?$char_traits@D@std@@@std@@QAE@AAV12@@Z$0 00400000 f   BouncingBall.obj
 0002:fffbe000       __unwindtable$??0sentry@?$basic_ostream@DU?$char_traits@D@std@@@std@@QAE@AAV12@@Z 00400000     BouncingBall.obj
 0000:00000000       _volmd                     00400000     BouncingBall.obj
 0000:00000000       _volmd                     00400000     BouncingBall.obj
 0000:00000000       _volmd                     00400000     BouncingBall.obj
 0000:00000000       _volmd                     00400000     BouncingBall.obj
 0000:00000000       _volmd                     00400000     BouncingBall.obj
 0002:fffbe000       __catchsym$??$?6U?$char_traits@D@std@@@std@@YAAAV?$basic_ostream@DU?$char_traits@D@std@@@0@AAV10@PBD@Z$3 00400000     BouncingBallMain.obj
 0002:fffbe000       __catchsym$??$_Resize_reallocate@U_Value_init_tag@std@@@?$vector@PAVDisplayableObject@@V?$allocator@PAVDisplayableObject@@@std@@@std@@AAEXIABU_Value_init_tag@1@@Z$2 00400000     BouncingBallMain.obj
 0002:fffbe000       __ehfuncinfo$??$_Deallocate@$07$0A@@std@@YAXPAXI@Z 00400000     BouncingBallMain.obj
 0002:fffbe000       __ehfuncinfo$??1_Sentry_base@?$basic_ostream@DU?$char_traits@D@std@@@std@@QAE@XZ 00400000     BouncingBallMain.obj
 0002:fffbe000       __ehfuncinfo$??1sentry@?$basic_ostream@DU?$char_traits@D@std@@@std@@QAE@XZ 00400000     BouncingBallMain.obj
 0001:fffff000       __ehhandler$??$_Deallocate@$07$0A@@std@@YAXPAXI@Z 00400000 f   BouncingBallMain.obj
 0001:fffff000       __ehhandler$??$_Resize_reallocate@U_Value_init_tag@std@@@?$vector@PAVDisplayableObject@@V?$allocator@PAVDisplayableObject@@@std@@@std@@AAEXIABU_Value_init_tag@1@@Z 00400000 f   BouncingBallMain.obj
 0001:fffff000       __ehhandler$??1_Sentry_base@?$basic_ostream@DU?$char_traits@D@std@@@std@@QAE@XZ 00400000 f   BouncingBallMain.obj
 0001:fffff000       __ehhandler$??1sentry@?$basic_ostream@DU?$char_traits@D@std@@@std@@QAE@XZ 00400000 f   BouncingBallMain.obj
 0001:fffff000       __unwindfunclet$??$?6U?$char_traits@D@std@@@std@@YAAAV?$basic_ostream@DU?$char_traits@D@std@@@0@AAV10@PBD@Z$2 00400000 f   BouncingBallMain.obj
 0001:fffff000       __unwindfunclet$??$_Uninitialized_move@PAPAVDisplayableObject@@V?$allocator@PAVDisplayableObject@@@std@@@std@@YAPAPAVDisplayableObject@@QAPAV1@0PAPAV1@AAV?$allocator@PAVDisplayableObject@@@0@@Z$0 00400000 f   BouncingBallMain.obj
 0001:fffff000       __unwindfunclet$??$_Uninitialized_value_construct_n@V?$allocator@PAVDisplayableObject@@@std@@@std@@YAPAPAVDisplayableObject@@PAPAV1@IAAV?$allocator@PAVDisplayableObject@@@0@@Z$0 00400000 f   BouncingBallMain.obj
 0001:fffff000       __unwindfunclet$??0sentry@?$basic_ostream@DU?$char_traits@D@std@@@std@@QAE@AAV12@@Z$0 00400000 f   BouncingBallMain.obj
 0001:fffff000       __unwindfunclet$?_Orphan_range_locked@?$vector@PAVDisplayableObject@@V?$allocator@PAVDisplayableObject@@@std@@@std@@ABEXPAPAVDisplayableObject@@0@Z$0 00400000 f   BouncingBallMain.obj
 0002:fffbe000       __unwindtable$??$_Uninitialized_move@PAPAVDisplayableObject@@V?$allocator@PAVDisplayableObject@@@std@@@std@@YAPAPAVDisplayableObject@@QAPAV1@0PAPAV1@AAV?$allocator@PAVDisplayableObject@@@0@@Z 00400000     BouncingBallMain.obj
 0002:fffbe000       __unwindtable$??$_Uninitialized_value_construct_n@V?$allocator@PAVDisplayableObject@@@std@@@std@@YAPAPAVDisplayableObject@@PAPAV1@IAAV?$allocator@PAVDisplayableObject@@@0@@Z 00400000     BouncingBallMain.obj
 0002:fffbe000       __unwindtable$??0sentry@?$basic_ostream@DU?$char_traits@D@std@@@std@@QAE@AAV12@@Z 00400000     BouncingBallMain.obj
 0002:fffbe000       __unwindtable$?_Orphan_range_locked@?$vector@PAVDisplayableObject@@V?$allocator@PAVDisplayableObject@@@std@@@std@@ABEXPAPAVDisplayableObject@@0@Z 00400000     BouncingBallMain.obj
 0000:00000000       _volmd                     00400000     BouncingBallMain.obj
 0000:00000000       _volmd                     00400000     BouncingBallMain.obj
 0000:00000000       _volmd                     00400000     BouncingBallMain.obj
 0000:00000000       _volmd                     00400000     BouncingBallMain.obj
 0000:00000000       _volmd                     00400000     BouncingBallMain.obj
 0000:00000000       _volmd                     00400000     BouncingBallMain.obj
 0000:00000000       _volmd                     00400000     BouncingBallMain.obj
 0000:00000000       _volmd                     00400000     BouncingBallMain.obj
 0000:00000000       _volmd                     00400000     BouncingBallMain.obj
 0000:00000000       _volmd                     00400000     BouncingBallMain.obj
 0000:00000000       _volmd                     00400000     BouncingBallMain.obj
 0000:00000000       _volmd                     00400000     BouncingBallMain.obj
 0000:00000000       _volmd                     00400000     BouncingBallMain.obj
 0000:00000000       _volmd                     00400000     BouncingBallMain.obj
 0000:00000000       _volmd                     00400000     BouncingBallMain.obj
 0002:fffbe000       __catchsym$??$?6U?$char_traits@D@std@@@std@@YAAAV?$basic_ostream@DU?$char_traits@D@std@@@0@AAV10@PBD@Z$3 00400000     DisplayableObject.obj
 0002:fffbe000       __ehfuncinfo$??1_Sentry_base@?$basic_ostream@DU?$char_traits@D@std@@@std@@QAE@XZ 00400000     DisplayableObject.obj
 0002:fffbe000       __ehfuncinfo$??1sentry@?$basic_ostream@DU?$char_traits@D@std@@@std@@QAE@XZ 00400000     DisplayableObject.obj
 0001:fffff000       __ehhandler$??1_Sentry_base@?$basic_ostream@DU?$char_traits@D@std@@@std@@QAE@XZ 00400000 f   DisplayableObject.obj
 0001:fffff000       __ehhandler$??1sentry@?$basic_ostream@DU?$char_traits@D@std@@@std@@QAE@XZ 00400000 f   DisplayableObject.obj
 0001:fffff000       __unwindfunclet$??$?6U?$char_traits@D@std@@@std@@YAAAV?$basic_ostream@DU?$char_traits@D@std@@@0@AAV10@PBD@Z$2 00400000 f   DisplayableObject.obj
 0001:fffff000       __unwindfunclet$??0sentry@?$basic_ostream@DU?$char_traits@D@std@@@std@@QAE@AAV12@@Z$0 00400000 f   DisplayableObject.obj
 0002:fffbe000       __unwindtable$??0sentry@?$basic_ostream@DU?$char_traits@D@std@@@std@@QAE@AAV12@@Z 00400000     DisplayableObject.obj
 0000:00000000       _volmd                     00400000     DisplayableObject.obj
 0000:00000000       _volmd                     00400000     DisplayableObject.obj
 0000:00000000       _volmd                     00400000     DisplayableObject.obj
 0000:00000000       _volmd                     00400000     DisplayableObject.obj
 0002:fffbe000       __catchsym$??$?6U?$char_traits@D@std@@@std@@YAAAV?$basic_ostream@DU?$char_traits@D@std@@@0@AAV10@PBD@Z$3 00400000     DraggingDemo.obj
 0002:fffbe000       __catchsym$??$_Insert_string@DU?$char_traits@D@std@@I@std@@YAAAV?$basic_ostream@DU?$char_traits@D@std@@@0@AAV10@QBDI@Z$3 00400000     DraggingDemo.obj
 0002:fffbe000       __ehfuncinfo$??$_Deallocate@$07$0A@@std@@YAXPAXI@Z 00400000     DraggingDemo.obj
 0002:fffbe000       __ehfuncinfo$??$_Deallocate_plain@V?$allocator@U_Container_proxy@std@@@std@@@std@@YAXAAV?$allocator@U_Container_proxy@std@@@0@QAU_Container_proxy@0@@Z 00400000     DraggingDemo.obj
 0002:fffbe000       __ehfuncinfo$??$_Freenode0@V?$allocator@U?$_Tree_node@U?$pair@$$CBV?$basic_string@DU?$char_traits@D@std@@V?$allocator@D@2@@std@@V?$weak_ptr@VRawImageData@@@2@@std@@PAX@std@@@std@@@?$_Tree_node@U?$pair@$$CBV?$basic_string@DU?$char_traits@D@std@@V?$allocator@D@2@@std@@V?$weak_ptr@VRawImageData@@@2@@std@@PAX@std@@SAXAAV?$allocator@U?$_Tree_node@U?$pair@$$CBV?$basic_string@DU?$char_traits@D@std@@V?$allocator@D@2@@std@@V?$weak_ptr@VRawImageData@@@2@@std@@PAX@std@@@1@PAU01@@Z 00400000     DraggingDemo.obj
 0002:fffbe000       __ehfuncinfo$??$_Freenode@V?$allocator@U?$_Tree_node@U?$pair@$$CBV?$basic_string@DU?$char_traits@D@std@@V?$allocator@D@2@@std@@V?$weak_ptr@VRawImageData@@@2@@std@@PAX@std@@@std@@@?$_Tree_node@U?$pair@$$CBV?$basic_string@DU?$char_traits@D@std@@V?$allocator@D@2@@std@@V?$weak_ptr@VRawImageData@@@2@@std@@PAX@std@@SAXAAV?$allocator@U?$_Tree_node@U?$pair@$$CBV?$basic_string@DU?$char_traits@D@std@@V?$allocator@D@2@@std@@V?$weak_ptr@VRawImageData@@@2@@std@@PAX@std@@@1@PAU01@@Z 00400000     DraggingDemo.obj
 0002:fffbe000       __ehfuncinfo$??0?$basic_string@DU?$char_traits@D@std@@V?$allocator@D@2@@std@@QAE@$$QAV01@@Z 00400000     DraggingDemo.obj
 0002:fffbe000       __ehfuncinfo$??1?$_Alloc_construct_ptr@V?$allocator@U?$_Tree_node@U?$pair@$$CBV?$basic_string@DU?$char_traits@D@std@@V?$allocator@D@2@@std@@V?$shared_ptr@VRawImageData@@@2@@std@@PAX@std@@@std@@@std@@QAE@XZ 00400000     DraggingDemo.obj
 0002:fffbe000       __ehfuncinfo$??1?$_Alloc_construct_ptr@V?$allocator@U?$_Tree_node@U?$pair@$$CBV?$basic_string@DU?$char_traits@D@std@@V?$allocator@D@2@@std@@V?$weak_ptr@VRawImageData@@@2@@std@@PAX@std@@@std@@@std@@QAE@XZ 00400000     DraggingDemo.obj
 0002:fffbe000       __ehfuncinfo$??1?$_Tree_temp_node@V?$allocator@U?$_Tree_node@U?$pair@$$CBV?$basic_string@DU?$char_traits@D@std@@V?$allocator@D@2@@std@@V?$shared_ptr@VRawImageData@@@2@@std@@PAX@std@@@std@@@std@@QAE@XZ 00400000     DraggingDemo.obj
 0002:fffbe000       __ehfuncinfo$??1?$_Tree_temp_node@V?$allocator@U?$_Tree_node@U?$pair@$$CBV?$basic_string@DU?$char_traits@D@std@@V?$allocator@D@2@@std@@V?$weak_ptr@VRawImageData@@@2@@std@@PAX@std@@@std@@@std@@QAE@XZ 00400000     DraggingDemo.obj
 0002:fffbe000       __ehfuncinfo$??1RawImageData@@QAE@XZ 00400000     DraggingDemo.obj
 0002:fffbe000       __ehfuncinfo$??1_Sentry_base@?$basic_ostream@DU?$char_traits@D@std@@@std@@QAE@XZ 00400000     DraggingDemo.obj
 0002:fffbe000       __ehfuncinfo$??1sentry@?$basic_ostream@DU?$char_traits@D@std@@@std@@QAE@XZ 00400000     DraggingDemo.obj
 0002:fffbe000       __ehfuncinfo$?_Take_contents@?$basic_string@DU?$char_traits@D@std@@V?$allocator@D@2@@std@@AAEXAAV12@@Z 00400000     DraggingDemo.obj
 0002:fffbe000       __ehfuncinfo$?_Tidy_deallocate@?$basic_string@DU?$char_traits@D@std@@V?$allocator@D@2@@std@@AAEXXZ 00400000     DraggingDemo.obj
 0002:fffbe000       __ehfuncinfo$?getImagePtrbyURL@ImageManager@@QAE?AV?$shared_ptr@VRawImageData@@@std@@V?$basic_string@DU?$char_traits@D@std@@V?$allocator@D@2@@3@_N1@Z 00400000     DraggingDemo.obj
 0001:fffff000       __ehhandler$??$_Deallocate@$07$0A@@std@@YAXPAXI@Z 00400000 f   DraggingDemo.obj
 0001:fffff000       __ehhandler$??$_Deallocate_plain@V?$allocator@U_Container_proxy@std@@@std@@@std@@YAXAAV?$allocator@U_Container_proxy@std@@@0@QAU_Container_proxy@0@@Z 00400000 f   DraggingDemo.obj
 0001:fffff000       __ehhandler$??$_Freenode0@V?$allocator@U?$_Tree_node@U?$pair@$$CBV?$basic_string@DU?$char_traits@D@std@@V?$allocator@D@2@@std@@V?$weak_ptr@VRawImageData@@@2@@std@@PAX@std@@@std@@@?$_Tree_node@U?$pair@$$CBV?$basic_string@DU?$char_traits@D@std@@V?$allocator@D@2@@std@@V?$weak_ptr@VRawImageData@@@2@@std@@PAX@std@@SAXAAV?$allocator@U?$_Tree_node@U?$pair@$$CBV?$basic_string@DU?$char_traits@D@std@@V?$allocator@D@2@@std@@V?$weak_ptr@VRawImageData@@@2@@std@@PAX@std@@@1@PAU01@@Z 00400000 f   DraggingDemo.obj
 0001:fffff000       __ehhandler$??$_Freenode@V?$allocator@U?$_Tree_node@U?$pair@$$CBV?$basic_string@DU?$char_traits@D@std@@V?$allocator@D@2@@std@@V?$weak_ptr@VRawImageData@@@2@@std@@PAX@std@@@std@@@?$_Tree_node@U?$pair@$$CBV?$basic_string@DU?$char_traits@D@std@@V?$allocator@D@2@@std@@V?$weak_ptr@VRawImageData@@@2@@std@@PAX@std@@SAXAAV?$allocator@U?$_Tree_node@U?$pair@$$CBV?$basic_string@DU?$char_traits@D@std@@V?$allocator@D@2@@std@@V?$weak_ptr@VRawImageData@@@2@@std@@PAX@std@@@1@PAU01@@Z 00400000 f   DraggingDemo.obj
 0001:fffff000       __ehhandler$??0?$basic_string@DU?$char_traits@D@std@@V?$allocator@D@2@@std@@QAE@$$QAV01@@Z 00400000 f   DraggingDemo.obj
 0001:fffff000       __ehhandler$??1?$_Alloc_construct_ptr@V?$allocator@U?$_Tree_node@U?$pair@$$CBV?$basic_string@DU?$char_traits@D@std@@V?$allocator@D@2@@std@@V?$shared_ptr@VRawImageData@@@2@@std@@PAX@std@@@std@@@std@@QAE@XZ 00400000 f   DraggingDemo.obj
 0001:fffff000       __ehhandler$??1?$_Alloc_construct_ptr@V?$allocator@U?$_Tree_node@U?$pair@$$CBV?$basic_string@DU?$char_traits@D@std@@V?$allocator@D@2@@std@@V?$weak_ptr@VRawImageData@@@2@@std@@PAX@std@@@std@@@std@@QAE@XZ 00400000 f   DraggingDemo.obj
 0001:fffff000       __ehhandler$??1?$_Tree_temp_node@V?$allocator@U?$_Tree_node@U?$pair@$$CBV?$basic_string@DU?$char_traits@D@std@@V?$allocator@D@2@@std@@V?$shared_ptr@VRawImageData@@@2@@std@@PAX@std@@@std@@@std@@QAE@XZ 00400000 f   DraggingDemo.obj
 0001:fffff000       __ehhandler$??1?$_Tree_temp_node@V?$allocator@U?$_Tree_node@U?$pair@$$CBV?$basic_string@DU?$char_traits@D@std@@V?$allocator@D@2@@std@@V?$weak_ptr@VRawImageData@@@2@@std@@PAX@std@@@std@@@std@@QAE@XZ 00400000 f   DraggingDemo.obj
 0001:fffff000       __ehhandler$??1RawImageData@@QAE@XZ 00400000 f   DraggingDemo.obj
 0001:fffff000       __ehhandler$??1_Sentry_base@?$basic_ostream@DU?$char_traits@D@std@@@std@@QAE@XZ 00400000 f   DraggingDemo.obj
 0001:fffff000       __ehhandler$??1sentry@?$basic_ostream@DU?$char_traits@D@std@@@std@@QAE@XZ 00400000 f   DraggingDemo.obj
 0001:fffff000       __ehhandler$?_Take_contents@?$basic_string@DU?$char_traits@D@std@@V?$allocator@D@2@@std@@AAEXAAV12@@Z 00400000 f   DraggingDemo.obj
 0001:fffff000       __ehhandler$?_Tidy_deallocate@?$basic_string@DU?$char_traits@D@std@@V?$allocator@D@2@@std@@AAEXXZ 00400000 f   DraggingDemo.obj
 0001:fffff000       __unwindfunclet$??$?0U?$pair@V?$basic_string@DU?$char_traits@D@std@@V?$allocator@D@2@@std@@V?$shared_ptr@VRawImageData@@@2@@std@@@?$_Tree_temp_node@V?$allocator@U?$_Tree_node@U?$pair@$$CBV?$basic_string@DU?$char_traits@D@std@@V?$allocator@D@2@@std@@V?$shared_ptr@VRawImageData@@@2@@std@@PAX@std@@@std@@@std@@QAE@AAV?$allocator@U?$_Tree_node@U?$pair@$$CBV?$basic_string@DU?$char_traits@D@std@@V?$allocator@D@2@@std@@V?$shared_ptr@VRawImageData@@@2@@std@@PAX@std@@@1@PAU?$_Tree_node@U?$pair@$$CBV?$basic_string@DU?$char_traits@D@std@@V?$allocator@D@2@@std@@V?$shared_ptr@VRawImageData@@@2@@std@@PAX@1@$$QAU?$pair@V?$basic_string@DU?$char_traits@D@std@@V?$allocator@D@2@@std@@V?$shared_ptr@VRawImageData@@@2@@1@@Z$0 00400000 f   DraggingDemo.obj
 0001:fffff000       __unwindfunclet$??$?0U?$pair@V?$basic_string@DU?$char_traits@D@std@@V?$allocator@D@2@@std@@V?$weak_ptr@VRawImageData@@@2@@std@@@?$_Tree_temp_node@V?$allocator@U?$_Tree_node@U?$pair@$$CBV?$basic_string@DU?$char_traits@D@std@@V?$allocator@D@2@@std@@V?$weak_ptr@VRawImageData@@@2@@std@@PAX@std@@@std@@@std@@QAE@AAV?$allocator@U?$_Tree_node@U?$pair@$$CBV?$basic_string@DU?$char_traits@D@std@@V?$allocator@D@2@@std@@V?$weak_ptr@VRawImageData@@@2@@std@@PAX@std@@@1@PAU?$_Tree_node@U?$pair@$$CBV?$basic_string@DU?$char_traits@D@std@@V?$allocator@D@2@@std@@V?$weak_ptr@VRawImageData@@@2@@std@@PAX@1@$$QAU?$pair@V?$basic_string@DU?$char_traits@D@std@@V?$allocator@D@2@@std@@V?$weak_ptr@VRawImageData@@@2@@1@@Z$0 00400000 f   DraggingDemo.obj
 0001:fffff000       __unwindfunclet$??$?0VRawImageData@@$0A@@?$shared_ptr@VRawImageData@@@std@@QAE@PAVRawImageData@@@Z$0 00400000 f   DraggingDemo.obj
 0001:fffff000       __unwindfunclet$??$?6U?$char_traits@D@std@@@std@@YAAAV?$basic_ostream@DU?$char_traits@D@std@@@0@AAV10@PBD@Z$2 00400000 f   DraggingDemo.obj
 0001:fffff000       __unwindfunclet$??$_Construct@$00PBD@?$basic_string@DU?$char_traits@D@std@@V?$allocator@D@2@@std@@AAEXQBDI@Z$0 00400000 f   DraggingDemo.obj
 0001:fffff000       __unwindfunclet$??$_Construct@$01PBD@?$basic_string@DU?$char_traits@D@std@@V?$allocator@D@2@@std@@AAEXQBDI@Z$0 00400000 f   DraggingDemo.obj
 0001:fffff000       __unwindfunclet$??$_Insert_string@DU?$char_traits@D@std@@I@std@@YAAAV?$basic_ostream@DU?$char_traits@D@std@@@0@AAV10@QBDI@Z$2 00400000 f   DraggingDemo.obj
 0001:fffff000       __unwindfunclet$??0?$_Tree_temp_node_alloc@V?$allocator@U?$_Tree_node@U?$pair@$$CBV?$basic_string@DU?$char_traits@D@std@@V?$allocator@D@2@@std@@V?$shared_ptr@VRawImageData@@@2@@std@@PAX@std@@@std@@@std@@QAE@AAV?$allocator@U?$_Tree_node@U?$pair@$$CBV?$basic_string@DU?$char_traits@D@std@@V?$allocator@D@2@@std@@V?$shared_ptr@VRawImageData@@@2@@std@@PAX@std@@@1@@Z$0 00400000 f   DraggingDemo.obj
 0001:fffff000       __unwindfunclet$??0?$_Tree_temp_node_alloc@V?$allocator@U?$_Tree_node@U?$pair@$$CBV?$basic_string@DU?$char_traits@D@std@@V?$allocator@D@2@@std@@V?$weak_ptr@VRawImageData@@@2@@std@@PAX@std@@@std@@@std@@QAE@AAV?$allocator@U?$_Tree_node@U?$pair@$$CBV?$basic_string@DU?$char_traits@D@std@@V?$allocator@D@2@@std@@V?$weak_ptr@VRawImageData@@@2@@std@@PAX@std@@@1@@Z$0 00400000 f   DraggingDemo.obj
 0001:fffff000       __unwindfunclet$??0?$basic_string@DU?$char_traits@D@std@@V?$allocator@D@2@@std@@QAE@ABV01@@Z$0 00400000 f   DraggingDemo.obj
 0001:fffff000       __unwindfunclet$??0?$basic_string@DU?$char_traits@D@std@@V?$allocator@D@2@@std@@QAE@QBD@Z$0 00400000 f   DraggingDemo.obj
 0001:fffff000       __unwindfunclet$??0ImageManager@@QAE@XZ$0 00400000 f   DraggingDemo.obj
 0001:fffff000       __unwindfunclet$??0RawImageData@@QAE@V?$basic_string@DU?$char_traits@D@std@@V?$allocator@D@2@@std@@@Z$0 00400000 f   DraggingDemo.obj
 0001:fffff000       __unwindfunclet$??0sentry@?$basic_ostream@DU?$char_traits@D@std@@@std@@QAE@AAV12@@Z$0 00400000 f   DraggingDemo.obj
 0001:fffff000       __unwindfunclet$?_Alloc_sentinel_and_proxy@?$_Tree@V?$_Tmap_traits@V?$basic_string@DU?$char_traits@D@std@@V?$allocator@D@2@@std@@V?$shared_ptr@VRawImageData@@@2@U?$less@V?$basic_string@DU?$char_traits@D@std@@V?$allocator@D@2@@std@@@2@V?$allocator@U?$pair@$$CBV?$basic_string@DU?$char_traits@D@std@@V?$allocator@D@2@@std@@V?$shared_ptr@VRawImageData@@@2@@std@@@2@$0A@@std@@@std@@IAEXXZ$0 00400000 f   DraggingDemo.obj
 0001:fffff000       __unwindfunclet$?_Alloc_sentinel_and_proxy@?$_Tree@V?$_Tmap_traits@V?$basic_string@DU?$char_traits@D@std@@V?$allocator@D@2@@std@@V?$weak_ptr@VRawImageData@@@2@U?$less@V?$basic_string@DU?$char_traits@D@std@@V?$allocator@D@2@@std@@@2@V?$allocator@U?$pair@$$CBV?$basic_string@DU?$char_traits@D@std@@V?$allocator@D@2@@std@@V?$weak_ptr@VRawImageData@@@2@@std@@@2@$0A@@std@@@std@@IAEXXZ$0 00400000 f   DraggingDemo.obj
 0001:fffff000       __unwindfunclet$?get@ImageManager@@SAPAV1@XZ$0 00400000 f   DraggingDemo.obj
 0001:fffff000       __unwindfunclet$?getImagePtrbyURL@ImageManager@@QAE?AV?$shared_ptr@VRawImageData@@@std@@V?$basic_string@DU?$char_traits@D@std@@V?$allocator@D@2@@3@_N1@Z$0 00400000 f   DraggingDemo.obj
 0001:fffff000       __unwindfunclet$?getImagebyURL@ImageManager@@QAE?AVSimpleImage@@V?$basic_string@DU?$char_traits@D@std@@V?$allocator@D@2@@std@@_N1@Z$0 00400000 f   DraggingDemo.obj
 0001:fffff000       __unwindfunclet$?loadAsNew@ImageManager@@QAE?AV?$shared_ptr@VRawImageData@@@std@@V?$basic_string@DU?$char_traits@D@std@@V?$allocator@D@2@@3@@Z$0 00400000 f   DraggingDemo.obj
 0001:fffff000       __unwindfunclet$?loadImage@RawImageData@@QAE_NV?$basic_string@DU?$char_traits@D@std@@V?$allocator@D@2@@std@@HHHHH_N@Z$0 00400000 f   DraggingDemo.obj
 0002:fffbe000       __unwindtable$??$?0U?$pair@V?$basic_string@DU?$char_traits@D@std@@V?$allocator@D@2@@std@@V?$shared_ptr@VRawImageData@@@2@@std@@@?$_Tree_temp_node@V?$allocator@U?$_Tree_node@U?$pair@$$CBV?$basic_string@DU?$char_traits@D@std@@V?$allocator@D@2@@std@@V?$shared_ptr@VRawImageData@@@2@@std@@PAX@std@@@std@@@std@@QAE@AAV?$allocator@U?$_Tree_node@U?$pair@$$CBV?$basic_string@DU?$char_traits@D@std@@V?$allocator@D@2@@std@@V?$shared_ptr@VRawImageData@@@2@@std@@PAX@std@@@1@PAU?$_Tree_node@U?$pair@$$CBV?$basic_string@DU?$char_traits@D@std@@V?$allocator@D@2@@std@@V?$shared_ptr@VRawImageData@@@2@@std@@PAX@1@$$QAU?$pair@V?$basic_string@DU?$char_traits@D@std@@V?$allocator@D@2@@std@@V?$shared_ptr@VRawImageData@@@2@@1@@Z 00400000     DraggingDemo.obj
 0002:fffbe000       __unwindtable$??$?0U?$pair@V?$basic_string@DU?$char_traits@D@std@@V?$allocator@D@2@@std@@V?$weak_ptr@VRawImageData@@@2@@std@@@?$_Tree_temp_node@V?$allocator@U?$_Tree_node@U?$pair@$$CBV?$basic_string@DU?$char_traits@D@std@@V?$allocator@D@2@@std@@V?$weak_ptr@VRawImageData@@@2@@std@@PAX@std@@@std@@@std@@QAE@AAV?$allocator@U?$_Tree_node@U?$pair@$$CBV?$basic_string@DU?$char_traits@D@std@@V?$allocator@D@2@@std@@V?$weak_ptr@VRawImageData@@@2@@std@@PAX@std@@@1@PAU?$_Tree_node@U?$pair@$$CBV?$basic_string@DU?$char_traits@D@std@@V?$allocator@D@2@@std@@V?$weak_ptr@VRawImageData@@@2@@std@@PAX@1@$$QAU?$pair@V?$basic_string@DU?$char_traits@D@std@@V?$allocator@D@2@@std@@V?$weak_ptr@VRawImageData@@@2@@1@@Z 00400000     DraggingDemo.obj
 0002:fffbe000       __unwindtable$??$?0VRawImageData@@$0A@@?$shared_ptr@VRawImageData@@@std@@QAE@PAVRawImageData@@@Z 00400000     DraggingDemo.obj
 0002:fffbe000       __unwindtable$??$_Construct@$00PBD@?$basic_string@DU?$char_traits@D@std@@V?$allocator@D@2@@std@@AAEXQBDI@Z 00400000     DraggingDemo.obj
 0002:fffbe000       __unwindtable$??$_Construct@$01PBD@?$basic_string@DU?$char_traits@D@std@@V?$allocator@D@2@@std@@AAEXQBDI@Z 00400000     DraggingDemo.obj
 0002:fffbe000       __unwindtable$??0?$_Tree_temp_node_alloc@V?$allocator@U?$_Tree_node@U?$pair@$$CBV?$basic_string@DU?$char_traits@D@std@@V?$allocator@D@2@@std@@V?$shared_ptr@VRawImageData@@@2@@std@@PAX@std@@@std@@@std@@QAE@AAV?$allocator@U?$_Tree_node@U?$pair@$$CBV?$basic_string@DU?$char_traits@D@std@@V?$allocator@D@2@@std@@V?$shared_ptr@VRawImageData@@@2@@std@@PAX@std@@@1@@Z 00400000     DraggingDemo.obj
 0002:fffbe000       __unwindtable$??0?$_Tree_temp_node_alloc@V?$allocator@U?$_Tree_node@U?$pair@$$CBV?$basic_string@DU?$char_traits@D@std@@V?$allocator@D@2@@std@@V?$weak_ptr@VRawImageData@@@2@@std@@PAX@std@@@std@@@std@@QAE@AAV?$allocator@U?$_Tree_node@U?$pair@$$CBV?$basic_string@DU?$char_traits@D@std@@V?$allocator@D@2@@std@@V?$weak_ptr@VRawImageData@@@2@@std@@PAX@std@@@1@@Z 00400000     DraggingDemo.obj
 0002:fffbe000       __unwindtable$??0?$basic_string@DU?$char_traits@D@std@@V?$allocator@D@2@@std@@QAE@ABV01@@Z 00400000     DraggingDemo.obj
 0002:fffbe000       __unwindtable$??0?$basic_string@DU?$char_traits@D@std@@V?$allocator@D@2@@std@@QAE@QBD@Z 00400000     DraggingDemo.obj
 0002:fffbe000       __unwindtable$??0ImageManager@@QAE@XZ 00400000     DraggingDemo.obj
 0002:fffbe000       __unwindtable$??0RawImageData@@QAE@V?$basic_string@DU?$char_traits@D@std@@V?$allocator@D@2@@std@@@Z 00400000     DraggingDemo.obj
 0002:fffbe000       __unwindtable$??0sentry@?$basic_ostream@DU?$char_traits@D@std@@@std@@QAE@AAV12@@Z 00400000     DraggingDemo.obj
 0002:fffbe000       __unwindtable$?_Alloc_sentinel_and_proxy@?$_Tree@V?$_Tmap_traits@V?$basic_string@DU?$char_traits@D@std@@V?$allocator@D@2@@std@@V?$shared_ptr@VRawImageData@@@2@U?$less@V?$basic_string@DU?$char_traits@D@std@@V?$allocator@D@2@@std@@@2@V?$allocator@U?$pair@$$CBV?$basic_string@DU?$char_traits@D@std@@V?$allocator@D@2@@std@@V?$shared_ptr@VRawImageData@@@2@@std@@@2@$0A@@std@@@std@@IAEXXZ 00400000     DraggingDemo.obj
 0002:fffbe000       __unwindtable$?_Alloc_sentinel_and_proxy@?$_Tree@V?$_Tmap_traits@V?$basic_string@DU?$char_traits@D@std@@V?$allocator@D@2@@std@@V?$weak_ptr@VRawImageData@@@2@U?$less@V?$basic_string@DU?$char_traits@D@std@@V?$allocator@D@2@@std@@@2@V?$allocator@U?$pair@$$CBV?$basic_string@DU?$char_traits@D@std@@V?$allocator@D@2@@std@@V?$weak_ptr@VRawImageData@@@2@@std@@@2@$0A@@std@@@std@@IAEXXZ 00400000     DraggingDemo.obj
 0002:fffbe000       __unwindtable$?get@ImageManager@@SAPAV1@XZ 00400000     DraggingDemo.obj
 0002:fffbe000       __unwindtable$?getImagebyURL@ImageManager@@QAE?AVSimpleImage@@V?$basic_string@DU?$char_traits@D@std@@V?$allocator@D@2@@std@@_N1@Z 00400000     DraggingDemo.obj
 0002:fffbe000       __unwindtable$?loadAsNew@ImageManager@@QAE?AV?$shared_ptr@VRawImageData@@@std@@V?$basic_string@DU?$char_traits@D@std@@V?$allocator@D@2@@3@@Z 00400000     DraggingDemo.obj
 0002:fffbe000       __unwindtable$?loadImage@RawImageData@@QAE_NV?$basic_string@DU?$char_traits@D@std@@V?$allocator@D@2@@std@@HHHHH_N@Z 00400000     DraggingDemo.obj
 0000:00000000       _volmd                     00400000     DraggingDemo.obj
 0000:00000000       _volmd                     00400000     DraggingDemo.obj
 0000:00000000       _volmd                     00400000     DraggingDemo.obj
 0000:00000000       _volmd                     00400000     DraggingDemo.obj
 0000:00000000       _volmd                     00400000     DraggingDemo.obj
 0000:00000000       _volmd                     00400000     DraggingDemo.obj
 0000:00000000       _volmd                     00400000     DraggingDemo.obj
 0000:00000000       _volmd                     00400000     DraggingDemo.obj
 0000:00000000       _volmd                     00400000     DraggingDemo.obj
 0000:00000000       _volmd                     00400000     DraggingDemo.obj
 0000:00000000       _volmd                     00400000     DraggingDemo.obj
 0000:00000000       _volmd                     00400000     DraggingDemo.obj
 0000:00000000       _volmd                     00400000     DraggingDemo.obj
 0000:00000000       _volmd                     00400000     DraggingDemo.obj
 0000:00000000       _volmd                     00400000     DraggingDemo.obj
 0000:00000000       _volmd                     00400000     DraggingDemo.obj
 0000:00000000       _volmd                     00400000     DraggingDemo.obj
 0000:00000000       _volmd                     00400000     DraggingDemo.obj
 0000:00000000       _volmd                     00400000     DraggingDemo.obj
 0000:00000000       _volmd                     00400000     DraggingDemo.obj
 0000:00000000       _volmd                     00400000     DraggingDemo.obj
 0000:00000000       _volmd                     00400000     DraggingDemo.obj
 0000:00000000       _volmd                     00400000     DraggingDemo.obj
 0000:00000000       _volmd                     00400000     DraggingDemo.obj
 0000:00000000       _volmd                     00400000     DraggingDemo.obj
 0000:00000000       _volmd                     00400000     DraggingDemo.obj
 0000:00000000       _volmd                     00400000     DraggingDemo.obj
 0000:00000000       _volmd                     00400000     DraggingDemo.obj
 0000:00000000       _volmd                     00400000     DraggingDemo.obj
 0000:00000000       _volmd                     00400000     DraggingDemo.obj
 0000:00000000       _volmd                     00400000     DraggingDemo.obj
 0000:00000000       _volmd                     00400000     DraggingDemo.obj
 0000:00000000       _volmd                     00400000     DraggingDemo.obj
 0000:00000000       _volmd                     00400000     DraggingDemo.obj
 0000:00000000       _volmd                     00400000     DraggingDemo.obj
 0000:00000000       _volmd                     00400000     DraggingDemo.obj
 0000:00000000       _volmd                     00400000     DraggingDemo.obj
 0000:00000000       _volmd                     00400000     DraggingDemo.obj
 0000:00000000       _volmd                     00400000     DraggingDemo.obj
 0000:00000000       _volmd                     00400000     DraggingDemo.obj
 0000:00000000       _volmd                     00400000     DraggingDemo.obj
 0000:00000000       _volmd                     00400000     DraggingDemo.obj
 0000:00000000       _volmd                     00400000     DraggingDemo.obj
 0000:00000000       _volmd                     00400000     DraggingDemo.obj
 0000:00000000       _volmd                     00400000     DraggingDemo.obj
 0000:00000000       _volmd                     00400000     DraggingDemo.obj
 0002:fffbe000       __catchsym$??$?6U?$char_traits@D@std@@@std@@YAAAV?$basic_ostream@DU?$char_traits@D@std@@@0@AAV10@PBD@Z$3 00400000     DrawingSurface.obj
 0002:fffbe000       __ehfuncinfo$??1_Sentry_base@?$basic_ostream@DU?$char_traits@D@std@@@std@@QAE@XZ 00400000     DrawingSurface.obj
 0002:fffbe000       __ehfuncinfo$??1sentry@?$basic_ostream@DU?$char_traits@D@std@@@std@@QAE@XZ 00400000     DrawingSurface.obj
 0001:fffff000       __ehhandler$??1_Sentry_base@?$basic_ostream@DU?$char_traits@D@std@@@std@@QAE@XZ 00400000 f   DrawingSurface.obj
 0001:fffff000       __ehhandler$??1sentry@?$basic_ostream@DU?$char_traits@D@std@@@std@@QAE@XZ 00400000 f   DrawingSurface.obj
 0001:fffff000       __unwindfunclet$??$?6U?$char_traits@D@std@@@std@@YAAAV?$basic_ostream@DU?$char_traits@D@std@@@0@AAV10@PBD@Z$2 00400000 f   DrawingSurface.obj
 0001:fffff000       __unwindfunclet$??0sentry@?$basic_ostream@DU?$char_traits@D@std@@@std@@QAE@AAV12@@Z$0 00400000 f   DrawingSurface.obj
 0002:fffbe000       __unwindtable$??0sentry@?$basic_ostream@DU?$char_traits@D@std@@@std@@QAE@AAV12@@Z 00400000     DrawingSurface.obj
 0000:00000000       _volmd                     00400000     DrawingSurface.obj
 0000:00000000       _volmd                     00400000     DrawingSurface.obj
 0000:00000000       _volmd                     00400000     DrawingSurface.obj
 0000:00000000       _volmd                     00400000     DrawingSurface.obj
 0000:00000000       _volmd                     00400000     DrawingSurface.obj
 0002:fffbe000       __catchsym$??$?6U?$char_traits@D@std@@@std@@YAAAV?$basic_ostream@DU?$char_traits@D@std@@@0@AAV10@PBD@Z$3 00400000     Enemy.obj
 0002:fffbe000       __catchsym$??$_Insert_string@DU?$char_traits@D@std@@I@std@@YAAAV?$basic_ostream@DU?$char_traits@D@std@@@0@AAV10@QBDI@Z$3 00400000     Enemy.obj
 0002:fffbe000       __ehfuncinfo$??$_Deallocate@$07$0A@@std@@YAXPAXI@Z 00400000     Enemy.obj
 0002:fffbe000       __ehfuncinfo$??$_Deallocate_plain@V?$allocator@U_Container_proxy@std@@@std@@@std@@YAXAAV?$allocator@U_Container_proxy@std@@@0@QAU_Container_proxy@0@@Z 00400000     Enemy.obj
 0002:fffbe000       __ehfuncinfo$??$_Freenode0@V?$allocator@U?$_Tree_node@U?$pair@$$CBV?$basic_string@DU?$char_traits@D@std@@V?$allocator@D@2@@std@@V?$weak_ptr@VRawImageData@@@2@@std@@PAX@std@@@std@@@?$_Tree_node@U?$pair@$$CBV?$basic_string@DU?$char_traits@D@std@@V?$allocator@D@2@@std@@V?$weak_ptr@VRawImageData@@@2@@std@@PAX@std@@SAXAAV?$allocator@U?$_Tree_node@U?$pair@$$CBV?$basic_string@DU?$char_traits@D@std@@V?$allocator@D@2@@std@@V?$weak_ptr@VRawImageData@@@2@@std@@PAX@std@@@1@PAU01@@Z 00400000     Enemy.obj
 0002:fffbe000       __ehfuncinfo$??$_Freenode@V?$allocator@U?$_Tree_node@U?$pair@$$CBV?$basic_string@DU?$char_traits@D@std@@V?$allocator@D@2@@std@@V?$weak_ptr@VRawImageData@@@2@@std@@PAX@std@@@std@@@?$_Tree_node@U?$pair@$$CBV?$basic_string@DU?$char_traits@D@std@@V?$allocator@D@2@@std@@V?$weak_ptr@VRawImageData@@@2@@std@@PAX@std@@SAXAAV?$allocator@U?$_Tree_node@U?$pair@$$CBV?$basic_string@DU?$char_traits@D@std@@V?$allocator@D@2@@std@@V?$weak_ptr@VRawImageData@@@2@@std@@PAX@std@@@1@PAU01@@Z 00400000     Enemy.obj
 0002:fffbe000       __ehfuncinfo$??0?$basic_string@DU?$char_traits@D@std@@V?$allocator@D@2@@std@@QAE@$$QAV01@@Z 00400000     Enemy.obj
 0002:fffbe000       __ehfuncinfo$??1?$_Alloc_construct_ptr@V?$allocator@U?$_Tree_node@U?$pair@$$CBV?$basic_string@DU?$char_traits@D@std@@V?$allocator@D@2@@std@@V?$shared_ptr@VRawImageData@@@2@@std@@PAX@std@@@std@@@std@@QAE@XZ 00400000     Enemy.obj
 0002:fffbe000       __ehfuncinfo$??1?$_Alloc_construct_ptr@V?$allocator@U?$_Tree_node@U?$pair@$$CBV?$basic_string@DU?$char_traits@D@std@@V?$allocator@D@2@@std@@V?$weak_ptr@VRawImageData@@@2@@std@@PAX@std@@@std@@@std@@QAE@XZ 00400000     Enemy.obj
 0002:fffbe000       __ehfuncinfo$??1?$_Tree_temp_node@V?$allocator@U?$_Tree_node@U?$pair@$$CBV?$basic_string@DU?$char_traits@D@std@@V?$allocator@D@2@@std@@V?$shared_ptr@VRawImageData@@@2@@std@@PAX@std@@@std@@@std@@QAE@XZ 00400000     Enemy.obj
 0002:fffbe000       __ehfuncinfo$??1?$_Tree_temp_node@V?$allocator@U?$_Tree_node@U?$pair@$$CBV?$basic_string@DU?$char_traits@D@std@@V?$allocator@D@2@@std@@V?$weak_ptr@VRawImageData@@@2@@std@@PAX@std@@@std@@@std@@QAE@XZ 00400000     Enemy.obj
 0002:fffbe000       __ehfuncinfo$??1RawImageData@@QAE@XZ 00400000     Enemy.obj
 0002:fffbe000       __ehfuncinfo$??1_Sentry_base@?$basic_ostream@DU?$char_traits@D@std@@@std@@QAE@XZ 00400000     Enemy.obj
 0002:fffbe000       __ehfuncinfo$??1sentry@?$basic_ostream@DU?$char_traits@D@std@@@std@@QAE@XZ 00400000     Enemy.obj
 0002:fffbe000       __ehfuncinfo$?_Take_contents@?$basic_string@DU?$char_traits@D@std@@V?$allocator@D@2@@std@@AAEXAAV12@@Z 00400000     Enemy.obj
 0002:fffbe000       __ehfuncinfo$?_Tidy_deallocate@?$basic_string@DU?$char_traits@D@std@@V?$allocator@D@2@@std@@AAEXXZ 00400000     Enemy.obj
 0002:fffbe000       __ehfuncinfo$?getImagePtrbyURL@ImageManager@@QAE?AV?$shared_ptr@VRawImageData@@@std@@V?$basic_string@DU?$char_traits@D@std@@V?$allocator@D@2@@3@_N1@Z 00400000     Enemy.obj
 0001:fffff000       __ehhandler$??$_Deallocate@$07$0A@@std@@YAXPAXI@Z 00400000 f   Enemy.obj
 0001:fffff000       __ehhandler$??$_Deallocate_plain@V?$allocator@U_Container_proxy@std@@@std@@@std@@YAXAAV?$allocator@U_Container_proxy@std@@@0@QAU_Container_proxy@0@@Z 00400000 f   Enemy.obj
 0001:fffff000       __ehhandler$??$_Freenode0@V?$allocator@U?$_Tree_node@U?$pair@$$CBV?$basic_string@DU?$char_traits@D@std@@V?$allocator@D@2@@std@@V?$weak_ptr@VRawImageData@@@2@@std@@PAX@std@@@std@@@?$_Tree_node@U?$pair@$$CBV?$basic_string@DU?$char_traits@D@std@@V?$allocator@D@2@@std@@V?$weak_ptr@VRawImageData@@@2@@std@@PAX@std@@SAXAAV?$allocator@U?$_Tree_node@U?$pair@$$CBV?$basic_string@DU?$char_traits@D@std@@V?$allocator@D@2@@std@@V?$weak_ptr@VRawImageData@@@2@@std@@PAX@std@@@1@PAU01@@Z 00400000 f   Enemy.obj
 0001:fffff000       __ehhandler$??$_Freenode@V?$allocator@U?$_Tree_node@U?$pair@$$CBV?$basic_string@DU?$char_traits@D@std@@V?$allocator@D@2@@std@@V?$weak_ptr@VRawImageData@@@2@@std@@PAX@std@@@std@@@?$_Tree_node@U?$pair@$$CBV?$basic_string@DU?$char_traits@D@std@@V?$allocator@D@2@@std@@V?$weak_ptr@VRawImageData@@@2@@std@@PAX@std@@SAXAAV?$allocator@U?$_Tree_node@U?$pair@$$CBV?$basic_string@DU?$char_traits@D@std@@V?$allocator@D@2@@std@@V?$weak_ptr@VRawImageData@@@2@@std@@PAX@std@@@1@PAU01@@Z 00400000 f   Enemy.obj
 0001:fffff000       __ehhandler$??0?$basic_string@DU?$char_traits@D@std@@V?$allocator@D@2@@std@@QAE@$$QAV01@@Z 00400000 f   Enemy.obj
 0001:fffff000       __ehhandler$??1?$_Alloc_construct_ptr@V?$allocator@U?$_Tree_node@U?$pair@$$CBV?$basic_string@DU?$char_traits@D@std@@V?$allocator@D@2@@std@@V?$shared_ptr@VRawImageData@@@2@@std@@PAX@std@@@std@@@std@@QAE@XZ 00400000 f   Enemy.obj
 0001:fffff000       __ehhandler$??1?$_Alloc_construct_ptr@V?$allocator@U?$_Tree_node@U?$pair@$$CBV?$basic_string@DU?$char_traits@D@std@@V?$allocator@D@2@@std@@V?$weak_ptr@VRawImageData@@@2@@std@@PAX@std@@@std@@@std@@QAE@XZ 00400000 f   Enemy.obj
 0001:fffff000       __ehhandler$??1?$_Tree_temp_node@V?$allocator@U?$_Tree_node@U?$pair@$$CBV?$basic_string@DU?$char_traits@D@std@@V?$allocator@D@2@@std@@V?$shared_ptr@VRawImageData@@@2@@std@@PAX@std@@@std@@@std@@QAE@XZ 00400000 f   Enemy.obj
 0001:fffff000       __ehhandler$??1?$_Tree_temp_node@V?$allocator@U?$_Tree_node@U?$pair@$$CBV?$basic_string@DU?$char_traits@D@std@@V?$allocator@D@2@@std@@V?$weak_ptr@VRawImageData@@@2@@std@@PAX@std@@@std@@@std@@QAE@XZ 00400000 f   Enemy.obj
 0001:fffff000       __ehhandler$??1RawImageData@@QAE@XZ 00400000 f   Enemy.obj
 0001:fffff000       __ehhandler$??1_Sentry_base@?$basic_ostream@DU?$char_traits@D@std@@@std@@QAE@XZ 00400000 f   Enemy.obj
 0001:fffff000       __ehhandler$??1sentry@?$basic_ostream@DU?$char_traits@D@std@@@std@@QAE@XZ 00400000 f   Enemy.obj
 0001:fffff000       __ehhandler$?_Take_contents@?$basic_string@DU?$char_traits@D@std@@V?$allocator@D@2@@std@@AAEXAAV12@@Z 00400000 f   Enemy.obj
 0001:fffff000       __ehhandler$?_Tidy_deallocate@?$basic_string@DU?$char_traits@D@std@@V?$allocator@D@2@@std@@AAEXXZ 00400000 f   Enemy.obj
 0001:fffff000       __unwindfunclet$??$?0U?$pair@V?$basic_string@DU?$char_traits@D@std@@V?$allocator@D@2@@std@@V?$shared_ptr@VRawImageData@@@2@@std@@@?$_Tree_temp_node@V?$allocator@U?$_Tree_node@U?$pair@$$CBV?$basic_string@DU?$char_traits@D@std@@V?$allocator@D@2@@std@@V?$shared_ptr@VRawImageData@@@2@@std@@PAX@std@@@std@@@std@@QAE@AAV?$allocator@U?$_Tree_node@U?$pair@$$CBV?$basic_string@DU?$char_traits@D@std@@V?$allocator@D@2@@std@@V?$shared_ptr@VRawImageData@@@2@@std@@PAX@std@@@1@PAU?$_Tree_node@U?$pair@$$CBV?$basic_string@DU?$char_traits@D@std@@V?$allocator@D@2@@std@@V?$shared_ptr@VRawImageData@@@2@@std@@PAX@1@$$QAU?$pair@V?$basic_string@DU?$char_traits@D@std@@V?$allocator@D@2@@std@@V?$shared_ptr@VRawImageData@@@2@@1@@Z$0 00400000 f   Enemy.obj
 0001:fffff000       __unwindfunclet$??$?0U?$pair@V?$basic_string@DU?$char_traits@D@std@@V?$allocator@D@2@@std@@V?$weak_ptr@VRawImageData@@@2@@std@@@?$_Tree_temp_node@V?$allocator@U?$_Tree_node@U?$pair@$$CBV?$basic_string@DU?$char_traits@D@std@@V?$allocator@D@2@@std@@V?$weak_ptr@VRawImageData@@@2@@std@@PAX@std@@@std@@@std@@QAE@AAV?$allocator@U?$_Tree_node@U?$pair@$$CBV?$basic_string@DU?$char_traits@D@std@@V?$allocator@D@2@@std@@V?$weak_ptr@VRawImageData@@@2@@std@@PAX@std@@@1@PAU?$_Tree_node@U?$pair@$$CBV?$basic_string@DU?$char_traits@D@std@@V?$allocator@D@2@@std@@V?$weak_ptr@VRawImageData@@@2@@std@@PAX@1@$$QAU?$pair@V?$basic_string@DU?$char_traits@D@std@@V?$allocator@D@2@@std@@V?$weak_ptr@VRawImageData@@@2@@1@@Z$0 00400000 f   Enemy.obj
 0001:fffff000       __unwindfunclet$??$?0VRawImageData@@$0A@@?$shared_ptr@VRawImageData@@@std@@QAE@PAVRawImageData@@@Z$0 00400000 f   Enemy.obj
 0001:fffff000       __unwindfunclet$??$?6U?$char_traits@D@std@@@std@@YAAAV?$basic_ostream@DU?$char_traits@D@std@@@0@AAV10@PBD@Z$2 00400000 f   Enemy.obj
 0001:fffff000       __unwindfunclet$??$_Construct@$00PBD@?$basic_string@DU?$char_traits@D@std@@V?$allocator@D@2@@std@@AAEXQBDI@Z$0 00400000 f   Enemy.obj
 0001:fffff000       __unwindfunclet$??$_Construct@$01PBD@?$basic_string@DU?$char_traits@D@std@@V?$allocator@D@2@@std@@AAEXQBDI@Z$0 00400000 f   Enemy.obj
 0001:fffff000       __unwindfunclet$??$_Insert_string@DU?$char_traits@D@std@@I@std@@YAAAV?$basic_ostream@DU?$char_traits@D@std@@@0@AAV10@QBDI@Z$2 00400000 f   Enemy.obj
 0001:fffff000       __unwindfunclet$??$_Uninitialized_move@PAPAVDisplayableObject@@V?$allocator@PAVDisplayableObject@@@std@@@std@@YAPAPAVDisplayableObject@@QAPAV1@0PAPAV1@AAV?$allocator@PAVDisplayableObject@@@0@@Z$0 00400000 f   Enemy.obj
 0001:fffff000       __unwindfunclet$??0?$_Tree_temp_node_alloc@V?$allocator@U?$_Tree_node@U?$pair@$$CBV?$basic_string@DU?$char_traits@D@std@@V?$allocator@D@2@@std@@V?$shared_ptr@VRawImageData@@@2@@std@@PAX@std@@@std@@@std@@QAE@AAV?$allocator@U?$_Tree_node@U?$pair@$$CBV?$basic_string@DU?$char_traits@D@std@@V?$allocator@D@2@@std@@V?$shared_ptr@VRawImageData@@@2@@std@@PAX@std@@@1@@Z$0 00400000 f   Enemy.obj
 0001:fffff000       __unwindfunclet$??0?$_Tree_temp_node_alloc@V?$allocator@U?$_Tree_node@U?$pair@$$CBV?$basic_string@DU?$char_traits@D@std@@V?$allocator@D@2@@std@@V?$weak_ptr@VRawImageData@@@2@@std@@PAX@std@@@std@@@std@@QAE@AAV?$allocator@U?$_Tree_node@U?$pair@$$CBV?$basic_string@DU?$char_traits@D@std@@V?$allocator@D@2@@std@@V?$weak_ptr@VRawImageData@@@2@@std@@PAX@std@@@1@@Z$0 00400000 f   Enemy.obj
 0001:fffff000       __unwindfunclet$??0?$basic_string@DU?$char_traits@D@std@@V?$allocator@D@2@@std@@QAE@ABV01@@Z$0 00400000 f   Enemy.obj
 0001:fffff000       __unwindfunclet$??0?$basic_string@DU?$char_traits@D@std@@V?$allocator@D@2@@std@@QAE@QBD@Z$0 00400000 f   Enemy.obj
 0001:fffff000       __unwindfunclet$??0ImageManager@@QAE@XZ$0 00400000 f   Enemy.obj
 0001:fffff000       __unwindfunclet$??0RawImageData@@QAE@V?$basic_string@DU?$char_traits@D@std@@V?$allocator@D@2@@std@@@Z$0 00400000 f   Enemy.obj
 0001:fffff000       __unwindfunclet$??0sentry@?$basic_ostream@DU?$char_traits@D@std@@@std@@QAE@AAV12@@Z$0 00400000 f   Enemy.obj
 0001:fffff000       __unwindfunclet$?_Alloc_sentinel_and_proxy@?$_Tree@V?$_Tmap_traits@V?$basic_string@DU?$char_traits@D@std@@V?$allocator@D@2@@std@@V?$shared_ptr@VRawImageData@@@2@U?$less@V?$basic_string@DU?$char_traits@D@std@@V?$allocator@D@2@@std@@@2@V?$allocator@U?$pair@$$CBV?$basic_string@DU?$char_traits@D@std@@V?$allocator@D@2@@std@@V?$shared_ptr@VRawImageData@@@2@@std@@@2@$0A@@std@@@std@@IAEXXZ$0 00400000 f   Enemy.obj
 0001:fffff000       __unwindfunclet$?_Alloc_sentinel_and_proxy@?$_Tree@V?$_Tmap_traits@V?$basic_string@DU?$char_traits@D@std@@V?$allocator@D@2@@std@@V?$weak_ptr@VRawImageData@@@2@U?$less@V?$basic_string@DU?$char_traits@D@std@@V?$allocator@D@2@@std@@@2@V?$allocator@U?$pair@$$CBV?$basic_string@DU?$char_traits@D@std@@V?$allocator@D@2@@std@@V?$weak_ptr@VRawImageData@@@2@@std@@@2@$0A@@std@@@std@@IAEXXZ$0 00400000 f   Enemy.obj
 0001:fffff000       __unwindfunclet$?_Orphan_range_locked@?$vector@PAVDisplayableObject@@V?$allocator@PAVDisplayableObject@@@std@@@std@@ABEXPAPAVDisplayableObject@@0@Z$0 00400000 f   Enemy.obj
 0001:fffff000       __unwindfunclet$?get@ImageManager@@SAPAV1@XZ$0 00400000 f   Enemy.obj
 0001:fffff000       __unwindfunclet$?getImagePtrbyURL@ImageManager@@QAE?AV?$shared_ptr@VRawImageData@@@std@@V?$basic_string@DU?$char_traits@D@std@@V?$allocator@D@2@@3@_N1@Z$0 00400000 f   Enemy.obj
 0001:fffff000       __unwindfunclet$?getImagebyURL@ImageManager@@QAE?AVSimpleImage@@V?$basic_string@DU?$char_traits@D@std@@V?$allocator@D@2@@std@@_N1@Z$0 00400000 f   Enemy.obj
 0001:fffff000       __unwindfunclet$?loadAsNew@ImageManager@@QAE?AV?$shared_ptr@VRawImageData@@@std@@V?$basic_string@DU?$char_traits@D@std@@V?$allocator@D@2@@3@@Z$0 00400000 f   Enemy.obj
 0001:fffff000       __unwindfunclet$?loadImage@ImageManager@@SA?AVSimpleImage@@V?$basic_string@DU?$char_traits@D@std@@V?$allocator@D@2@@std@@_N@Z$0 00400000 f   Enemy.obj
 0001:fffff000       __unwindfunclet$?loadImage@RawImageData@@QAE_NV?$basic_string@DU?$char_traits@D@std@@V?$allocator@D@2@@std@@HHHHH_N@Z$0 00400000 f   Enemy.obj
 0002:fffbe000       __unwindtable$??$?0U?$pair@V?$basic_string@DU?$char_traits@D@std@@V?$allocator@D@2@@std@@V?$shared_ptr@VRawImageData@@@2@@std@@@?$_Tree_temp_node@V?$allocator@U?$_Tree_node@U?$pair@$$CBV?$basic_string@DU?$char_traits@D@std@@V?$allocator@D@2@@std@@V?$shared_ptr@VRawImageData@@@2@@std@@PAX@std@@@std@@@std@@QAE@AAV?$allocator@U?$_Tree_node@U?$pair@$$CBV?$basic_string@DU?$char_traits@D@std@@V?$allocator@D@2@@std@@V?$shared_ptr@VRawImageData@@@2@@std@@PAX@std@@@1@PAU?$_Tree_node@U?$pair@$$CBV?$basic_string@DU?$char_traits@D@std@@V?$allocator@D@2@@std@@V?$shared_ptr@VRawImageData@@@2@@std@@PAX@1@$$QAU?$pair@V?$basic_string@DU?$char_traits@D@std@@V?$allocator@D@2@@std@@V?$shared_ptr@VRawImageData@@@2@@1@@Z 00400000     Enemy.obj
 0002:fffbe000       __unwindtable$??$?0U?$pair@V?$basic_string@DU?$char_traits@D@std@@V?$allocator@D@2@@std@@V?$weak_ptr@VRawImageData@@@2@@std@@@?$_Tree_temp_node@V?$allocator@U?$_Tree_node@U?$pair@$$CBV?$basic_string@DU?$char_traits@D@std@@V?$allocator@D@2@@std@@V?$weak_ptr@VRawImageData@@@2@@std@@PAX@std@@@std@@@std@@QAE@AAV?$allocator@U?$_Tree_node@U?$pair@$$CBV?$basic_string@DU?$char_traits@D@std@@V?$allocator@D@2@@std@@V?$weak_ptr@VRawImageData@@@2@@std@@PAX@std@@@1@PAU?$_Tree_node@U?$pair@$$CBV?$basic_string@DU?$char_traits@D@std@@V?$allocator@D@2@@std@@V?$weak_ptr@VRawImageData@@@2@@std@@PAX@1@$$QAU?$pair@V?$basic_string@DU?$char_traits@D@std@@V?$allocator@D@2@@std@@V?$weak_ptr@VRawImageData@@@2@@1@@Z 00400000     Enemy.obj
 0002:fffbe000       __unwindtable$??$?0VRawImageData@@$0A@@?$shared_ptr@VRawImageData@@@std@@QAE@PAVRawImageData@@@Z 00400000     Enemy.obj
 0002:fffbe000       __unwindtable$??$_Construct@$00PBD@?$basic_string@DU?$char_traits@D@std@@V?$allocator@D@2@@std@@AAEXQBDI@Z 00400000     Enemy.obj
 0002:fffbe000       __unwindtable$??$_Construct@$01PBD@?$basic_string@DU?$char_traits@D@std@@V?$allocator@D@2@@std@@AAEXQBDI@Z 00400000     Enemy.obj
 0002:fffbe000       __unwindtable$??$_Uninitialized_move@PAPAVDisplayableObject@@V?$allocator@PAVDisplayableObject@@@std@@@std@@YAPAPAVDisplayableObject@@QAPAV1@0PAPAV1@AAV?$allocator@PAVDisplayableObject@@@0@@Z 00400000     Enemy.obj
 0002:fffbe000       __unwindtable$??0?$_Tree_temp_node_alloc@V?$allocator@U?$_Tree_node@U?$pair@$$CBV?$basic_string@DU?$char_traits@D@std@@V?$allocator@D@2@@std@@V?$shared_ptr@VRawImageData@@@2@@std@@PAX@std@@@std@@@std@@QAE@AAV?$allocator@U?$_Tree_node@U?$pair@$$CBV?$basic_string@DU?$char_traits@D@std@@V?$allocator@D@2@@std@@V?$shared_ptr@VRawImageData@@@2@@std@@PAX@std@@@1@@Z 00400000     Enemy.obj
 0002:fffbe000       __unwindtable$??0?$_Tree_temp_node_alloc@V?$allocator@U?$_Tree_node@U?$pair@$$CBV?$basic_string@DU?$char_traits@D@std@@V?$allocator@D@2@@std@@V?$weak_ptr@VRawImageData@@@2@@std@@PAX@std@@@std@@@std@@QAE@AAV?$allocator@U?$_Tree_node@U?$pair@$$CBV?$basic_string@DU?$char_traits@D@std@@V?$allocator@D@2@@std@@V?$weak_ptr@VRawImageData@@@2@@std@@PAX@std@@@1@@Z 00400000     Enemy.obj
 0002:fffbe000       __unwindtable$??0?$basic_string@DU?$char_traits@D@std@@V?$allocator@D@2@@std@@QAE@ABV01@@Z 00400000     Enemy.obj
 0002:fffbe000       __unwindtable$??0?$basic_string@DU?$char_traits@D@std@@V?$allocator@D@2@@std@@QAE@QBD@Z 00400000     Enemy.obj
 0002:fffbe000       __unwindtable$??0ImageManager@@QAE@XZ 00400000     Enemy.obj
 0002:fffbe000       __unwindtable$??0RawImageData@@QAE@V?$basic_string@DU?$char_traits@D@std@@V?$allocator@D@2@@std@@@Z 00400000     Enemy.obj
 0002:fffbe000       __unwindtable$??0sentry@?$basic_ostream@DU?$char_traits@D@std@@@std@@QAE@AAV12@@Z 00400000     Enemy.obj
 0002:fffbe000       __unwindtable$?_Alloc_sentinel_and_proxy@?$_Tree@V?$_Tmap_traits@V?$basic_string@DU?$char_traits@D@std@@V?$allocator@D@2@@std@@V?$shared_ptr@VRawImageData@@@2@U?$less@V?$basic_string@DU?$char_traits@D@std@@V?$allocator@D@2@@std@@@2@V?$allocator@U?$pair@$$CBV?$basic_string@DU?$char_traits@D@std@@V?$allocator@D@2@@std@@V?$shared_ptr@VRawImageData@@@2@@std@@@2@$0A@@std@@@std@@IAEXXZ 00400000     Enemy.obj
 0002:fffbe000       __unwindtable$?_Alloc_sentinel_and_proxy@?$_Tree@V?$_Tmap_traits@V?$basic_string@DU?$char_traits@D@std@@V?$allocator@D@2@@std@@V?$weak_ptr@VRawImageData@@@2@U?$less@V?$basic_string@DU?$char_traits@D@std@@V?$allocator@D@2@@std@@@2@V?$allocator@U?$pair@$$CBV?$basic_string@DU?$char_traits@D@std@@V?$allocator@D@2@@std@@V?$weak_ptr@VRawImageData@@@2@@std@@@2@$0A@@std@@@std@@IAEXXZ 00400000     Enemy.obj
 0002:fffbe000       __unwindtable$?_Orphan_range_locked@?$vector@PAVDisplayableObject@@V?$allocator@PAVDisplayableObject@@@std@@@std@@ABEXPAPAVDisplayableObject@@0@Z 00400000     Enemy.obj
 0002:fffbe000       __unwindtable$?get@ImageManager@@SAPAV1@XZ 00400000     Enemy.obj
 0002:fffbe000       __unwindtable$?getImagebyURL@ImageManager@@QAE?AVSimpleImage@@V?$basic_string@DU?$char_traits@D@std@@V?$allocator@D@2@@std@@_N1@Z 00400000     Enemy.obj
 0002:fffbe000       __unwindtable$?loadAsNew@ImageManager@@QAE?AV?$shared_ptr@VRawImageData@@@std@@V?$basic_string@DU?$char_traits@D@std@@V?$allocator@D@2@@3@@Z 00400000     Enemy.obj
 0002:fffbe000       __unwindtable$?loadImage@ImageManager@@SA?AVSimpleImage@@V?$basic_string@DU?$char_traits@D@std@@V?$allocator@D@2@@std@@_N@Z 00400000     Enemy.obj
 0002:fffbe000       __unwindtable$?loadImage@RawImageData@@QAE_NV?$basic_string@DU?$char_traits@D@std@@V?$allocator@D@2@@std@@HHHHH_N@Z 00400000     Enemy.obj
 0000:00000000       _volmd                     00400000     Enemy.obj
 0000:00000000       _volmd                     00400000     Enemy.obj
 0000:00000000       _volmd                     00400000     Enemy.obj
 0000:00000000       _volmd                     00400000     Enemy.obj
 0000:00000000       _volmd                     00400000     Enemy.obj
 0000:00000000       _volmd                     00400000     Enemy.obj
 0000:00000000       _volmd                     00400000     Enemy.obj
 0000:00000000       _volmd                     00400000     Enemy.obj
 0000:00000000       _volmd                     00400000     Enemy.obj
 0000:00000000       _volmd                     00400000     Enemy.obj
 0000:00000000       _volmd                     00400000     Enemy.obj
 0000:00000000       _volmd                     00400000     Enemy.obj
 0000:00000000       _volmd                     00400000     Enemy.obj
 0000:00000000       _volmd                     00400000     Enemy.obj
 0000:00000000       _volmd                     00400000     Enemy.obj
 0000:00000000       _volmd                     00400000     Enemy.obj
 0000:00000000       _volmd                     00400000     Enemy.obj
 0000:00000000       _volmd                     00400000     Enemy.obj
 0000:00000000       _volmd                     00400000     Enemy.obj
 0000:00000000       _volmd                     00400000     Enemy.obj
 0000:00000000       _volmd                     00400000     Enemy.obj
 0000:00000000       _volmd                     00400000     Enemy.obj
 0000:00000000       _volmd                     00400000     Enemy.obj
 0000:00000000       _volmd                     00400000     Enemy.obj
 0000:00000000       _volmd                     00400000     Enemy.obj
 0000:00000000       _volmd                     00400000     Enemy.obj
 0000:00000000       _volmd                     00400000     Enemy.obj
 0000:00000000       _volmd                     00400000     Enemy.obj
 0000:00000000       _volmd                     00400000     Enemy.obj
 0000:00000000       _volmd                     00400000     Enemy.obj
 0000:00000000       _volmd                     00400000     Enemy.obj
 0000:00000000       _volmd                     00400000     Enemy.obj
 0000:00000000       _volmd                     00400000     Enemy.obj
 0000:00000000       _volmd                     00400000     Enemy.obj
 0000:00000000       _volmd                     00400000     Enemy.obj
 0000:00000000       _volmd                     00400000     Enemy.obj
 0000:00000000       _volmd                     00400000     Enemy.obj
 0000:00000000       _volmd                     00400000     Enemy.obj
 0000:00000000       _volmd                     00400000     Enemy.obj
 0000:00000000       _volmd                     00400000     Enemy.obj
 0000:00000000       _volmd                     00400000     Enemy.obj
 0000:00000000       _volmd                     00400000     Enemy.obj
 0000:00000000       _volmd                     00400000     Enemy.obj
 0000:00000000       _volmd                     00400000     Enemy.obj
 0000:00000000       _volmd                     00400000     Enemy.obj
 0002:fffbe000       __catchsym$??$?6U?$char_traits@D@std@@@std@@YAAAV?$basic_ostream@DU?$char_traits@D@std@@@0@AAV10@PBD@Z$3 00400000     FlashingDemo.obj
 0002:fffbe000       __ehfuncinfo$??1_Sentry_base@?$basic_ostream@DU?$char_traits@D@std@@@std@@QAE@XZ 00400000     FlashingDemo.obj
 0002:fffbe000       __ehfuncinfo$??1sentry@?$basic_ostream@DU?$char_traits@D@std@@@std@@QAE@XZ 00400000     FlashingDemo.obj
 0001:fffff000       __ehhandler$??1_Sentry_base@?$basic_ostream@DU?$char_traits@D@std@@@std@@QAE@XZ 00400000 f   FlashingDemo.obj
 0001:fffff000       __ehhandler$??1sentry@?$basic_ostream@DU?$char_traits@D@std@@@std@@QAE@XZ 00400000 f   FlashingDemo.obj
 0001:fffff000       __unwindfunclet$??$?6U?$char_traits@D@std@@@std@@YAAAV?$basic_ostream@DU?$char_traits@D@std@@@0@AAV10@PBD@Z$2 00400000 f   FlashingDemo.obj
 0001:fffff000       __unwindfunclet$??0sentry@?$basic_ostream@DU?$char_traits@D@std@@@std@@QAE@AAV12@@Z$0 00400000 f   FlashingDemo.obj
 0002:fffbe000       __unwindtable$??0sentry@?$basic_ostream@DU?$char_traits@D@std@@@std@@QAE@AAV12@@Z 00400000     FlashingDemo.obj
 0000:00000000       _volmd                     00400000     FlashingDemo.obj
 0000:00000000       _volmd                     00400000     FlashingDemo.obj
 0000:00000000       _volmd                     00400000     FlashingDemo.obj
 0000:00000000       _volmd                     00400000     FlashingDemo.obj
 0000:00000000       _volmd                     00400000     FlashingDemo.obj
 0000:00000000       _volmd                     00400000     FlashingDemo.obj
 0000:00000000       _volmd                     00400000     FontManager.obj
 0002:fffbe000       __catchsym$??$?6U?$char_traits@D@std@@@std@@YAAAV?$basic_ostream@DU?$char_traits@D@std@@@0@AAV10@PBD@Z$3 00400000     ImageMappingDemo.obj
 0002:fffbe000       __catchsym$??$_Insert_string@DU?$char_traits@D@std@@I@std@@YAAAV?$basic_ostream@DU?$char_traits@D@std@@@0@AAV10@QBDI@Z$3 00400000     ImageMappingDemo.obj
 0002:fffbe000       __catchsym$??$_Resize_reallocate@U_Value_init_tag@std@@@?$vector@PAVDisplayableObject@@V?$allocator@PAVDisplayableObject@@@std@@@std@@AAEXIABU_Value_init_tag@1@@Z$2 00400000     ImageMappingDemo.obj
 0002:fffbe000       __ehfuncinfo$??$_Deallocate@$07$0A@@std@@YAXPAXI@Z 00400000     ImageMappingDemo.obj
 0002:fffbe000       __ehfuncinfo$??$_Deallocate_plain@V?$allocator@U_Container_proxy@std@@@std@@@std@@YAXAAV?$allocator@U_Container_proxy@std@@@0@QAU_Container_proxy@0@@Z 00400000     ImageMappingDemo.obj
 0002:fffbe000       __ehfuncinfo$??$_Freenode0@V?$allocator@U?$_Tree_node@U?$pair@$$CBV?$basic_string@DU?$char_traits@D@std@@V?$allocator@D@2@@std@@V?$weak_ptr@VRawImageData@@@2@@std@@PAX@std@@@std@@@?$_Tree_node@U?$pair@$$CBV?$basic_string@DU?$char_traits@D@std@@V?$allocator@D@2@@std@@V?$weak_ptr@VRawImageData@@@2@@std@@PAX@std@@SAXAAV?$allocator@U?$_Tree_node@U?$pair@$$CBV?$basic_string@DU?$char_traits@D@std@@V?$allocator@D@2@@std@@V?$weak_ptr@VRawImageData@@@2@@std@@PAX@std@@@1@PAU01@@Z 00400000     ImageMappingDemo.obj
 0002:fffbe000       __ehfuncinfo$??$_Freenode@V?$allocator@U?$_Tree_node@U?$pair@$$CBV?$basic_string@DU?$char_traits@D@std@@V?$allocator@D@2@@std@@V?$weak_ptr@VRawImageData@@@2@@std@@PAX@std@@@std@@@?$_Tree_node@U?$pair@$$CBV?$basic_string@DU?$char_traits@D@std@@V?$allocator@D@2@@std@@V?$weak_ptr@VRawImageData@@@2@@std@@PAX@std@@SAXAAV?$allocator@U?$_Tree_node@U?$pair@$$CBV?$basic_string@DU?$char_traits@D@std@@V?$allocator@D@2@@std@@V?$weak_ptr@VRawImageData@@@2@@std@@PAX@std@@@1@PAU01@@Z 00400000     ImageMappingDemo.obj
 0002:fffbe000       __ehfuncinfo$??0?$basic_string@DU?$char_traits@D@std@@V?$allocator@D@2@@std@@QAE@$$QAV01@@Z 00400000     ImageMappingDemo.obj
 0002:fffbe000       __ehfuncinfo$??1?$_Alloc_construct_ptr@V?$allocator@U?$_Tree_node@U?$pair@$$CBV?$basic_string@DU?$char_traits@D@std@@V?$allocator@D@2@@std@@V?$shared_ptr@VRawImageData@@@2@@std@@PAX@std@@@std@@@std@@QAE@XZ 00400000     ImageMappingDemo.obj
 0002:fffbe000       __ehfuncinfo$??1?$_Alloc_construct_ptr@V?$allocator@U?$_Tree_node@U?$pair@$$CBV?$basic_string@DU?$char_traits@D@std@@V?$allocator@D@2@@std@@V?$weak_ptr@VRawImageData@@@2@@std@@PAX@std@@@std@@@std@@QAE@XZ 00400000     ImageMappingDemo.obj
 0002:fffbe000       __ehfuncinfo$??1?$_Tree_temp_node@V?$allocator@U?$_Tree_node@U?$pair@$$CBV?$basic_string@DU?$char_traits@D@std@@V?$allocator@D@2@@std@@V?$shared_ptr@VRawImageData@@@2@@std@@PAX@std@@@std@@@std@@QAE@XZ 00400000     ImageMappingDemo.obj
 0002:fffbe000       __ehfuncinfo$??1?$_Tree_temp_node@V?$allocator@U?$_Tree_node@U?$pair@$$CBV?$basic_string@DU?$char_traits@D@std@@V?$allocator@D@2@@std@@V?$weak_ptr@VRawImageData@@@2@@std@@PAX@std@@@std@@@std@@QAE@XZ 00400000     ImageMappingDemo.obj
 0002:fffbe000       __ehfuncinfo$??1RawImageData@@QAE@XZ 00400000     ImageMappingDemo.obj
 0002:fffbe000       __ehfuncinfo$??1_Sentry_base@?$basic_ostream@DU?$char_traits@D@std@@@std@@QAE@XZ 00400000     ImageMappingDemo.obj
 0002:fffbe000       __ehfuncinfo$??1sentry@?$basic_ostream@DU?$char_traits@D@std@@@std@@QAE@XZ 00400000     ImageMappingDemo.obj
 0002:fffbe000       __ehfuncinfo$?_Take_contents@?$basic_string@DU?$char_traits@D@std@@V?$allocator@D@2@@std@@AAEXAAV12@@Z 00400000     ImageMappingDemo.obj
 0002:fffbe000       __ehfuncinfo$?_Tidy_deallocate@?$basic_string@DU?$char_traits@D@std@@V?$allocator@D@2@@std@@AAEXXZ 00400000     ImageMappingDemo.obj
 0002:fffbe000       __ehfuncinfo$?getImagePtrbyURL@ImageManager@@QAE?AV?$shared_ptr@VRawImageData@@@std@@V?$basic_string@DU?$char_traits@D@std@@V?$allocator@D@2@@3@_N1@Z 00400000     ImageMappingDemo.obj
 0001:fffff000       __ehhandler$??$_Deallocate@$07$0A@@std@@YAXPAXI@Z 00400000 f   ImageMappingDemo.obj
 0001:fffff000       __ehhandler$??$_Deallocate_plain@V?$allocator@U_Container_proxy@std@@@std@@@std@@YAXAAV?$allocator@U_Container_proxy@std@@@0@QAU_Container_proxy@0@@Z 00400000 f   ImageMappingDemo.obj
 0001:fffff000       __ehhandler$??$_Freenode0@V?$allocator@U?$_Tree_node@U?$pair@$$CBV?$basic_string@DU?$char_traits@D@std@@V?$allocator@D@2@@std@@V?$weak_ptr@VRawImageData@@@2@@std@@PAX@std@@@std@@@?$_Tree_node@U?$pair@$$CBV?$basic_string@DU?$char_traits@D@std@@V?$allocator@D@2@@std@@V?$weak_ptr@VRawImageData@@@2@@std@@PAX@std@@SAXAAV?$allocator@U?$_Tree_node@U?$pair@$$CBV?$basic_string@DU?$char_traits@D@std@@V?$allocator@D@2@@std@@V?$weak_ptr@VRawImageData@@@2@@std@@PAX@std@@@1@PAU01@@Z 00400000 f   ImageMappingDemo.obj
 0001:fffff000       __ehhandler$??$_Freenode@V?$allocator@U?$_Tree_node@U?$pair@$$CBV?$basic_string@DU?$char_traits@D@std@@V?$allocator@D@2@@std@@V?$weak_ptr@VRawImageData@@@2@@std@@PAX@std@@@std@@@?$_Tree_node@U?$pair@$$CBV?$basic_string@DU?$char_traits@D@std@@V?$allocator@D@2@@std@@V?$weak_ptr@VRawImageData@@@2@@std@@PAX@std@@SAXAAV?$allocator@U?$_Tree_node@U?$pair@$$CBV?$basic_string@DU?$char_traits@D@std@@V?$allocator@D@2@@std@@V?$weak_ptr@VRawImageData@@@2@@std@@PAX@std@@@1@PAU01@@Z 00400000 f   ImageMappingDemo.obj
 0001:fffff000       __ehhandler$??$_Resize_reallocate@U_Value_init_tag@std@@@?$vector@PAVDisplayableObject@@V?$allocator@PAVDisplayableObject@@@std@@@std@@AAEXIABU_Value_init_tag@1@@Z 00400000 f   ImageMappingDemo.obj
 0001:fffff000       __ehhandler$??0?$basic_string@DU?$char_traits@D@std@@V?$allocator@D@2@@std@@QAE@$$QAV01@@Z 00400000 f   ImageMappingDemo.obj
 0001:fffff000       __ehhandler$??1?$_Alloc_construct_ptr@V?$allocator@U?$_Tree_node@U?$pair@$$CBV?$basic_string@DU?$char_traits@D@std@@V?$allocator@D@2@@std@@V?$shared_ptr@VRawImageData@@@2@@std@@PAX@std@@@std@@@std@@QAE@XZ 00400000 f   ImageMappingDemo.obj
 0001:fffff000       __ehhandler$??1?$_Alloc_construct_ptr@V?$allocator@U?$_Tree_node@U?$pair@$$CBV?$basic_string@DU?$char_traits@D@std@@V?$allocator@D@2@@std@@V?$weak_ptr@VRawImageData@@@2@@std@@PAX@std@@@std@@@std@@QAE@XZ 00400000 f   ImageMappingDemo.obj
 0001:fffff000       __ehhandler$??1?$_Tree_temp_node@V?$allocator@U?$_Tree_node@U?$pair@$$CBV?$basic_string@DU?$char_traits@D@std@@V?$allocator@D@2@@std@@V?$shared_ptr@VRawImageData@@@2@@std@@PAX@std@@@std@@@std@@QAE@XZ 00400000 f   ImageMappingDemo.obj
 0001:fffff000       __ehhandler$??1?$_Tree_temp_node@V?$allocator@U?$_Tree_node@U?$pair@$$CBV?$basic_string@DU?$char_traits@D@std@@V?$allocator@D@2@@std@@V?$weak_ptr@VRawImageData@@@2@@std@@PAX@std@@@std@@@std@@QAE@XZ 00400000 f   ImageMappingDemo.obj
 0001:fffff000       __ehhandler$??1RawImageData@@QAE@XZ 00400000 f   ImageMappingDemo.obj
 0001:fffff000       __ehhandler$??1_Sentry_base@?$basic_ostream@DU?$char_traits@D@std@@@std@@QAE@XZ 00400000 f   ImageMappingDemo.obj
 0001:fffff000       __ehhandler$??1sentry@?$basic_ostream@DU?$char_traits@D@std@@@std@@QAE@XZ 00400000 f   ImageMappingDemo.obj
 0001:fffff000       __ehhandler$?_Take_contents@?$basic_string@DU?$char_traits@D@std@@V?$allocator@D@2@@std@@AAEXAAV12@@Z 00400000 f   ImageMappingDemo.obj
 0001:fffff000       __ehhandler$?_Tidy_deallocate@?$basic_string@DU?$char_traits@D@std@@V?$allocator@D@2@@std@@AAEXXZ 00400000 f   ImageMappingDemo.obj
 0001:fffff000       __unwindfunclet$??$?0U?$pair@V?$basic_string@DU?$char_traits@D@std@@V?$allocator@D@2@@std@@V?$shared_ptr@VRawImageData@@@2@@std@@@?$_Tree_temp_node@V?$allocator@U?$_Tree_node@U?$pair@$$CBV?$basic_string@DU?$char_traits@D@std@@V?$allocator@D@2@@std@@V?$shared_ptr@VRawImageData@@@2@@std@@PAX@std@@@std@@@std@@QAE@AAV?$allocator@U?$_Tree_node@U?$pair@$$CBV?$basic_string@DU?$char_traits@D@std@@V?$allocator@D@2@@std@@V?$shared_ptr@VRawImageData@@@2@@std@@PAX@std@@@1@PAU?$_Tree_node@U?$pair@$$CBV?$basic_string@DU?$char_traits@D@std@@V?$allocator@D@2@@std@@V?$shared_ptr@VRawImageData@@@2@@std@@PAX@1@$$QAU?$pair@V?$basic_string@DU?$char_traits@D@std@@V?$allocator@D@2@@std@@V?$shared_ptr@VRawImageData@@@2@@1@@Z$0 00400000 f   ImageMappingDemo.obj
 0001:fffff000       __unwindfunclet$??$?0U?$pair@V?$basic_string@DU?$char_traits@D@std@@V?$allocator@D@2@@std@@V?$weak_ptr@VRawImageData@@@2@@std@@@?$_Tree_temp_node@V?$allocator@U?$_Tree_node@U?$pair@$$CBV?$basic_string@DU?$char_traits@D@std@@V?$allocator@D@2@@std@@V?$weak_ptr@VRawImageData@@@2@@std@@PAX@std@@@std@@@std@@QAE@AAV?$allocator@U?$_Tree_node@U?$pair@$$CBV?$basic_string@DU?$char_traits@D@std@@V?$allocator@D@2@@std@@V?$weak_ptr@VRawImageData@@@2@@std@@PAX@std@@@1@PAU?$_Tree_node@U?$pair@$$CBV?$basic_string@DU?$char_traits@D@std@@V?$allocator@D@2@@std@@V?$weak_ptr@VRawImageData@@@2@@std@@PAX@1@$$QAU?$pair@V?$basic_string@DU?$char_traits@D@std@@V?$allocator@D@2@@std@@V?$weak_ptr@VRawImageData@@@2@@1@@Z$0 00400000 f   ImageMappingDemo.obj
 0001:fffff000       __unwindfunclet$??$?0VRawImageData@@$0A@@?$shared_ptr@VRawImageData@@@std@@QAE@PAVRawImageData@@@Z$0 00400000 f   ImageMappingDemo.obj
 0001:fffff000       __unwindfunclet$??$?6U?$char_traits@D@std@@@std@@YAAAV?$basic_ostream@DU?$char_traits@D@std@@@0@AAV10@PBD@Z$2 00400000 f   ImageMappingDemo.obj
 0001:fffff000       __unwindfunclet$??$_Construct@$00PBD@?$basic_string@DU?$char_traits@D@std@@V?$allocator@D@2@@std@@AAEXQBDI@Z$0 00400000 f   ImageMappingDemo.obj
 0001:fffff000       __unwindfunclet$??$_Construct@$01PBD@?$basic_string@DU?$char_traits@D@std@@V?$allocator@D@2@@std@@AAEXQBDI@Z$0 00400000 f   ImageMappingDemo.obj
 0001:fffff000       __unwindfunclet$??$_Insert_string@DU?$char_traits@D@std@@I@std@@YAAAV?$basic_ostream@DU?$char_traits@D@std@@@0@AAV10@QBDI@Z$2 00400000 f   ImageMappingDemo.obj
 0001:fffff000       __unwindfunclet$??$_Uninitialized_move@PAPAVDisplayableObject@@V?$allocator@PAVDisplayableObject@@@std@@@std@@YAPAPAVDisplayableObject@@QAPAV1@0PAPAV1@AAV?$allocator@PAVDisplayableObject@@@0@@Z$0 00400000 f   ImageMappingDemo.obj
 0001:fffff000       __unwindfunclet$??$_Uninitialized_value_construct_n@V?$allocator@PAVDisplayableObject@@@std@@@std@@YAPAPAVDisplayableObject@@PAPAV1@IAAV?$allocator@PAVDisplayableObject@@@0@@Z$0 00400000 f   ImageMappingDemo.obj
 0001:fffff000       __unwindfunclet$??0?$_Tree_temp_node_alloc@V?$allocator@U?$_Tree_node@U?$pair@$$CBV?$basic_string@DU?$char_traits@D@std@@V?$allocator@D@2@@std@@V?$shared_ptr@VRawImageData@@@2@@std@@PAX@std@@@std@@@std@@QAE@AAV?$allocator@U?$_Tree_node@U?$pair@$$CBV?$basic_string@DU?$char_traits@D@std@@V?$allocator@D@2@@std@@V?$shared_ptr@VRawImageData@@@2@@std@@PAX@std@@@1@@Z$0 00400000 f   ImageMappingDemo.obj
 0001:fffff000       __unwindfunclet$??0?$_Tree_temp_node_alloc@V?$allocator@U?$_Tree_node@U?$pair@$$CBV?$basic_string@DU?$char_traits@D@std@@V?$allocator@D@2@@std@@V?$weak_ptr@VRawImageData@@@2@@std@@PAX@std@@@std@@@std@@QAE@AAV?$allocator@U?$_Tree_node@U?$pair@$$CBV?$basic_string@DU?$char_traits@D@std@@V?$allocator@D@2@@std@@V?$weak_ptr@VRawImageData@@@2@@std@@PAX@std@@@1@@Z$0 00400000 f   ImageMappingDemo.obj
 0001:fffff000       __unwindfunclet$??0?$basic_string@DU?$char_traits@D@std@@V?$allocator@D@2@@std@@QAE@ABV01@@Z$0 00400000 f   ImageMappingDemo.obj
 0001:fffff000       __unwindfunclet$??0?$basic_string@DU?$char_traits@D@std@@V?$allocator@D@2@@std@@QAE@QBD@Z$0 00400000 f   ImageMappingDemo.obj
 0001:fffff000       __unwindfunclet$??0DragableImageObject@@QAE@HHPAVBaseEngine@@V?$basic_string@DU?$char_traits@D@std@@V?$allocator@D@2@@std@@_N2@Z$0 00400000 f   ImageMappingDemo.obj
 0001:fffff000       __unwindfunclet$??0ImageManager@@QAE@XZ$0 00400000 f   ImageMappingDemo.obj
 0001:fffff000       __unwindfunclet$??0RawImageData@@QAE@V?$basic_string@DU?$char_traits@D@std@@V?$allocator@D@2@@std@@@Z$0 00400000 f   ImageMappingDemo.obj
 0001:fffff000       __unwindfunclet$??0sentry@?$basic_ostream@DU?$char_traits@D@std@@@std@@QAE@AAV12@@Z$0 00400000 f   ImageMappingDemo.obj
 0001:fffff000       __unwindfunclet$?_Alloc_sentinel_and_proxy@?$_Tree@V?$_Tmap_traits@V?$basic_string@DU?$char_traits@D@std@@V?$allocator@D@2@@std@@V?$shared_ptr@VRawImageData@@@2@U?$less@V?$basic_string@DU?$char_traits@D@std@@V?$allocator@D@2@@std@@@2@V?$allocator@U?$pair@$$CBV?$basic_string@DU?$char_traits@D@std@@V?$allocator@D@2@@std@@V?$shared_ptr@VRawImageData@@@2@@std@@@2@$0A@@std@@@std@@IAEXXZ$0 00400000 f   ImageMappingDemo.obj
 0001:fffff000       __unwindfunclet$?_Alloc_sentinel_and_proxy@?$_Tree@V?$_Tmap_traits@V?$basic_string@DU?$char_traits@D@std@@V?$allocator@D@2@@std@@V?$weak_ptr@VRawImageData@@@2@U?$less@V?$basic_string@DU?$char_traits@D@std@@V?$allocator@D@2@@std@@@2@V?$allocator@U?$pair@$$CBV?$basic_string@DU?$char_traits@D@std@@V?$allocator@D@2@@std@@V?$weak_ptr@VRawImageData@@@2@@std@@@2@$0A@@std@@@std@@IAEXXZ$0 00400000 f   ImageMappingDemo.obj
 0001:fffff000       __unwindfunclet$?_Orphan_range_locked@?$vector@PAVDisplayableObject@@V?$allocator@PAVDisplayableObject@@@std@@@std@@ABEXPAPAVDisplayableObject@@0@Z$0 00400000 f   ImageMappingDemo.obj
 0001:fffff000       __unwindfunclet$?get@ImageManager@@SAPAV1@XZ$0 00400000 f   ImageMappingDemo.obj
 0001:fffff000       __unwindfunclet$?getImagePtrbyURL@ImageManager@@QAE?AV?$shared_ptr@VRawImageData@@@std@@V?$basic_string@DU?$char_traits@D@std@@V?$allocator@D@2@@3@_N1@Z$0 00400000 f   ImageMappingDemo.obj
 0001:fffff000       __unwindfunclet$?getImagebyURL@ImageManager@@QAE?AVSimpleImage@@V?$basic_string@DU?$char_traits@D@std@@V?$allocator@D@2@@std@@_N1@Z$0 00400000 f   ImageMappingDemo.obj
 0001:fffff000       __unwindfunclet$?loadAsNew@ImageManager@@QAE?AV?$shared_ptr@VRawImageData@@@std@@V?$basic_string@DU?$char_traits@D@std@@V?$allocator@D@2@@3@@Z$0 00400000 f   ImageMappingDemo.obj
 0001:fffff000       __unwindfunclet$?loadImage@RawImageData@@QAE_NV?$basic_string@DU?$char_traits@D@std@@V?$allocator@D@2@@std@@HHHHH_N@Z$0 00400000 f   ImageMappingDemo.obj
 0002:fffbe000       __unwindtable$??$?0U?$pair@V?$basic_string@DU?$char_traits@D@std@@V?$allocator@D@2@@std@@V?$shared_ptr@VRawImageData@@@2@@std@@@?$_Tree_temp_node@V?$allocator@U?$_Tree_node@U?$pair@$$CBV?$basic_string@DU?$char_traits@D@std@@V?$allocator@D@2@@std@@V?$shared_ptr@VRawImageData@@@2@@std@@PAX@std@@@std@@@std@@QAE@AAV?$allocator@U?$_Tree_node@U?$pair@$$CBV?$basic_string@DU?$char_traits@D@std@@V?$allocator@D@2@@std@@V?$shared_ptr@VRawImageData@@@2@@std@@PAX@std@@@1@PAU?$_Tree_node@U?$pair@$$CBV?$basic_string@DU?$char_traits@D@std@@V?$allocator@D@2@@std@@V?$shared_ptr@VRawImageData@@@2@@std@@PAX@1@$$QAU?$pair@V?$basic_string@DU?$char_traits@D@std@@V?$allocator@D@2@@std@@V?$shared_ptr@VRawImageData@@@2@@1@@Z 00400000     ImageMappingDemo.obj
 0002:fffbe000       __unwindtable$??$?0U?$pair@V?$basic_string@DU?$char_traits@D@std@@V?$allocator@D@2@@std@@V?$weak_ptr@VRawImageData@@@2@@std@@@?$_Tree_temp_node@V?$allocator@U?$_Tree_node@U?$pair@$$CBV?$basic_string@DU?$char_traits@D@std@@V?$allocator@D@2@@std@@V?$weak_ptr@VRawImageData@@@2@@std@@PAX@std@@@std@@@std@@QAE@AAV?$allocator@U?$_Tree_node@U?$pair@$$CBV?$basic_string@DU?$char_traits@D@std@@V?$allocator@D@2@@std@@V?$weak_ptr@VRawImageData@@@2@@std@@PAX@std@@@1@PAU?$_Tree_node@U?$pair@$$CBV?$basic_string@DU?$char_traits@D@std@@V?$allocator@D@2@@std@@V?$weak_ptr@VRawImageData@@@2@@std@@PAX@1@$$QAU?$pair@V?$basic_string@DU?$char_traits@D@std@@V?$allocator@D@2@@std@@V?$weak_ptr@VRawImageData@@@2@@1@@Z 00400000     ImageMappingDemo.obj
 0002:fffbe000       __unwindtable$??$?0VRawImageData@@$0A@@?$shared_ptr@VRawImageData@@@std@@QAE@PAVRawImageData@@@Z 00400000     ImageMappingDemo.obj
 0002:fffbe000       __unwindtable$??$_Construct@$00PBD@?$basic_string@DU?$char_traits@D@std@@V?$allocator@D@2@@std@@AAEXQBDI@Z 00400000     ImageMappingDemo.obj
 0002:fffbe000       __unwindtable$??$_Construct@$01PBD@?$basic_string@DU?$char_traits@D@std@@V?$allocator@D@2@@std@@AAEXQBDI@Z 00400000     ImageMappingDemo.obj
 0002:fffbe000       __unwindtable$??$_Uninitialized_move@PAPAVDisplayableObject@@V?$allocator@PAVDisplayableObject@@@std@@@std@@YAPAPAVDisplayableObject@@QAPAV1@0PAPAV1@AAV?$allocator@PAVDisplayableObject@@@0@@Z 00400000     ImageMappingDemo.obj
 0002:fffbe000       __unwindtable$??$_Uninitialized_value_construct_n@V?$allocator@PAVDisplayableObject@@@std@@@std@@YAPAPAVDisplayableObject@@PAPAV1@IAAV?$allocator@PAVDisplayableObject@@@0@@Z 00400000     ImageMappingDemo.obj
 0002:fffbe000       __unwindtable$??0?$_Tree_temp_node_alloc@V?$allocator@U?$_Tree_node@U?$pair@$$CBV?$basic_string@DU?$char_traits@D@std@@V?$allocator@D@2@@std@@V?$shared_ptr@VRawImageData@@@2@@std@@PAX@std@@@std@@@std@@QAE@AAV?$allocator@U?$_Tree_node@U?$pair@$$CBV?$basic_string@DU?$char_traits@D@std@@V?$allocator@D@2@@std@@V?$shared_ptr@VRawImageData@@@2@@std@@PAX@std@@@1@@Z 00400000     ImageMappingDemo.obj
 0002:fffbe000       __unwindtable$??0?$_Tree_temp_node_alloc@V?$allocator@U?$_Tree_node@U?$pair@$$CBV?$basic_string@DU?$char_traits@D@std@@V?$allocator@D@2@@std@@V?$weak_ptr@VRawImageData@@@2@@std@@PAX@std@@@std@@@std@@QAE@AAV?$allocator@U?$_Tree_node@U?$pair@$$CBV?$basic_string@DU?$char_traits@D@std@@V?$allocator@D@2@@std@@V?$weak_ptr@VRawImageData@@@2@@std@@PAX@std@@@1@@Z 00400000     ImageMappingDemo.obj
 0002:fffbe000       __unwindtable$??0?$basic_string@DU?$char_traits@D@std@@V?$allocator@D@2@@std@@QAE@ABV01@@Z 00400000     ImageMappingDemo.obj
 0002:fffbe000       __unwindtable$??0?$basic_string@DU?$char_traits@D@std@@V?$allocator@D@2@@std@@QAE@QBD@Z 00400000     ImageMappingDemo.obj
 0002:fffbe000       __unwindtable$??0DragableImageObject@@QAE@HHPAVBaseEngine@@V?$basic_string@DU?$char_traits@D@std@@V?$allocator@D@2@@std@@_N2@Z 00400000     ImageMappingDemo.obj
 0002:fffbe000       __unwindtable$??0ImageManager@@QAE@XZ 00400000     ImageMappingDemo.obj
 0002:fffbe000       __unwindtable$??0RawImageData@@QAE@V?$basic_string@DU?$char_traits@D@std@@V?$allocator@D@2@@std@@@Z 00400000     ImageMappingDemo.obj
 0002:fffbe000       __unwindtable$??0sentry@?$basic_ostream@DU?$char_traits@D@std@@@std@@QAE@AAV12@@Z 00400000     ImageMappingDemo.obj
 0002:fffbe000       __unwindtable$?_Alloc_sentinel_and_proxy@?$_Tree@V?$_Tmap_traits@V?$basic_string@DU?$char_traits@D@std@@V?$allocator@D@2@@std@@V?$shared_ptr@VRawImageData@@@2@U?$less@V?$basic_string@DU?$char_traits@D@std@@V?$allocator@D@2@@std@@@2@V?$allocator@U?$pair@$$CBV?$basic_string@DU?$char_traits@D@std@@V?$allocator@D@2@@std@@V?$shared_ptr@VRawImageData@@@2@@std@@@2@$0A@@std@@@std@@IAEXXZ 00400000     ImageMappingDemo.obj
 0002:fffbe000       __unwindtable$?_Alloc_sentinel_and_proxy@?$_Tree@V?$_Tmap_traits@V?$basic_string@DU?$char_traits@D@std@@V?$allocator@D@2@@std@@V?$weak_ptr@VRawImageData@@@2@U?$less@V?$basic_string@DU?$char_traits@D@std@@V?$allocator@D@2@@std@@@2@V?$allocator@U?$pair@$$CBV?$basic_string@DU?$char_traits@D@std@@V?$allocator@D@2@@std@@V?$weak_ptr@VRawImageData@@@2@@std@@@2@$0A@@std@@@std@@IAEXXZ 00400000     ImageMappingDemo.obj
 0002:fffbe000       __unwindtable$?_Orphan_range_locked@?$vector@PAVDisplayableObject@@V?$allocator@PAVDisplayableObject@@@std@@@std@@ABEXPAPAVDisplayableObject@@0@Z 00400000     ImageMappingDemo.obj
 0002:fffbe000       __unwindtable$?get@ImageManager@@SAPAV1@XZ 00400000     ImageMappingDemo.obj
 0002:fffbe000       __unwindtable$?getImagebyURL@ImageManager@@QAE?AVSimpleImage@@V?$basic_string@DU?$char_traits@D@std@@V?$allocator@D@2@@std@@_N1@Z 00400000     ImageMappingDemo.obj
 0002:fffbe000       __unwindtable$?loadAsNew@ImageManager@@QAE?AV?$shared_ptr@VRawImageData@@@std@@V?$basic_string@DU?$char_traits@D@std@@V?$allocator@D@2@@3@@Z 00400000     ImageMappingDemo.obj
 0002:fffbe000       __unwindtable$?loadImage@RawImageData@@QAE_NV?$basic_string@DU?$char_traits@D@std@@V?$allocator@D@2@@std@@HHHHH_N@Z 00400000     ImageMappingDemo.obj
 0000:00000000       _volmd                     00400000     ImageMappingDemo.obj
 0000:00000000       _volmd                     00400000     ImageMappingDemo.obj
 0000:00000000       _volmd                     00400000     ImageMappingDemo.obj
 0000:00000000       _volmd                     00400000     ImageMappingDemo.obj
 0000:00000000       _volmd                     00400000     ImageMappingDemo.obj
 0000:00000000       _volmd                     00400000     ImageMappingDemo.obj
 0000:00000000       _volmd                     00400000     ImageMappingDemo.obj
 0000:00000000       _volmd                     00400000     ImageMappingDemo.obj
 0000:00000000       _volmd                     00400000     ImageMappingDemo.obj
 0000:00000000       _volmd                     00400000     ImageMappingDemo.obj
 0000:00000000       _volmd                     00400000     ImageMappingDemo.obj
 0000:00000000       _volmd                     00400000     ImageMappingDemo.obj
 0000:00000000       _volmd                     00400000     ImageMappingDemo.obj
 0000:00000000       _volmd                     00400000     ImageMappingDemo.obj
 0000:00000000       _volmd                     00400000     ImageMappingDemo.obj
 0000:00000000       _volmd                     00400000     ImageMappingDemo.obj
 0000:00000000       _volmd                     00400000     ImageMappingDemo.obj
 0000:00000000       _volmd                     00400000     ImageMappingDemo.obj
 0000:00000000       _volmd                     00400000     ImageMappingDemo.obj
 0000:00000000       _volmd                     00400000     ImageMappingDemo.obj
 0000:00000000       _volmd                     00400000     ImageMappingDemo.obj
 0000:00000000       _volmd                     00400000     ImageMappingDemo.obj
 0000:00000000       _volmd                     00400000     ImageMappingDemo.obj
 0000:00000000       _volmd                     00400000     ImageMappingDemo.obj
 0000:00000000       _volmd                     00400000     ImageMappingDemo.obj
 0000:00000000       _volmd                     00400000     ImageMappingDemo.obj
 0000:00000000       _volmd                     00400000     ImageMappingDemo.obj
 0000:00000000       _volmd                     00400000     ImageMappingDemo.obj
 0000:00000000       _volmd                     00400000     ImageMappingDemo.obj
 0000:00000000       _volmd                     00400000     ImageMappingDemo.obj
 0000:00000000       _volmd                     00400000     ImageMappingDemo.obj
 0000:00000000       _volmd                     00400000     ImageMappingDemo.obj
 0000:00000000       _volmd                     00400000     ImageMappingDemo.obj
 0000:00000000       _volmd                     00400000     ImageMappingDemo.obj
 0000:00000000       _volmd                     00400000     ImageMappingDemo.obj
 0000:00000000       _volmd                     00400000     ImageMappingDemo.obj
 0000:00000000       _volmd                     00400000     ImageMappingDemo.obj
 0000:00000000       _volmd                     00400000     ImageMappingDemo.obj
 0000:00000000       _volmd                     00400000     ImageMappingDemo.obj
 0000:00000000       _volmd                     00400000     ImageMappingDemo.obj
 0000:00000000       _volmd                     00400000     ImageMappingDemo.obj
 0000:00000000       _volmd                     00400000     ImageMappingDemo.obj
 0000:00000000       _volmd                     00400000     ImageMappingDemo.obj
 0000:00000000       _volmd                     00400000     ImageMappingDemo.obj
 0002:fffbe000       __catchsym$??$?6U?$char_traits@D@std@@@std@@YAAAV?$basic_ostream@DU?$char_traits@D@std@@@0@AAV10@PBD@Z$3 00400000     LoseState.obj
 0002:fffbe000       __catchsym$??$_Insert_string@DU?$char_traits@D@std@@I@std@@YAAAV?$basic_ostream@DU?$char_traits@D@std@@@0@AAV10@QBDI@Z$3 00400000     LoseState.obj
 0002:fffbe000       __ehfuncinfo$??$_Deallocate@$07$0A@@std@@YAXPAXI@Z 00400000     LoseState.obj
 0002:fffbe000       __ehfuncinfo$??$_Deallocate_plain@V?$allocator@U_Container_proxy@std@@@std@@@std@@YAXAAV?$allocator@U_Container_proxy@std@@@0@QAU_Container_proxy@0@@Z 00400000     LoseState.obj
 0002:fffbe000       __ehfuncinfo$??$_Freenode0@V?$allocator@U?$_Tree_node@U?$pair@$$CBV?$basic_string@DU?$char_traits@D@std@@V?$allocator@D@2@@std@@V?$weak_ptr@VRawImageData@@@2@@std@@PAX@std@@@std@@@?$_Tree_node@U?$pair@$$CBV?$basic_string@DU?$char_traits@D@std@@V?$allocator@D@2@@std@@V?$weak_ptr@VRawImageData@@@2@@std@@PAX@std@@SAXAAV?$allocator@U?$_Tree_node@U?$pair@$$CBV?$basic_string@DU?$char_traits@D@std@@V?$allocator@D@2@@std@@V?$weak_ptr@VRawImageData@@@2@@std@@PAX@std@@@1@PAU01@@Z 00400000     LoseState.obj
 0002:fffbe000       __ehfuncinfo$??$_Freenode@V?$allocator@U?$_Tree_node@U?$pair@$$CBV?$basic_string@DU?$char_traits@D@std@@V?$allocator@D@2@@std@@V?$weak_ptr@VRawImageData@@@2@@std@@PAX@std@@@std@@@?$_Tree_node@U?$pair@$$CBV?$basic_string@DU?$char_traits@D@std@@V?$allocator@D@2@@std@@V?$weak_ptr@VRawImageData@@@2@@std@@PAX@std@@SAXAAV?$allocator@U?$_Tree_node@U?$pair@$$CBV?$basic_string@DU?$char_traits@D@std@@V?$allocator@D@2@@std@@V?$weak_ptr@VRawImageData@@@2@@std@@PAX@std@@@1@PAU01@@Z 00400000     LoseState.obj
 0002:fffbe000       __ehfuncinfo$??0?$basic_string@DU?$char_traits@D@std@@V?$allocator@D@2@@std@@QAE@$$QAV01@@Z 00400000     LoseState.obj
 0002:fffbe000       __ehfuncinfo$??1?$_Alloc_construct_ptr@V?$allocator@U?$_Tree_node@U?$pair@$$CBV?$basic_string@DU?$char_traits@D@std@@V?$allocator@D@2@@std@@V?$shared_ptr@VRawImageData@@@2@@std@@PAX@std@@@std@@@std@@QAE@XZ 00400000     LoseState.obj
 0002:fffbe000       __ehfuncinfo$??1?$_Alloc_construct_ptr@V?$allocator@U?$_Tree_node@U?$pair@$$CBV?$basic_string@DU?$char_traits@D@std@@V?$allocator@D@2@@std@@V?$weak_ptr@VRawImageData@@@2@@std@@PAX@std@@@std@@@std@@QAE@XZ 00400000     LoseState.obj
 0002:fffbe000       __ehfuncinfo$??1?$_Tree_temp_node@V?$allocator@U?$_Tree_node@U?$pair@$$CBV?$basic_string@DU?$char_traits@D@std@@V?$allocator@D@2@@std@@V?$shared_ptr@VRawImageData@@@2@@std@@PAX@std@@@std@@@std@@QAE@XZ 00400000     LoseState.obj
 0002:fffbe000       __ehfuncinfo$??1?$_Tree_temp_node@V?$allocator@U?$_Tree_node@U?$pair@$$CBV?$basic_string@DU?$char_traits@D@std@@V?$allocator@D@2@@std@@V?$weak_ptr@VRawImageData@@@2@@std@@PAX@std@@@std@@@std@@QAE@XZ 00400000     LoseState.obj
 0002:fffbe000       __ehfuncinfo$??1RawImageData@@QAE@XZ 00400000     LoseState.obj
 0002:fffbe000       __ehfuncinfo$??1_Sentry_base@?$basic_ostream@DU?$char_traits@D@std@@@std@@QAE@XZ 00400000     LoseState.obj
 0002:fffbe000       __ehfuncinfo$??1sentry@?$basic_ostream@DU?$char_traits@D@std@@@std@@QAE@XZ 00400000     LoseState.obj
 0002:fffbe000       __ehfuncinfo$?_Take_contents@?$basic_string@DU?$char_traits@D@std@@V?$allocator@D@2@@std@@AAEXAAV12@@Z 00400000     LoseState.obj
 0002:fffbe000       __ehfuncinfo$?_Tidy_deallocate@?$basic_string@DU?$char_traits@D@std@@V?$allocator@D@2@@std@@AAEXXZ 00400000     LoseState.obj
 0002:fffbe000       __ehfuncinfo$?getImagePtrbyURL@ImageManager@@QAE?AV?$shared_ptr@VRawImageData@@@std@@V?$basic_string@DU?$char_traits@D@std@@V?$allocator@D@2@@3@_N1@Z 00400000     LoseState.obj
 0001:fffff000       __ehhandler$??$_Deallocate@$07$0A@@std@@YAXPAXI@Z 00400000 f   LoseState.obj
 0001:fffff000       __ehhandler$??$_Deallocate_plain@V?$allocator@U_Container_proxy@std@@@std@@@std@@YAXAAV?$allocator@U_Container_proxy@std@@@0@QAU_Container_proxy@0@@Z 00400000 f   LoseState.obj
 0001:fffff000       __ehhandler$??$_Freenode0@V?$allocator@U?$_Tree_node@U?$pair@$$CBV?$basic_string@DU?$char_traits@D@std@@V?$allocator@D@2@@std@@V?$weak_ptr@VRawImageData@@@2@@std@@PAX@std@@@std@@@?$_Tree_node@U?$pair@$$CBV?$basic_string@DU?$char_traits@D@std@@V?$allocator@D@2@@std@@V?$weak_ptr@VRawImageData@@@2@@std@@PAX@std@@SAXAAV?$allocator@U?$_Tree_node@U?$pair@$$CBV?$basic_string@DU?$char_traits@D@std@@V?$allocator@D@2@@std@@V?$weak_ptr@VRawImageData@@@2@@std@@PAX@std@@@1@PAU01@@Z 00400000 f   LoseState.obj
 0001:fffff000       __ehhandler$??$_Freenode@V?$allocator@U?$_Tree_node@U?$pair@$$CBV?$basic_string@DU?$char_traits@D@std@@V?$allocator@D@2@@std@@V?$weak_ptr@VRawImageData@@@2@@std@@PAX@std@@@std@@@?$_Tree_node@U?$pair@$$CBV?$basic_string@DU?$char_traits@D@std@@V?$allocator@D@2@@std@@V?$weak_ptr@VRawImageData@@@2@@std@@PAX@std@@SAXAAV?$allocator@U?$_Tree_node@U?$pair@$$CBV?$basic_string@DU?$char_traits@D@std@@V?$allocator@D@2@@std@@V?$weak_ptr@VRawImageData@@@2@@std@@PAX@std@@@1@PAU01@@Z 00400000 f   LoseState.obj
 0001:fffff000       __ehhandler$??0?$basic_string@DU?$char_traits@D@std@@V?$allocator@D@2@@std@@QAE@$$QAV01@@Z 00400000 f   LoseState.obj
 0001:fffff000       __ehhandler$??1?$_Alloc_construct_ptr@V?$allocator@U?$_Tree_node@U?$pair@$$CBV?$basic_string@DU?$char_traits@D@std@@V?$allocator@D@2@@std@@V?$shared_ptr@VRawImageData@@@2@@std@@PAX@std@@@std@@@std@@QAE@XZ 00400000 f   LoseState.obj
 0001:fffff000       __ehhandler$??1?$_Alloc_construct_ptr@V?$allocator@U?$_Tree_node@U?$pair@$$CBV?$basic_string@DU?$char_traits@D@std@@V?$allocator@D@2@@std@@V?$weak_ptr@VRawImageData@@@2@@std@@PAX@std@@@std@@@std@@QAE@XZ 00400000 f   LoseState.obj
 0001:fffff000       __ehhandler$??1?$_Tree_temp_node@V?$allocator@U?$_Tree_node@U?$pair@$$CBV?$basic_string@DU?$char_traits@D@std@@V?$allocator@D@2@@std@@V?$shared_ptr@VRawImageData@@@2@@std@@PAX@std@@@std@@@std@@QAE@XZ 00400000 f   LoseState.obj
 0001:fffff000       __ehhandler$??1?$_Tree_temp_node@V?$allocator@U?$_Tree_node@U?$pair@$$CBV?$basic_string@DU?$char_traits@D@std@@V?$allocator@D@2@@std@@V?$weak_ptr@VRawImageData@@@2@@std@@PAX@std@@@std@@@std@@QAE@XZ 00400000 f   LoseState.obj
 0001:fffff000       __ehhandler$??1RawImageData@@QAE@XZ 00400000 f   LoseState.obj
 0001:fffff000       __ehhandler$??1_Sentry_base@?$basic_ostream@DU?$char_traits@D@std@@@std@@QAE@XZ 00400000 f   LoseState.obj
 0001:fffff000       __ehhandler$??1sentry@?$basic_ostream@DU?$char_traits@D@std@@@std@@QAE@XZ 00400000 f   LoseState.obj
 0001:fffff000       __ehhandler$?_Take_contents@?$basic_string@DU?$char_traits@D@std@@V?$allocator@D@2@@std@@AAEXAAV12@@Z 00400000 f   LoseState.obj
 0001:fffff000       __ehhandler$?_Tidy_deallocate@?$basic_string@DU?$char_traits@D@std@@V?$allocator@D@2@@std@@AAEXXZ 00400000 f   LoseState.obj
 0001:fffff000       __unwindfunclet$??$?0U?$pair@V?$basic_string@DU?$char_traits@D@std@@V?$allocator@D@2@@std@@V?$shared_ptr@VRawImageData@@@2@@std@@@?$_Tree_temp_node@V?$allocator@U?$_Tree_node@U?$pair@$$CBV?$basic_string@DU?$char_traits@D@std@@V?$allocator@D@2@@std@@V?$shared_ptr@VRawImageData@@@2@@std@@PAX@std@@@std@@@std@@QAE@AAV?$allocator@U?$_Tree_node@U?$pair@$$CBV?$basic_string@DU?$char_traits@D@std@@V?$allocator@D@2@@std@@V?$shared_ptr@VRawImageData@@@2@@std@@PAX@std@@@1@PAU?$_Tree_node@U?$pair@$$CBV?$basic_string@DU?$char_traits@D@std@@V?$allocator@D@2@@std@@V?$shared_ptr@VRawImageData@@@2@@std@@PAX@1@$$QAU?$pair@V?$basic_string@DU?$char_traits@D@std@@V?$allocator@D@2@@std@@V?$shared_ptr@VRawImageData@@@2@@1@@Z$0 00400000 f   LoseState.obj
 0001:fffff000       __unwindfunclet$??$?0U?$pair@V?$basic_string@DU?$char_traits@D@std@@V?$allocator@D@2@@std@@V?$weak_ptr@VRawImageData@@@2@@std@@@?$_Tree_temp_node@V?$allocator@U?$_Tree_node@U?$pair@$$CBV?$basic_string@DU?$char_traits@D@std@@V?$allocator@D@2@@std@@V?$weak_ptr@VRawImageData@@@2@@std@@PAX@std@@@std@@@std@@QAE@AAV?$allocator@U?$_Tree_node@U?$pair@$$CBV?$basic_string@DU?$char_traits@D@std@@V?$allocator@D@2@@std@@V?$weak_ptr@VRawImageData@@@2@@std@@PAX@std@@@1@PAU?$_Tree_node@U?$pair@$$CBV?$basic_string@DU?$char_traits@D@std@@V?$allocator@D@2@@std@@V?$weak_ptr@VRawImageData@@@2@@std@@PAX@1@$$QAU?$pair@V?$basic_string@DU?$char_traits@D@std@@V?$allocator@D@2@@std@@V?$weak_ptr@VRawImageData@@@2@@1@@Z$0 00400000 f   LoseState.obj
 0001:fffff000       __unwindfunclet$??$?0VRawImageData@@$0A@@?$shared_ptr@VRawImageData@@@std@@QAE@PAVRawImageData@@@Z$0 00400000 f   LoseState.obj
 0001:fffff000       __unwindfunclet$??$?6U?$char_traits@D@std@@@std@@YAAAV?$basic_ostream@DU?$char_traits@D@std@@@0@AAV10@PBD@Z$2 00400000 f   LoseState.obj
 0001:fffff000       __unwindfunclet$??$_Construct@$00PBD@?$basic_string@DU?$char_traits@D@std@@V?$allocator@D@2@@std@@AAEXQBDI@Z$0 00400000 f   LoseState.obj
 0001:fffff000       __unwindfunclet$??$_Construct@$01PBD@?$basic_string@DU?$char_traits@D@std@@V?$allocator@D@2@@std@@AAEXQBDI@Z$0 00400000 f   LoseState.obj
 0001:fffff000       __unwindfunclet$??$_Insert_string@DU?$char_traits@D@std@@I@std@@YAAAV?$basic_ostream@DU?$char_traits@D@std@@@0@AAV10@QBDI@Z$2 00400000 f   LoseState.obj
 0001:fffff000       __unwindfunclet$??0?$_Tree_temp_node_alloc@V?$allocator@U?$_Tree_node@U?$pair@$$CBV?$basic_string@DU?$char_traits@D@std@@V?$allocator@D@2@@std@@V?$shared_ptr@VRawImageData@@@2@@std@@PAX@std@@@std@@@std@@QAE@AAV?$allocator@U?$_Tree_node@U?$pair@$$CBV?$basic_string@DU?$char_traits@D@std@@V?$allocator@D@2@@std@@V?$shared_ptr@VRawImageData@@@2@@std@@PAX@std@@@1@@Z$0 00400000 f   LoseState.obj
 0001:fffff000       __unwindfunclet$??0?$_Tree_temp_node_alloc@V?$allocator@U?$_Tree_node@U?$pair@$$CBV?$basic_string@DU?$char_traits@D@std@@V?$allocator@D@2@@std@@V?$weak_ptr@VRawImageData@@@2@@std@@PAX@std@@@std@@@std@@QAE@AAV?$allocator@U?$_Tree_node@U?$pair@$$CBV?$basic_string@DU?$char_traits@D@std@@V?$allocator@D@2@@std@@V?$weak_ptr@VRawImageData@@@2@@std@@PAX@std@@@1@@Z$0 00400000 f   LoseState.obj
 0001:fffff000       __unwindfunclet$??0?$basic_string@DU?$char_traits@D@std@@V?$allocator@D@2@@std@@QAE@ABV01@@Z$0 00400000 f   LoseState.obj
 0001:fffff000       __unwindfunclet$??0?$basic_string@DU?$char_traits@D@std@@V?$allocator@D@2@@std@@QAE@QBD@Z$0 00400000 f   LoseState.obj
 0001:fffff000       __unwindfunclet$??0ImageManager@@QAE@XZ$0 00400000 f   LoseState.obj
 0001:fffff000       __unwindfunclet$??0RawImageData@@QAE@V?$basic_string@DU?$char_traits@D@std@@V?$allocator@D@2@@std@@@Z$0 00400000 f   LoseState.obj
 0001:fffff000       __unwindfunclet$??0sentry@?$basic_ostream@DU?$char_traits@D@std@@@std@@QAE@AAV12@@Z$0 00400000 f   LoseState.obj
 0001:fffff000       __unwindfunclet$?_Alloc_sentinel_and_proxy@?$_Tree@V?$_Tmap_traits@V?$basic_string@DU?$char_traits@D@std@@V?$allocator@D@2@@std@@V?$shared_ptr@VRawImageData@@@2@U?$less@V?$basic_string@DU?$char_traits@D@std@@V?$allocator@D@2@@std@@@2@V?$allocator@U?$pair@$$CBV?$basic_string@DU?$char_traits@D@std@@V?$allocator@D@2@@std@@V?$shared_ptr@VRawImageData@@@2@@std@@@2@$0A@@std@@@std@@IAEXXZ$0 00400000 f   LoseState.obj
 0001:fffff000       __unwindfunclet$?_Alloc_sentinel_and_proxy@?$_Tree@V?$_Tmap_traits@V?$basic_string@DU?$char_traits@D@std@@V?$allocator@D@2@@std@@V?$weak_ptr@VRawImageData@@@2@U?$less@V?$basic_string@DU?$char_traits@D@std@@V?$allocator@D@2@@std@@@2@V?$allocator@U?$pair@$$CBV?$basic_string@DU?$char_traits@D@std@@V?$allocator@D@2@@std@@V?$weak_ptr@VRawImageData@@@2@@std@@@2@$0A@@std@@@std@@IAEXXZ$0 00400000 f   LoseState.obj
 0001:fffff000       __unwindfunclet$?get@ImageManager@@SAPAV1@XZ$0 00400000 f   LoseState.obj
 0001:fffff000       __unwindfunclet$?getImagePtrbyURL@ImageManager@@QAE?AV?$shared_ptr@VRawImageData@@@std@@V?$basic_string@DU?$char_traits@D@std@@V?$allocator@D@2@@3@_N1@Z$0 00400000 f   LoseState.obj
 0001:fffff000       __unwindfunclet$?getImagebyURL@ImageManager@@QAE?AVSimpleImage@@V?$basic_string@DU?$char_traits@D@std@@V?$allocator@D@2@@std@@_N1@Z$0 00400000 f   LoseState.obj
 0001:fffff000       __unwindfunclet$?loadAsNew@ImageManager@@QAE?AV?$shared_ptr@VRawImageData@@@std@@V?$basic_string@DU?$char_traits@D@std@@V?$allocator@D@2@@3@@Z$0 00400000 f   LoseState.obj
 0001:fffff000       __unwindfunclet$?loadImage@ImageManager@@SA?AVSimpleImage@@V?$basic_string@DU?$char_traits@D@std@@V?$allocator@D@2@@std@@_N@Z$0 00400000 f   LoseState.obj
 0001:fffff000       __unwindfunclet$?loadImage@RawImageData@@QAE_NV?$basic_string@DU?$char_traits@D@std@@V?$allocator@D@2@@std@@HHHHH_N@Z$0 00400000 f   LoseState.obj
 0002:fffbe000       __unwindtable$??$?0U?$pair@V?$basic_string@DU?$char_traits@D@std@@V?$allocator@D@2@@std@@V?$shared_ptr@VRawImageData@@@2@@std@@@?$_Tree_temp_node@V?$allocator@U?$_Tree_node@U?$pair@$$CBV?$basic_string@DU?$char_traits@D@std@@V?$allocator@D@2@@std@@V?$shared_ptr@VRawImageData@@@2@@std@@PAX@std@@@std@@@std@@QAE@AAV?$allocator@U?$_Tree_node@U?$pair@$$CBV?$basic_string@DU?$char_traits@D@std@@V?$allocator@D@2@@std@@V?$shared_ptr@VRawImageData@@@2@@std@@PAX@std@@@1@PAU?$_Tree_node@U?$pair@$$CBV?$basic_string@DU?$char_traits@D@std@@V?$allocator@D@2@@std@@V?$shared_ptr@VRawImageData@@@2@@std@@PAX@1@$$QAU?$pair@V?$basic_string@DU?$char_traits@D@std@@V?$allocator@D@2@@std@@V?$shared_ptr@VRawImageData@@@2@@1@@Z 00400000     LoseState.obj
 0002:fffbe000       __unwindtable$??$?0U?$pair@V?$basic_string@DU?$char_traits@D@std@@V?$allocator@D@2@@std@@V?$weak_ptr@VRawImageData@@@2@@std@@@?$_Tree_temp_node@V?$allocator@U?$_Tree_node@U?$pair@$$CBV?$basic_string@DU?$char_traits@D@std@@V?$allocator@D@2@@std@@V?$weak_ptr@VRawImageData@@@2@@std@@PAX@std@@@std@@@std@@QAE@AAV?$allocator@U?$_Tree_node@U?$pair@$$CBV?$basic_string@DU?$char_traits@D@std@@V?$allocator@D@2@@std@@V?$weak_ptr@VRawImageData@@@2@@std@@PAX@std@@@1@PAU?$_Tree_node@U?$pair@$$CBV?$basic_string@DU?$char_traits@D@std@@V?$allocator@D@2@@std@@V?$weak_ptr@VRawImageData@@@2@@std@@PAX@1@$$QAU?$pair@V?$basic_string@DU?$char_traits@D@std@@V?$allocator@D@2@@std@@V?$weak_ptr@VRawImageData@@@2@@1@@Z 00400000     LoseState.obj
 0002:fffbe000       __unwindtable$??$?0VRawImageData@@$0A@@?$shared_ptr@VRawImageData@@@std@@QAE@PAVRawImageData@@@Z 00400000     LoseState.obj
 0002:fffbe000       __unwindtable$??$_Construct@$00PBD@?$basic_string@DU?$char_traits@D@std@@V?$allocator@D@2@@std@@AAEXQBDI@Z 00400000     LoseState.obj
 0002:fffbe000       __unwindtable$??$_Construct@$01PBD@?$basic_string@DU?$char_traits@D@std@@V?$allocator@D@2@@std@@AAEXQBDI@Z 00400000     LoseState.obj
 0002:fffbe000       __unwindtable$??0?$_Tree_temp_node_alloc@V?$allocator@U?$_Tree_node@U?$pair@$$CBV?$basic_string@DU?$char_traits@D@std@@V?$allocator@D@2@@std@@V?$shared_ptr@VRawImageData@@@2@@std@@PAX@std@@@std@@@std@@QAE@AAV?$allocator@U?$_Tree_node@U?$pair@$$CBV?$basic_string@DU?$char_traits@D@std@@V?$allocator@D@2@@std@@V?$shared_ptr@VRawImageData@@@2@@std@@PAX@std@@@1@@Z 00400000     LoseState.obj
 0002:fffbe000       __unwindtable$??0?$_Tree_temp_node_alloc@V?$allocator@U?$_Tree_node@U?$pair@$$CBV?$basic_string@DU?$char_traits@D@std@@V?$allocator@D@2@@std@@V?$weak_ptr@VRawImageData@@@2@@std@@PAX@std@@@std@@@std@@QAE@AAV?$allocator@U?$_Tree_node@U?$pair@$$CBV?$basic_string@DU?$char_traits@D@std@@V?$allocator@D@2@@std@@V?$weak_ptr@VRawImageData@@@2@@std@@PAX@std@@@1@@Z 00400000     LoseState.obj
 0002:fffbe000       __unwindtable$??0?$basic_string@DU?$char_traits@D@std@@V?$allocator@D@2@@std@@QAE@ABV01@@Z 00400000     LoseState.obj
 0002:fffbe000       __unwindtable$??0?$basic_string@DU?$char_traits@D@std@@V?$allocator@D@2@@std@@QAE@QBD@Z 00400000     LoseState.obj
 0002:fffbe000       __unwindtable$??0ImageManager@@QAE@XZ 00400000     LoseState.obj
 0002:fffbe000       __unwindtable$??0RawImageData@@QAE@V?$basic_string@DU?$char_traits@D@std@@V?$allocator@D@2@@std@@@Z 00400000     LoseState.obj
 0002:fffbe000       __unwindtable$??0sentry@?$basic_ostream@DU?$char_traits@D@std@@@std@@QAE@AAV12@@Z 00400000     LoseState.obj
 0002:fffbe000       __unwindtable$?_Alloc_sentinel_and_proxy@?$_Tree@V?$_Tmap_traits@V?$basic_string@DU?$char_traits@D@std@@V?$allocator@D@2@@std@@V?$shared_ptr@VRawImageData@@@2@U?$less@V?$basic_string@DU?$char_traits@D@std@@V?$allocator@D@2@@std@@@2@V?$allocator@U?$pair@$$CBV?$basic_string@DU?$char_traits@D@std@@V?$allocator@D@2@@std@@V?$shared_ptr@VRawImageData@@@2@@std@@@2@$0A@@std@@@std@@IAEXXZ 00400000     LoseState.obj
 0002:fffbe000       __unwindtable$?_Alloc_sentinel_and_proxy@?$_Tree@V?$_Tmap_traits@V?$basic_string@DU?$char_traits@D@std@@V?$allocator@D@2@@std@@V?$weak_ptr@VRawImageData@@@2@U?$less@V?$basic_string@DU?$char_traits@D@std@@V?$allocator@D@2@@std@@@2@V?$allocator@U?$pair@$$CBV?$basic_string@DU?$char_traits@D@std@@V?$allocator@D@2@@std@@V?$weak_ptr@VRawImageData@@@2@@std@@@2@$0A@@std@@@std@@IAEXXZ 00400000     LoseState.obj
 0002:fffbe000       __unwindtable$?get@ImageManager@@SAPAV1@XZ 00400000     LoseState.obj
 0002:fffbe000       __unwindtable$?getImagebyURL@ImageManager@@QAE?AVSimpleImage@@V?$basic_string@DU?$char_traits@D@std@@V?$allocator@D@2@@std@@_N1@Z 00400000     LoseState.obj
 0002:fffbe000       __unwindtable$?loadAsNew@ImageManager@@QAE?AV?$shared_ptr@VRawImageData@@@std@@V?$basic_string@DU?$char_traits@D@std@@V?$allocator@D@2@@3@@Z 00400000     LoseState.obj
 0002:fffbe000       __unwindtable$?loadImage@ImageManager@@SA?AVSimpleImage@@V?$basic_string@DU?$char_traits@D@std@@V?$allocator@D@2@@std@@_N@Z 00400000     LoseState.obj
 0002:fffbe000       __unwindtable$?loadImage@RawImageData@@QAE_NV?$basic_string@DU?$char_traits@D@std@@V?$allocator@D@2@@std@@HHHHH_N@Z 00400000     LoseState.obj
 0000:00000000       _volmd                     00400000     LoseState.obj
 0000:00000000       _volmd                     00400000     LoseState.obj
 0000:00000000       _volmd                     00400000     LoseState.obj
 0000:00000000       _volmd                     00400000     LoseState.obj
 0000:00000000       _volmd                     00400000     LoseState.obj
 0000:00000000       _volmd                     00400000     LoseState.obj
 0000:00000000       _volmd                     00400000     LoseState.obj
 0000:00000000       _volmd                     00400000     LoseState.obj
 0000:00000000       _volmd                     00400000     LoseState.obj
 0000:00000000       _volmd                     00400000     LoseState.obj
 0000:00000000       _volmd                     00400000     LoseState.obj
 0000:00000000       _volmd                     00400000     LoseState.obj
 0000:00000000       _volmd                     00400000     LoseState.obj
 0000:00000000       _volmd                     00400000     LoseState.obj
 0000:00000000       _volmd                     00400000     LoseState.obj
 0000:00000000       _volmd                     00400000     LoseState.obj
 0000:00000000       _volmd                     00400000     LoseState.obj
 0000:00000000       _volmd                     00400000     LoseState.obj
 0000:00000000       _volmd                     00400000     LoseState.obj
 0000:00000000       _volmd                     00400000     LoseState.obj
 0000:00000000       _volmd                     00400000     LoseState.obj
 0000:00000000       _volmd                     00400000     LoseState.obj
 0000:00000000       _volmd                     00400000     LoseState.obj
 0000:00000000       _volmd                     00400000     LoseState.obj
 0000:00000000       _volmd                     00400000     LoseState.obj
 0000:00000000       _volmd                     00400000     LoseState.obj
 0000:00000000       _volmd                     00400000     LoseState.obj
 0000:00000000       _volmd                     00400000     LoseState.obj
 0000:00000000       _volmd                     00400000     LoseState.obj
 0000:00000000       _volmd                     00400000     LoseState.obj
 0000:00000000       _volmd                     00400000     LoseState.obj
 0000:00000000       _volmd                     00400000     LoseState.obj
 0000:00000000       _volmd                     00400000     LoseState.obj
 0000:00000000       _volmd                     00400000     LoseState.obj
 0000:00000000       _volmd                     00400000     LoseState.obj
 0000:00000000       _volmd                     00400000     LoseState.obj
 0000:00000000       _volmd                     00400000     LoseState.obj
 0000:00000000       _volmd                     00400000     LoseState.obj
 0000:00000000       _volmd                     00400000     LoseState.obj
 0002:fffbe000       __ehfuncinfo$??$_Deallocate@$07$0A@@std@@YAXPAXI@Z 00400000     MST.obj
 0002:fffbe000       __ehfuncinfo$??$_Deallocate_plain@V?$allocator@U_Container_proxy@std@@@std@@@std@@YAXAAV?$allocator@U_Container_proxy@std@@@0@QAU_Container_proxy@0@@Z 00400000     MST.obj
 0001:fffff000       __ehhandler$??$_Deallocate@$07$0A@@std@@YAXPAXI@Z 00400000 f   MST.obj
 0001:fffff000       __ehhandler$??$_Deallocate_plain@V?$allocator@U_Container_proxy@std@@@std@@@std@@YAXAAV?$allocator@U_Container_proxy@std@@@0@QAU_Container_proxy@0@@Z 00400000 f   MST.obj
 0000:00000000       _volmd                     00400000     MST.obj
 0000:00000000       _volmd                     00400000     MST.obj
 0000:00000000       _volmd                     00400000     MST.obj
 0000:00000000       _volmd                     00400000     MST.obj
 0000:00000000       _volmd                     00400000     MST.obj
 0000:00000000       _volmd                     00400000     MST.obj
 0000:00000000       _volmd                     00400000     MST.obj
 0000:00000000       _volmd                     00400000     MST.obj
 0000:00000000       _volmd                     00400000     MST.obj
 0000:00000000       _volmd                     00400000     MST.obj
 0000:00000000       _volmd                     00400000     MST.obj
 0000:00000000       _volmd                     00400000     MST.obj
 0000:00000000       _volmd                     00400000     MST.obj
 0000:00000000       _volmd                     00400000     MST.obj
 0000:00000000       _volmd                     00400000     MST.obj
 0000:00000000       _volmd                     00400000     MST.obj
 0000:00000000       _volmd                     00400000     MST.obj
 0000:00000000       _volmd                     00400000     MST.obj
 0000:00000000       _volmd                     00400000     MST.obj
 0000:00000000       _volmd                     00400000     MST.obj
 0000:00000000       _volmd                     00400000     MST.obj
 0000:00000000       _volmd                     00400000     MST.obj
 0000:00000000       _volmd                     00400000     MST.obj
 0000:00000000       _volmd                     00400000     MST.obj
 0000:00000000       _volmd                     00400000     MST.obj
 0000:00000000       _volmd                     00400000     MST.obj
 0000:00000000       _volmd                     00400000     MST.obj
 0000:00000000       _volmd                     00400000     MST.obj
 0000:00000000       _volmd                     00400000     MST.obj
 0002:fffbe000       __catchsym$??$_Resize_reallocate@U_Value_init_tag@std@@@?$vector@PAVDisplayableObject@@V?$allocator@PAVDisplayableObject@@@std@@@std@@AAEXIABU_Value_init_tag@1@@Z$2 00400000     MazeDemoMain.obj
 0002:fffbe000       __ehfuncinfo$??$_Deallocate@$07$0A@@std@@YAXPAXI@Z 00400000     MazeDemoMain.obj
 0001:fffff000       __ehhandler$??$_Deallocate@$07$0A@@std@@YAXPAXI@Z 00400000 f   MazeDemoMain.obj
 0001:fffff000       __ehhandler$??$_Resize_reallocate@U_Value_init_tag@std@@@?$vector@PAVDisplayableObject@@V?$allocator@PAVDisplayableObject@@@std@@@std@@AAEXIABU_Value_init_tag@1@@Z 00400000 f   MazeDemoMain.obj
 0001:fffff000       __unwindfunclet$??$_Uninitialized_move@PAPAVDisplayableObject@@V?$allocator@PAVDisplayableObject@@@std@@@std@@YAPAPAVDisplayableObject@@QAPAV1@0PAPAV1@AAV?$allocator@PAVDisplayableObject@@@0@@Z$0 00400000 f   MazeDemoMain.obj
 0001:fffff000       __unwindfunclet$??$_Uninitialized_value_construct_n@V?$allocator@PAVDisplayableObject@@@std@@@std@@YAPAPAVDisplayableObject@@PAPAV1@IAAV?$allocator@PAVDisplayableObject@@@0@@Z$0 00400000 f   MazeDemoMain.obj
 0001:fffff000       __unwindfunclet$?_Orphan_range_locked@?$vector@PAVDisplayableObject@@V?$allocator@PAVDisplayableObject@@@std@@@std@@ABEXPAPAVDisplayableObject@@0@Z$0 00400000 f   MazeDemoMain.obj
 0001:fffff000       __unwindfunclet$?setAllObjectsVisible@DisplayableObjectContainer@@QBEX_N@Z$0 00400000 f   MazeDemoMain.obj
 0002:fffbe000       __unwindtable$??$_Uninitialized_move@PAPAVDisplayableObject@@V?$allocator@PAVDisplayableObject@@@std@@@std@@YAPAPAVDisplayableObject@@QAPAV1@0PAPAV1@AAV?$allocator@PAVDisplayableObject@@@0@@Z 00400000     MazeDemoMain.obj
 0002:fffbe000       __unwindtable$??$_Uninitialized_value_construct_n@V?$allocator@PAVDisplayableObject@@@std@@@std@@YAPAPAVDisplayableObject@@PAPAV1@IAAV?$allocator@PAVDisplayableObject@@@0@@Z 00400000     MazeDemoMain.obj
 0002:fffbe000       __unwindtable$?_Orphan_range_locked@?$vector@PAVDisplayableObject@@V?$allocator@PAVDisplayableObject@@@std@@@std@@ABEXPAPAVDisplayableObject@@0@Z 00400000     MazeDemoMain.obj
 0002:fffbe000       __unwindtable$?setAllObjectsVisible@DisplayableObjectContainer@@QBEX_N@Z 00400000     MazeDemoMain.obj
 0000:00000000       _volmd                     00400000     MazeDemoMain.obj
 0000:00000000       _volmd                     00400000     MazeDemoMain.obj
 0000:00000000       _volmd                     00400000     MazeDemoMain.obj
 0000:00000000       _volmd                     00400000     MazeDemoMain.obj
 0000:00000000       _volmd                     00400000     MazeDemoMain.obj
 0000:00000000       _volmd                     00400000     MazeDemoMain.obj
 0000:00000000       _volmd                     00400000     MazeDemoMain.obj
 0000:00000000       _volmd                     00400000     MazeDemoMain.obj
 0000:00000000       _volmd                     00400000     MazeDemoObject.obj
 0002:fffbe000       __catchsym$??$?6U?$char_traits@D@std@@@std@@YAAAV?$basic_ostream@DU?$char_traits@D@std@@@0@AAV10@PBD@Z$3 00400000     NumberTiles.obj
 0002:fffbe000       __catchsym$??$_Insert_string@DU?$char_traits@D@std@@I@std@@YAAAV?$basic_ostream@DU?$char_traits@D@std@@@0@AAV10@QBDI@Z$3 00400000     NumberTiles.obj
 0002:fffbe000       __ehfuncinfo$??$_Deallocate@$07$0A@@std@@YAXPAXI@Z 00400000     NumberTiles.obj
 0002:fffbe000       __ehfuncinfo$??$_Deallocate_plain@V?$allocator@U_Container_proxy@std@@@std@@@std@@YAXAAV?$allocator@U_Container_proxy@std@@@0@QAU_Container_proxy@0@@Z 00400000     NumberTiles.obj
 0002:fffbe000       __ehfuncinfo$??$_Freenode0@V?$allocator@U?$_Tree_node@U?$pair@$$CBV?$basic_string@DU?$char_traits@D@std@@V?$allocator@D@2@@std@@V?$weak_ptr@VRawImageData@@@2@@std@@PAX@std@@@std@@@?$_Tree_node@U?$pair@$$CBV?$basic_string@DU?$char_traits@D@std@@V?$allocator@D@2@@std@@V?$weak_ptr@VRawImageData@@@2@@std@@PAX@std@@SAXAAV?$allocator@U?$_Tree_node@U?$pair@$$CBV?$basic_string@DU?$char_traits@D@std@@V?$allocator@D@2@@std@@V?$weak_ptr@VRawImageData@@@2@@std@@PAX@std@@@1@PAU01@@Z 00400000     NumberTiles.obj
 0002:fffbe000       __ehfuncinfo$??$_Freenode@V?$allocator@U?$_Tree_node@U?$pair@$$CBV?$basic_string@DU?$char_traits@D@std@@V?$allocator@D@2@@std@@V?$weak_ptr@VRawImageData@@@2@@std@@PAX@std@@@std@@@?$_Tree_node@U?$pair@$$CBV?$basic_string@DU?$char_traits@D@std@@V?$allocator@D@2@@std@@V?$weak_ptr@VRawImageData@@@2@@std@@PAX@std@@SAXAAV?$allocator@U?$_Tree_node@U?$pair@$$CBV?$basic_string@DU?$char_traits@D@std@@V?$allocator@D@2@@std@@V?$weak_ptr@VRawImageData@@@2@@std@@PAX@std@@@1@PAU01@@Z 00400000     NumberTiles.obj
 0002:fffbe000       __ehfuncinfo$??0?$basic_string@DU?$char_traits@D@std@@V?$allocator@D@2@@std@@QAE@$$QAV01@@Z 00400000     NumberTiles.obj
 0002:fffbe000       __ehfuncinfo$??1?$_Alloc_construct_ptr@V?$allocator@U?$_Tree_node@U?$pair@$$CBV?$basic_string@DU?$char_traits@D@std@@V?$allocator@D@2@@std@@V?$shared_ptr@VRawImageData@@@2@@std@@PAX@std@@@std@@@std@@QAE@XZ 00400000     NumberTiles.obj
 0002:fffbe000       __ehfuncinfo$??1?$_Alloc_construct_ptr@V?$allocator@U?$_Tree_node@U?$pair@$$CBV?$basic_string@DU?$char_traits@D@std@@V?$allocator@D@2@@std@@V?$weak_ptr@VRawImageData@@@2@@std@@PAX@std@@@std@@@std@@QAE@XZ 00400000     NumberTiles.obj
 0002:fffbe000       __ehfuncinfo$??1?$_Tree_temp_node@V?$allocator@U?$_Tree_node@U?$pair@$$CBV?$basic_string@DU?$char_traits@D@std@@V?$allocator@D@2@@std@@V?$shared_ptr@VRawImageData@@@2@@std@@PAX@std@@@std@@@std@@QAE@XZ 00400000     NumberTiles.obj
 0002:fffbe000       __ehfuncinfo$??1?$_Tree_temp_node@V?$allocator@U?$_Tree_node@U?$pair@$$CBV?$basic_string@DU?$char_traits@D@std@@V?$allocator@D@2@@std@@V?$weak_ptr@VRawImageData@@@2@@std@@PAX@std@@@std@@@std@@QAE@XZ 00400000     NumberTiles.obj
 0002:fffbe000       __ehfuncinfo$??1RawImageData@@QAE@XZ 00400000     NumberTiles.obj
 0002:fffbe000       __ehfuncinfo$??1_Sentry_base@?$basic_ostream@DU?$char_traits@D@std@@@std@@QAE@XZ 00400000     NumberTiles.obj
 0002:fffbe000       __ehfuncinfo$??1sentry@?$basic_ostream@DU?$char_traits@D@std@@@std@@QAE@XZ 00400000     NumberTiles.obj
 0002:fffbe000       __ehfuncinfo$?_Take_contents@?$basic_string@DU?$char_traits@D@std@@V?$allocator@D@2@@std@@AAEXAAV12@@Z 00400000     NumberTiles.obj
 0002:fffbe000       __ehfuncinfo$?_Tidy_deallocate@?$basic_string@DU?$char_traits@D@std@@V?$allocator@D@2@@std@@AAEXXZ 00400000     NumberTiles.obj
 0002:fffbe000       __ehfuncinfo$?getImagePtrbyURL@ImageManager@@QAE?AV?$shared_ptr@VRawImageData@@@std@@V?$basic_string@DU?$char_traits@D@std@@V?$allocator@D@2@@3@_N1@Z 00400000     NumberTiles.obj
 0001:fffff000       __ehhandler$??$_Deallocate@$07$0A@@std@@YAXPAXI@Z 00400000 f   NumberTiles.obj
 0001:fffff000       __ehhandler$??$_Deallocate_plain@V?$allocator@U_Container_proxy@std@@@std@@@std@@YAXAAV?$allocator@U_Container_proxy@std@@@0@QAU_Container_proxy@0@@Z 00400000 f   NumberTiles.obj
 0001:fffff000       __ehhandler$??$_Freenode0@V?$allocator@U?$_Tree_node@U?$pair@$$CBV?$basic_string@DU?$char_traits@D@std@@V?$allocator@D@2@@std@@V?$weak_ptr@VRawImageData@@@2@@std@@PAX@std@@@std@@@?$_Tree_node@U?$pair@$$CBV?$basic_string@DU?$char_traits@D@std@@V?$allocator@D@2@@std@@V?$weak_ptr@VRawImageData@@@2@@std@@PAX@std@@SAXAAV?$allocator@U?$_Tree_node@U?$pair@$$CBV?$basic_string@DU?$char_traits@D@std@@V?$allocator@D@2@@std@@V?$weak_ptr@VRawImageData@@@2@@std@@PAX@std@@@1@PAU01@@Z 00400000 f   NumberTiles.obj
 0001:fffff000       __ehhandler$??$_Freenode@V?$allocator@U?$_Tree_node@U?$pair@$$CBV?$basic_string@DU?$char_traits@D@std@@V?$allocator@D@2@@std@@V?$weak_ptr@VRawImageData@@@2@@std@@PAX@std@@@std@@@?$_Tree_node@U?$pair@$$CBV?$basic_string@DU?$char_traits@D@std@@V?$allocator@D@2@@std@@V?$weak_ptr@VRawImageData@@@2@@std@@PAX@std@@SAXAAV?$allocator@U?$_Tree_node@U?$pair@$$CBV?$basic_string@DU?$char_traits@D@std@@V?$allocator@D@2@@std@@V?$weak_ptr@VRawImageData@@@2@@std@@PAX@std@@@1@PAU01@@Z 00400000 f   NumberTiles.obj
 0001:fffff000       __ehhandler$??0?$basic_string@DU?$char_traits@D@std@@V?$allocator@D@2@@std@@QAE@$$QAV01@@Z 00400000 f   NumberTiles.obj
 0001:fffff000       __ehhandler$??1?$_Alloc_construct_ptr@V?$allocator@U?$_Tree_node@U?$pair@$$CBV?$basic_string@DU?$char_traits@D@std@@V?$allocator@D@2@@std@@V?$shared_ptr@VRawImageData@@@2@@std@@PAX@std@@@std@@@std@@QAE@XZ 00400000 f   NumberTiles.obj
 0001:fffff000       __ehhandler$??1?$_Alloc_construct_ptr@V?$allocator@U?$_Tree_node@U?$pair@$$CBV?$basic_string@DU?$char_traits@D@std@@V?$allocator@D@2@@std@@V?$weak_ptr@VRawImageData@@@2@@std@@PAX@std@@@std@@@std@@QAE@XZ 00400000 f   NumberTiles.obj
 0001:fffff000       __ehhandler$??1?$_Tree_temp_node@V?$allocator@U?$_Tree_node@U?$pair@$$CBV?$basic_string@DU?$char_traits@D@std@@V?$allocator@D@2@@std@@V?$shared_ptr@VRawImageData@@@2@@std@@PAX@std@@@std@@@std@@QAE@XZ 00400000 f   NumberTiles.obj
 0001:fffff000       __ehhandler$??1?$_Tree_temp_node@V?$allocator@U?$_Tree_node@U?$pair@$$CBV?$basic_string@DU?$char_traits@D@std@@V?$allocator@D@2@@std@@V?$weak_ptr@VRawImageData@@@2@@std@@PAX@std@@@std@@@std@@QAE@XZ 00400000 f   NumberTiles.obj
 0001:fffff000       __ehhandler$??1RawImageData@@QAE@XZ 00400000 f   NumberTiles.obj
 0001:fffff000       __ehhandler$??1_Sentry_base@?$basic_ostream@DU?$char_traits@D@std@@@std@@QAE@XZ 00400000 f   NumberTiles.obj
 0001:fffff000       __ehhandler$??1sentry@?$basic_ostream@DU?$char_traits@D@std@@@std@@QAE@XZ 00400000 f   NumberTiles.obj
 0001:fffff000       __ehhandler$?_Take_contents@?$basic_string@DU?$char_traits@D@std@@V?$allocator@D@2@@std@@AAEXAAV12@@Z 00400000 f   NumberTiles.obj
 0001:fffff000       __ehhandler$?_Tidy_deallocate@?$basic_string@DU?$char_traits@D@std@@V?$allocator@D@2@@std@@AAEXXZ 00400000 f   NumberTiles.obj
 0001:fffff000       __unwindfunclet$??$?0U?$pair@V?$basic_string@DU?$char_traits@D@std@@V?$allocator@D@2@@std@@V?$shared_ptr@VRawImageData@@@2@@std@@@?$_Tree_temp_node@V?$allocator@U?$_Tree_node@U?$pair@$$CBV?$basic_string@DU?$char_traits@D@std@@V?$allocator@D@2@@std@@V?$shared_ptr@VRawImageData@@@2@@std@@PAX@std@@@std@@@std@@QAE@AAV?$allocator@U?$_Tree_node@U?$pair@$$CBV?$basic_string@DU?$char_traits@D@std@@V?$allocator@D@2@@std@@V?$shared_ptr@VRawImageData@@@2@@std@@PAX@std@@@1@PAU?$_Tree_node@U?$pair@$$CBV?$basic_string@DU?$char_traits@D@std@@V?$allocator@D@2@@std@@V?$shared_ptr@VRawImageData@@@2@@std@@PAX@1@$$QAU?$pair@V?$basic_string@DU?$char_traits@D@std@@V?$allocator@D@2@@std@@V?$shared_ptr@VRawImageData@@@2@@1@@Z$0 00400000 f   NumberTiles.obj
 0001:fffff000       __unwindfunclet$??$?0U?$pair@V?$basic_string@DU?$char_traits@D@std@@V?$allocator@D@2@@std@@V?$weak_ptr@VRawImageData@@@2@@std@@@?$_Tree_temp_node@V?$allocator@U?$_Tree_node@U?$pair@$$CBV?$basic_string@DU?$char_traits@D@std@@V?$allocator@D@2@@std@@V?$weak_ptr@VRawImageData@@@2@@std@@PAX@std@@@std@@@std@@QAE@AAV?$allocator@U?$_Tree_node@U?$pair@$$CBV?$basic_string@DU?$char_traits@D@std@@V?$allocator@D@2@@std@@V?$weak_ptr@VRawImageData@@@2@@std@@PAX@std@@@1@PAU?$_Tree_node@U?$pair@$$CBV?$basic_string@DU?$char_traits@D@std@@V?$allocator@D@2@@std@@V?$weak_ptr@VRawImageData@@@2@@std@@PAX@1@$$QAU?$pair@V?$basic_string@DU?$char_traits@D@std@@V?$allocator@D@2@@std@@V?$weak_ptr@VRawImageData@@@2@@1@@Z$0 00400000 f   NumberTiles.obj
 0001:fffff000       __unwindfunclet$??$?0VRawImageData@@$0A@@?$shared_ptr@VRawImageData@@@std@@QAE@PAVRawImageData@@@Z$0 00400000 f   NumberTiles.obj
 0001:fffff000       __unwindfunclet$??$?6U?$char_traits@D@std@@@std@@YAAAV?$basic_ostream@DU?$char_traits@D@std@@@0@AAV10@PBD@Z$2 00400000 f   NumberTiles.obj
 0001:fffff000       __unwindfunclet$??$_Construct@$00PBD@?$basic_string@DU?$char_traits@D@std@@V?$allocator@D@2@@std@@AAEXQBDI@Z$0 00400000 f   NumberTiles.obj
 0001:fffff000       __unwindfunclet$??$_Construct@$01PBD@?$basic_string@DU?$char_traits@D@std@@V?$allocator@D@2@@std@@AAEXQBDI@Z$0 00400000 f   NumberTiles.obj
 0001:fffff000       __unwindfunclet$??$_Insert_string@DU?$char_traits@D@std@@I@std@@YAAAV?$basic_ostream@DU?$char_traits@D@std@@@0@AAV10@QBDI@Z$2 00400000 f   NumberTiles.obj
 0001:fffff000       __unwindfunclet$??0?$_Tree_temp_node_alloc@V?$allocator@U?$_Tree_node@U?$pair@$$CBV?$basic_string@DU?$char_traits@D@std@@V?$allocator@D@2@@std@@V?$shared_ptr@VRawImageData@@@2@@std@@PAX@std@@@std@@@std@@QAE@AAV?$allocator@U?$_Tree_node@U?$pair@$$CBV?$basic_string@DU?$char_traits@D@std@@V?$allocator@D@2@@std@@V?$shared_ptr@VRawImageData@@@2@@std@@PAX@std@@@1@@Z$0 00400000 f   NumberTiles.obj
 0001:fffff000       __unwindfunclet$??0?$_Tree_temp_node_alloc@V?$allocator@U?$_Tree_node@U?$pair@$$CBV?$basic_string@DU?$char_traits@D@std@@V?$allocator@D@2@@std@@V?$weak_ptr@VRawImageData@@@2@@std@@PAX@std@@@std@@@std@@QAE@AAV?$allocator@U?$_Tree_node@U?$pair@$$CBV?$basic_string@DU?$char_traits@D@std@@V?$allocator@D@2@@std@@V?$weak_ptr@VRawImageData@@@2@@std@@PAX@std@@@1@@Z$0 00400000 f   NumberTiles.obj
 0001:fffff000       __unwindfunclet$??0?$basic_string@DU?$char_traits@D@std@@V?$allocator@D@2@@std@@QAE@ABV01@@Z$0 00400000 f   NumberTiles.obj
 0001:fffff000       __unwindfunclet$??0?$basic_string@DU?$char_traits@D@std@@V?$allocator@D@2@@std@@QAE@QBD@Z$0 00400000 f   NumberTiles.obj
 0001:fffff000       __unwindfunclet$??0ImageManager@@QAE@XZ$0 00400000 f   NumberTiles.obj
 0001:fffff000       __unwindfunclet$??0RawImageData@@QAE@V?$basic_string@DU?$char_traits@D@std@@V?$allocator@D@2@@std@@@Z$0 00400000 f   NumberTiles.obj
 0001:fffff000       __unwindfunclet$??0sentry@?$basic_ostream@DU?$char_traits@D@std@@@std@@QAE@AAV12@@Z$0 00400000 f   NumberTiles.obj
 0001:fffff000       __unwindfunclet$?_Alloc_sentinel_and_proxy@?$_Tree@V?$_Tmap_traits@V?$basic_string@DU?$char_traits@D@std@@V?$allocator@D@2@@std@@V?$shared_ptr@VRawImageData@@@2@U?$less@V?$basic_string@DU?$char_traits@D@std@@V?$allocator@D@2@@std@@@2@V?$allocator@U?$pair@$$CBV?$basic_string@DU?$char_traits@D@std@@V?$allocator@D@2@@std@@V?$shared_ptr@VRawImageData@@@2@@std@@@2@$0A@@std@@@std@@IAEXXZ$0 00400000 f   NumberTiles.obj
 0001:fffff000       __unwindfunclet$?_Alloc_sentinel_and_proxy@?$_Tree@V?$_Tmap_traits@V?$basic_string@DU?$char_traits@D@std@@V?$allocator@D@2@@std@@V?$weak_ptr@VRawImageData@@@2@U?$less@V?$basic_string@DU?$char_traits@D@std@@V?$allocator@D@2@@std@@@2@V?$allocator@U?$pair@$$CBV?$basic_string@DU?$char_traits@D@std@@V?$allocator@D@2@@std@@V?$weak_ptr@VRawImageData@@@2@@std@@@2@$0A@@std@@@std@@IAEXXZ$0 00400000 f   NumberTiles.obj
 0001:fffff000       __unwindfunclet$?get@ImageManager@@SAPAV1@XZ$0 00400000 f   NumberTiles.obj
 0001:fffff000       __unwindfunclet$?getImagePtrbyURL@ImageManager@@QAE?AV?$shared_ptr@VRawImageData@@@std@@V?$basic_string@DU?$char_traits@D@std@@V?$allocator@D@2@@3@_N1@Z$0 00400000 f   NumberTiles.obj
 0001:fffff000       __unwindfunclet$?getImagebyURL@ImageManager@@QAE?AVSimpleImage@@V?$basic_string@DU?$char_traits@D@std@@V?$allocator@D@2@@std@@_N1@Z$0 00400000 f   NumberTiles.obj
 0001:fffff000       __unwindfunclet$?loadAsNew@ImageManager@@QAE?AV?$shared_ptr@VRawImageData@@@std@@V?$basic_string@DU?$char_traits@D@std@@V?$allocator@D@2@@3@@Z$0 00400000 f   NumberTiles.obj
 0001:fffff000       __unwindfunclet$?loadImage@ImageManager@@SA?AVSimpleImage@@V?$basic_string@DU?$char_traits@D@std@@V?$allocator@D@2@@std@@_N@Z$0 00400000 f   NumberTiles.obj
 0001:fffff000       __unwindfunclet$?loadImage@RawImageData@@QAE_NV?$basic_string@DU?$char_traits@D@std@@V?$allocator@D@2@@std@@HHHHH_N@Z$0 00400000 f   NumberTiles.obj
 0002:fffbe000       __unwindtable$??$?0U?$pair@V?$basic_string@DU?$char_traits@D@std@@V?$allocator@D@2@@std@@V?$shared_ptr@VRawImageData@@@2@@std@@@?$_Tree_temp_node@V?$allocator@U?$_Tree_node@U?$pair@$$CBV?$basic_string@DU?$char_traits@D@std@@V?$allocator@D@2@@std@@V?$shared_ptr@VRawImageData@@@2@@std@@PAX@std@@@std@@@std@@QAE@AAV?$allocator@U?$_Tree_node@U?$pair@$$CBV?$basic_string@DU?$char_traits@D@std@@V?$allocator@D@2@@std@@V?$shared_ptr@VRawImageData@@@2@@std@@PAX@std@@@1@PAU?$_Tree_node@U?$pair@$$CBV?$basic_string@DU?$char_traits@D@std@@V?$allocator@D@2@@std@@V?$shared_ptr@VRawImageData@@@2@@std@@PAX@1@$$QAU?$pair@V?$basic_string@DU?$char_traits@D@std@@V?$allocator@D@2@@std@@V?$shared_ptr@VRawImageData@@@2@@1@@Z 00400000     NumberTiles.obj
 0002:fffbe000       __unwindtable$??$?0U?$pair@V?$basic_string@DU?$char_traits@D@std@@V?$allocator@D@2@@std@@V?$weak_ptr@VRawImageData@@@2@@std@@@?$_Tree_temp_node@V?$allocator@U?$_Tree_node@U?$pair@$$CBV?$basic_string@DU?$char_traits@D@std@@V?$allocator@D@2@@std@@V?$weak_ptr@VRawImageData@@@2@@std@@PAX@std@@@std@@@std@@QAE@AAV?$allocator@U?$_Tree_node@U?$pair@$$CBV?$basic_string@DU?$char_traits@D@std@@V?$allocator@D@2@@std@@V?$weak_ptr@VRawImageData@@@2@@std@@PAX@std@@@1@PAU?$_Tree_node@U?$pair@$$CBV?$basic_string@DU?$char_traits@D@std@@V?$allocator@D@2@@std@@V?$weak_ptr@VRawImageData@@@2@@std@@PAX@1@$$QAU?$pair@V?$basic_string@DU?$char_traits@D@std@@V?$allocator@D@2@@std@@V?$weak_ptr@VRawImageData@@@2@@1@@Z 00400000     NumberTiles.obj
 0002:fffbe000       __unwindtable$??$?0VRawImageData@@$0A@@?$shared_ptr@VRawImageData@@@std@@QAE@PAVRawImageData@@@Z 00400000     NumberTiles.obj
 0002:fffbe000       __unwindtable$??$_Construct@$00PBD@?$basic_string@DU?$char_traits@D@std@@V?$allocator@D@2@@std@@AAEXQBDI@Z 00400000     NumberTiles.obj
 0002:fffbe000       __unwindtable$??$_Construct@$01PBD@?$basic_string@DU?$char_traits@D@std@@V?$allocator@D@2@@std@@AAEXQBDI@Z 00400000     NumberTiles.obj
 0002:fffbe000       __unwindtable$??0?$_Tree_temp_node_alloc@V?$allocator@U?$_Tree_node@U?$pair@$$CBV?$basic_string@DU?$char_traits@D@std@@V?$allocator@D@2@@std@@V?$shared_ptr@VRawImageData@@@2@@std@@PAX@std@@@std@@@std@@QAE@AAV?$allocator@U?$_Tree_node@U?$pair@$$CBV?$basic_string@DU?$char_traits@D@std@@V?$allocator@D@2@@std@@V?$shared_ptr@VRawImageData@@@2@@std@@PAX@std@@@1@@Z 00400000     NumberTiles.obj
 0002:fffbe000       __unwindtable$??0?$_Tree_temp_node_alloc@V?$allocator@U?$_Tree_node@U?$pair@$$CBV?$basic_string@DU?$char_traits@D@std@@V?$allocator@D@2@@std@@V?$weak_ptr@VRawImageData@@@2@@std@@PAX@std@@@std@@@std@@QAE@AAV?$allocator@U?$_Tree_node@U?$pair@$$CBV?$basic_string@DU?$char_traits@D@std@@V?$allocator@D@2@@std@@V?$weak_ptr@VRawImageData@@@2@@std@@PAX@std@@@1@@Z 00400000     NumberTiles.obj
 0002:fffbe000       __unwindtable$??0?$basic_string@DU?$char_traits@D@std@@V?$allocator@D@2@@std@@QAE@ABV01@@Z 00400000     NumberTiles.obj
 0002:fffbe000       __unwindtable$??0?$basic_string@DU?$char_traits@D@std@@V?$allocator@D@2@@std@@QAE@QBD@Z 00400000     NumberTiles.obj
 0002:fffbe000       __unwindtable$??0ImageManager@@QAE@XZ 00400000     NumberTiles.obj
 0002:fffbe000       __unwindtable$??0RawImageData@@QAE@V?$basic_string@DU?$char_traits@D@std@@V?$allocator@D@2@@std@@@Z 00400000     NumberTiles.obj
 0002:fffbe000       __unwindtable$??0sentry@?$basic_ostream@DU?$char_traits@D@std@@@std@@QAE@AAV12@@Z 00400000     NumberTiles.obj
 0002:fffbe000       __unwindtable$?_Alloc_sentinel_and_proxy@?$_Tree@V?$_Tmap_traits@V?$basic_string@DU?$char_traits@D@std@@V?$allocator@D@2@@std@@V?$shared_ptr@VRawImageData@@@2@U?$less@V?$basic_string@DU?$char_traits@D@std@@V?$allocator@D@2@@std@@@2@V?$allocator@U?$pair@$$CBV?$basic_string@DU?$char_traits@D@std@@V?$allocator@D@2@@std@@V?$shared_ptr@VRawImageData@@@2@@std@@@2@$0A@@std@@@std@@IAEXXZ 00400000     NumberTiles.obj
 0002:fffbe000       __unwindtable$?_Alloc_sentinel_and_proxy@?$_Tree@V?$_Tmap_traits@V?$basic_string@DU?$char_traits@D@std@@V?$allocator@D@2@@std@@V?$weak_ptr@VRawImageData@@@2@U?$less@V?$basic_string@DU?$char_traits@D@std@@V?$allocator@D@2@@std@@@2@V?$allocator@U?$pair@$$CBV?$basic_string@DU?$char_traits@D@std@@V?$allocator@D@2@@std@@V?$weak_ptr@VRawImageData@@@2@@std@@@2@$0A@@std@@@std@@IAEXXZ 00400000     NumberTiles.obj
 0002:fffbe000       __unwindtable$?get@ImageManager@@SAPAV1@XZ 00400000     NumberTiles.obj
 0002:fffbe000       __unwindtable$?getImagebyURL@ImageManager@@QAE?AVSimpleImage@@V?$basic_string@DU?$char_traits@D@std@@V?$allocator@D@2@@std@@_N1@Z 00400000     NumberTiles.obj
 0002:fffbe000       __unwindtable$?loadAsNew@ImageManager@@QAE?AV?$shared_ptr@VRawImageData@@@std@@V?$basic_string@DU?$char_traits@D@std@@V?$allocator@D@2@@3@@Z 00400000     NumberTiles.obj
 0002:fffbe000       __unwindtable$?loadImage@ImageManager@@SA?AVSimpleImage@@V?$basic_string@DU?$char_traits@D@std@@V?$allocator@D@2@@std@@_N@Z 00400000     NumberTiles.obj
 0002:fffbe000       __unwindtable$?loadImage@RawImageData@@QAE_NV?$basic_string@DU?$char_traits@D@std@@V?$allocator@D@2@@std@@HHHHH_N@Z 00400000     NumberTiles.obj
 0000:00000000       _volmd                     00400000     NumberTiles.obj
 0000:00000000       _volmd                     00400000     NumberTiles.obj
 0000:00000000       _volmd                     00400000     NumberTiles.obj
 0000:00000000       _volmd                     00400000     NumberTiles.obj
 0000:00000000       _volmd                     00400000     NumberTiles.obj
 0000:00000000       _volmd                     00400000     NumberTiles.obj
 0000:00000000       _volmd                     00400000     NumberTiles.obj
 0000:00000000       _volmd                     00400000     NumberTiles.obj
 0000:00000000       _volmd                     00400000     NumberTiles.obj
 0000:00000000       _volmd                     00400000     NumberTiles.obj
 0000:00000000       _volmd                     00400000     NumberTiles.obj
 0000:00000000       _volmd                     00400000     NumberTiles.obj
 0000:00000000       _volmd                     00400000     NumberTiles.obj
 0000:00000000       _volmd                     00400000     NumberTiles.obj
 0000:00000000       _volmd                     00400000     NumberTiles.obj
 0000:00000000       _volmd                     00400000     NumberTiles.obj
 0000:00000000       _volmd                     00400000     NumberTiles.obj
 0000:00000000       _volmd                     00400000     NumberTiles.obj
 0000:00000000       _volmd                     00400000     NumberTiles.obj
 0000:00000000       _volmd                     00400000     NumberTiles.obj
 0000:00000000       _volmd                     00400000     NumberTiles.obj
 0000:00000000       _volmd                     00400000     NumberTiles.obj
 0000:00000000       _volmd                     00400000     NumberTiles.obj
 0000:00000000       _volmd                     00400000     NumberTiles.obj
 0000:00000000       _volmd                     00400000     NumberTiles.obj
 0000:00000000       _volmd                     00400000     NumberTiles.obj
 0000:00000000       _volmd                     00400000     NumberTiles.obj
 0000:00000000       _volmd                     00400000     NumberTiles.obj
 0000:00000000       _volmd                     00400000     NumberTiles.obj
 0000:00000000       _volmd                     00400000     NumberTiles.obj
 0000:00000000       _volmd                     00400000     NumberTiles.obj
 0000:00000000       _volmd                     00400000     NumberTiles.obj
 0000:00000000       _volmd                     00400000     NumberTiles.obj
 0000:00000000       _volmd                     00400000     NumberTiles.obj
 0000:00000000       _volmd                     00400000     NumberTiles.obj
 0000:00000000       _volmd                     00400000     NumberTiles.obj
 0000:00000000       _volmd                     00400000     NumberTiles.obj
 0000:00000000       _volmd                     00400000     NumberTiles.obj
 0000:00000000       _volmd                     00400000     NumberTiles.obj
 0002:fffbe000       __catchsym$??$?6U?$char_traits@D@std@@@std@@YAAAV?$basic_ostream@DU?$char_traits@D@std@@@0@AAV10@PBD@Z$3 00400000     Player.obj
 0002:fffbe000       __catchsym$??$_Insert_string@DU?$char_traits@D@std@@I@std@@YAAAV?$basic_ostream@DU?$char_traits@D@std@@@0@AAV10@QBDI@Z$3 00400000     Player.obj
 0002:fffbe000       __ehfuncinfo$??$_Deallocate@$07$0A@@std@@YAXPAXI@Z 00400000     Player.obj
 0002:fffbe000       __ehfuncinfo$??$_Deallocate_plain@V?$allocator@U_Container_proxy@std@@@std@@@std@@YAXAAV?$allocator@U_Container_proxy@std@@@0@QAU_Container_proxy@0@@Z 00400000     Player.obj
 0002:fffbe000       __ehfuncinfo$??$_Freenode0@V?$allocator@U?$_Tree_node@U?$pair@$$CBV?$basic_string@DU?$char_traits@D@std@@V?$allocator@D@2@@std@@V?$weak_ptr@VRawImageData@@@2@@std@@PAX@std@@@std@@@?$_Tree_node@U?$pair@$$CBV?$basic_string@DU?$char_traits@D@std@@V?$allocator@D@2@@std@@V?$weak_ptr@VRawImageData@@@2@@std@@PAX@std@@SAXAAV?$allocator@U?$_Tree_node@U?$pair@$$CBV?$basic_string@DU?$char_traits@D@std@@V?$allocator@D@2@@std@@V?$weak_ptr@VRawImageData@@@2@@std@@PAX@std@@@1@PAU01@@Z 00400000     Player.obj
 0002:fffbe000       __ehfuncinfo$??$_Freenode@V?$allocator@U?$_Tree_node@U?$pair@$$CBV?$basic_string@DU?$char_traits@D@std@@V?$allocator@D@2@@std@@V?$weak_ptr@VRawImageData@@@2@@std@@PAX@std@@@std@@@?$_Tree_node@U?$pair@$$CBV?$basic_string@DU?$char_traits@D@std@@V?$allocator@D@2@@std@@V?$weak_ptr@VRawImageData@@@2@@std@@PAX@std@@SAXAAV?$allocator@U?$_Tree_node@U?$pair@$$CBV?$basic_string@DU?$char_traits@D@std@@V?$allocator@D@2@@std@@V?$weak_ptr@VRawImageData@@@2@@std@@PAX@std@@@1@PAU01@@Z 00400000     Player.obj
 0002:fffbe000       __ehfuncinfo$??0?$basic_string@DU?$char_traits@D@std@@V?$allocator@D@2@@std@@QAE@$$QAV01@@Z 00400000     Player.obj
 0002:fffbe000       __ehfuncinfo$??0?$basic_string@DU?$char_traits@D@std@@V?$allocator@D@2@@std@@QAE@XZ 00400000     Player.obj
 0002:fffbe000       __ehfuncinfo$??1?$_Alloc_construct_ptr@V?$allocator@U?$_Tree_node@U?$pair@$$CBV?$basic_string@DU?$char_traits@D@std@@V?$allocator@D@2@@std@@V?$shared_ptr@VRawImageData@@@2@@std@@PAX@std@@@std@@@std@@QAE@XZ 00400000     Player.obj
 0002:fffbe000       __ehfuncinfo$??1?$_Alloc_construct_ptr@V?$allocator@U?$_Tree_node@U?$pair@$$CBV?$basic_string@DU?$char_traits@D@std@@V?$allocator@D@2@@std@@V?$weak_ptr@VRawImageData@@@2@@std@@PAX@std@@@std@@@std@@QAE@XZ 00400000     Player.obj
 0002:fffbe000       __ehfuncinfo$??1?$_Tree_temp_node@V?$allocator@U?$_Tree_node@U?$pair@$$CBV?$basic_string@DU?$char_traits@D@std@@V?$allocator@D@2@@std@@V?$shared_ptr@VRawImageData@@@2@@std@@PAX@std@@@std@@@std@@QAE@XZ 00400000     Player.obj
 0002:fffbe000       __ehfuncinfo$??1?$_Tree_temp_node@V?$allocator@U?$_Tree_node@U?$pair@$$CBV?$basic_string@DU?$char_traits@D@std@@V?$allocator@D@2@@std@@V?$weak_ptr@VRawImageData@@@2@@std@@PAX@std@@@std@@@std@@QAE@XZ 00400000     Player.obj
 0002:fffbe000       __ehfuncinfo$??1RawImageData@@QAE@XZ 00400000     Player.obj
 0002:fffbe000       __ehfuncinfo$??1_Sentry_base@?$basic_ostream@DU?$char_traits@D@std@@@std@@QAE@XZ 00400000     Player.obj
 0002:fffbe000       __ehfuncinfo$??1sentry@?$basic_ostream@DU?$char_traits@D@std@@@std@@QAE@XZ 00400000     Player.obj
 0002:fffbe000       __ehfuncinfo$?_Take_contents@?$basic_string@DU?$char_traits@D@std@@V?$allocator@D@2@@std@@AAEXAAV12@@Z 00400000     Player.obj
 0002:fffbe000       __ehfuncinfo$?_Tidy_deallocate@?$basic_string@DU?$char_traits@D@std@@V?$allocator@D@2@@std@@AAEXXZ 00400000     Player.obj
 0002:fffbe000       __ehfuncinfo$?getImagePtrbyURL@ImageManager@@QAE?AV?$shared_ptr@VRawImageData@@@std@@V?$basic_string@DU?$char_traits@D@std@@V?$allocator@D@2@@3@_N1@Z 00400000     Player.obj
 0001:fffff000       __ehhandler$??$_Deallocate@$07$0A@@std@@YAXPAXI@Z 00400000 f   Player.obj
 0001:fffff000       __ehhandler$??$_Deallocate_plain@V?$allocator@U_Container_proxy@std@@@std@@@std@@YAXAAV?$allocator@U_Container_proxy@std@@@0@QAU_Container_proxy@0@@Z 00400000 f   Player.obj
 0001:fffff000       __ehhandler$??$_Freenode0@V?$allocator@U?$_Tree_node@U?$pair@$$CBV?$basic_string@DU?$char_traits@D@std@@V?$allocator@D@2@@std@@V?$weak_ptr@VRawImageData@@@2@@std@@PAX@std@@@std@@@?$_Tree_node@U?$pair@$$CBV?$basic_string@DU?$char_traits@D@std@@V?$allocator@D@2@@std@@V?$weak_ptr@VRawImageData@@@2@@std@@PAX@std@@SAXAAV?$allocator@U?$_Tree_node@U?$pair@$$CBV?$basic_string@DU?$char_traits@D@std@@V?$allocator@D@2@@std@@V?$weak_ptr@VRawImageData@@@2@@std@@PAX@std@@@1@PAU01@@Z 00400000 f   Player.obj
 0001:fffff000       __ehhandler$??$_Freenode@V?$allocator@U?$_Tree_node@U?$pair@$$CBV?$basic_string@DU?$char_traits@D@std@@V?$allocator@D@2@@std@@V?$weak_ptr@VRawImageData@@@2@@std@@PAX@std@@@std@@@?$_Tree_node@U?$pair@$$CBV?$basic_string@DU?$char_traits@D@std@@V?$allocator@D@2@@std@@V?$weak_ptr@VRawImageData@@@2@@std@@PAX@std@@SAXAAV?$allocator@U?$_Tree_node@U?$pair@$$CBV?$basic_string@DU?$char_traits@D@std@@V?$allocator@D@2@@std@@V?$weak_ptr@VRawImageData@@@2@@std@@PAX@std@@@1@PAU01@@Z 00400000 f   Player.obj
 0001:fffff000       __ehhandler$??0?$basic_string@DU?$char_traits@D@std@@V?$allocator@D@2@@std@@QAE@$$QAV01@@Z 00400000 f   Player.obj
 0001:fffff000       __ehhandler$??0?$basic_string@DU?$char_traits@D@std@@V?$allocator@D@2@@std@@QAE@XZ 00400000 f   Player.obj
 0001:fffff000       __ehhandler$??1?$_Alloc_construct_ptr@V?$allocator@U?$_Tree_node@U?$pair@$$CBV?$basic_string@DU?$char_traits@D@std@@V?$allocator@D@2@@std@@V?$shared_ptr@VRawImageData@@@2@@std@@PAX@std@@@std@@@std@@QAE@XZ 00400000 f   Player.obj
 0001:fffff000       __ehhandler$??1?$_Alloc_construct_ptr@V?$allocator@U?$_Tree_node@U?$pair@$$CBV?$basic_string@DU?$char_traits@D@std@@V?$allocator@D@2@@std@@V?$weak_ptr@VRawImageData@@@2@@std@@PAX@std@@@std@@@std@@QAE@XZ 00400000 f   Player.obj
 0001:fffff000       __ehhandler$??1?$_Tree_temp_node@V?$allocator@U?$_Tree_node@U?$pair@$$CBV?$basic_string@DU?$char_traits@D@std@@V?$allocator@D@2@@std@@V?$shared_ptr@VRawImageData@@@2@@std@@PAX@std@@@std@@@std@@QAE@XZ 00400000 f   Player.obj
 0001:fffff000       __ehhandler$??1?$_Tree_temp_node@V?$allocator@U?$_Tree_node@U?$pair@$$CBV?$basic_string@DU?$char_traits@D@std@@V?$allocator@D@2@@std@@V?$weak_ptr@VRawImageData@@@2@@std@@PAX@std@@@std@@@std@@QAE@XZ 00400000 f   Player.obj
 0001:fffff000       __ehhandler$??1RawImageData@@QAE@XZ 00400000 f   Player.obj
 0001:fffff000       __ehhandler$??1_Sentry_base@?$basic_ostream@DU?$char_traits@D@std@@@std@@QAE@XZ 00400000 f   Player.obj
 0001:fffff000       __ehhandler$??1sentry@?$basic_ostream@DU?$char_traits@D@std@@@std@@QAE@XZ 00400000 f   Player.obj
 0001:fffff000       __ehhandler$?_Take_contents@?$basic_string@DU?$char_traits@D@std@@V?$allocator@D@2@@std@@AAEXAAV12@@Z 00400000 f   Player.obj
 0001:fffff000       __ehhandler$?_Tidy_deallocate@?$basic_string@DU?$char_traits@D@std@@V?$allocator@D@2@@std@@AAEXXZ 00400000 f   Player.obj
 0001:fffff000       __unwindfunclet$??$?0U?$pair@V?$basic_string@DU?$char_traits@D@std@@V?$allocator@D@2@@std@@V?$shared_ptr@VRawImageData@@@2@@std@@@?$_Tree_temp_node@V?$allocator@U?$_Tree_node@U?$pair@$$CBV?$basic_string@DU?$char_traits@D@std@@V?$allocator@D@2@@std@@V?$shared_ptr@VRawImageData@@@2@@std@@PAX@std@@@std@@@std@@QAE@AAV?$allocator@U?$_Tree_node@U?$pair@$$CBV?$basic_string@DU?$char_traits@D@std@@V?$allocator@D@2@@std@@V?$shared_ptr@VRawImageData@@@2@@std@@PAX@std@@@1@PAU?$_Tree_node@U?$pair@$$CBV?$basic_string@DU?$char_traits@D@std@@V?$allocator@D@2@@std@@V?$shared_ptr@VRawImageData@@@2@@std@@PAX@1@$$QAU?$pair@V?$basic_string@DU?$char_traits@D@std@@V?$allocator@D@2@@std@@V?$shared_ptr@VRawImageData@@@2@@1@@Z$0 00400000 f   Player.obj
 0001:fffff000       __unwindfunclet$??$?0U?$pair@V?$basic_string@DU?$char_traits@D@std@@V?$allocator@D@2@@std@@V?$weak_ptr@VRawImageData@@@2@@std@@@?$_Tree_temp_node@V?$allocator@U?$_Tree_node@U?$pair@$$CBV?$basic_string@DU?$char_traits@D@std@@V?$allocator@D@2@@std@@V?$weak_ptr@VRawImageData@@@2@@std@@PAX@std@@@std@@@std@@QAE@AAV?$allocator@U?$_Tree_node@U?$pair@$$CBV?$basic_string@DU?$char_traits@D@std@@V?$allocator@D@2@@std@@V?$weak_ptr@VRawImageData@@@2@@std@@PAX@std@@@1@PAU?$_Tree_node@U?$pair@$$CBV?$basic_string@DU?$char_traits@D@std@@V?$allocator@D@2@@std@@V?$weak_ptr@VRawImageData@@@2@@std@@PAX@1@$$QAU?$pair@V?$basic_string@DU?$char_traits@D@std@@V?$allocator@D@2@@std@@V?$weak_ptr@VRawImageData@@@2@@1@@Z$0 00400000 f   Player.obj
 0001:fffff000       __unwindfunclet$??$?0VRawImageData@@$0A@@?$shared_ptr@VRawImageData@@@std@@QAE@PAVRawImageData@@@Z$0 00400000 f   Player.obj
 0001:fffff000       __unwindfunclet$??$?6U?$char_traits@D@std@@@std@@YAAAV?$basic_ostream@DU?$char_traits@D@std@@@0@AAV10@PBD@Z$2 00400000 f   Player.obj
 0001:fffff000       __unwindfunclet$??$_Construct@$01PBD@?$basic_string@DU?$char_traits@D@std@@V?$allocator@D@2@@std@@AAEXQBDI@Z$0 00400000 f   Player.obj
 0001:fffff000       __unwindfunclet$??$_Insert_string@DU?$char_traits@D@std@@I@std@@YAAAV?$basic_ostream@DU?$char_traits@D@std@@@0@AAV10@QBDI@Z$2 00400000 f   Player.obj
 0001:fffff000       __unwindfunclet$??0?$_Tree_temp_node_alloc@V?$allocator@U?$_Tree_node@U?$pair@$$CBV?$basic_string@DU?$char_traits@D@std@@V?$allocator@D@2@@std@@V?$shared_ptr@VRawImageData@@@2@@std@@PAX@std@@@std@@@std@@QAE@AAV?$allocator@U?$_Tree_node@U?$pair@$$CBV?$basic_string@DU?$char_traits@D@std@@V?$allocator@D@2@@std@@V?$shared_ptr@VRawImageData@@@2@@std@@PAX@std@@@1@@Z$0 00400000 f   Player.obj
 0001:fffff000       __unwindfunclet$??0?$_Tree_temp_node_alloc@V?$allocator@U?$_Tree_node@U?$pair@$$CBV?$basic_string@DU?$char_traits@D@std@@V?$allocator@D@2@@std@@V?$weak_ptr@VRawImageData@@@2@@std@@PAX@std@@@std@@@std@@QAE@AAV?$allocator@U?$_Tree_node@U?$pair@$$CBV?$basic_string@DU?$char_traits@D@std@@V?$allocator@D@2@@std@@V?$weak_ptr@VRawImageData@@@2@@std@@PAX@std@@@1@@Z$0 00400000 f   Player.obj
 0001:fffff000       __unwindfunclet$??0?$basic_string@DU?$char_traits@D@std@@V?$allocator@D@2@@std@@QAE@ABV01@@Z$0 00400000 f   Player.obj
 0001:fffff000       __unwindfunclet$??0ImageManager@@QAE@XZ$0 00400000 f   Player.obj
 0001:fffff000       __unwindfunclet$??0RawImageData@@QAE@V?$basic_string@DU?$char_traits@D@std@@V?$allocator@D@2@@std@@@Z$0 00400000 f   Player.obj
 0001:fffff000       __unwindfunclet$??0sentry@?$basic_ostream@DU?$char_traits@D@std@@@std@@QAE@AAV12@@Z$0 00400000 f   Player.obj
 0001:fffff000       __unwindfunclet$?_Alloc_sentinel_and_proxy@?$_Tree@V?$_Tmap_traits@V?$basic_string@DU?$char_traits@D@std@@V?$allocator@D@2@@std@@V?$shared_ptr@VRawImageData@@@2@U?$less@V?$basic_string@DU?$char_traits@D@std@@V?$allocator@D@2@@std@@@2@V?$allocator@U?$pair@$$CBV?$basic_string@DU?$char_traits@D@std@@V?$allocator@D@2@@std@@V?$shared_ptr@VRawImageData@@@2@@std@@@2@$0A@@std@@@std@@IAEXXZ$0 00400000 f   Player.obj
 0001:fffff000       __unwindfunclet$?_Alloc_sentinel_and_proxy@?$_Tree@V?$_Tmap_traits@V?$basic_string@DU?$char_traits@D@std@@V?$allocator@D@2@@std@@V?$weak_ptr@VRawImageData@@@2@U?$less@V?$basic_string@DU?$char_traits@D@std@@V?$allocator@D@2@@std@@@2@V?$allocator@U?$pair@$$CBV?$basic_string@DU?$char_traits@D@std@@V?$allocator@D@2@@std@@V?$weak_ptr@VRawImageData@@@2@@std@@@2@$0A@@std@@@std@@IAEXXZ$0 00400000 f   Player.obj
 0001:fffff000       __unwindfunclet$?get@ImageManager@@SAPAV1@XZ$0 00400000 f   Player.obj
 0001:fffff000       __unwindfunclet$?getImagePtrbyURL@ImageManager@@QAE?AV?$shared_ptr@VRawImageData@@@std@@V?$basic_string@DU?$char_traits@D@std@@V?$allocator@D@2@@3@_N1@Z$0 00400000 f   Player.obj
 0001:fffff000       __unwindfunclet$?getImagebyURL@ImageManager@@QAE?AVSimpleImage@@V?$basic_string@DU?$char_traits@D@std@@V?$allocator@D@2@@std@@_N1@Z$0 00400000 f   Player.obj
 0001:fffff000       __unwindfunclet$?loadAsNew@ImageManager@@QAE?AV?$shared_ptr@VRawImageData@@@std@@V?$basic_string@DU?$char_traits@D@std@@V?$allocator@D@2@@3@@Z$0 00400000 f   Player.obj
 0001:fffff000       __unwindfunclet$?loadImage@ImageManager@@SA?AVSimpleImage@@V?$basic_string@DU?$char_traits@D@std@@V?$allocator@D@2@@std@@_N@Z$0 00400000 f   Player.obj
 0001:fffff000       __unwindfunclet$?loadImage@RawImageData@@QAE_NV?$basic_string@DU?$char_traits@D@std@@V?$allocator@D@2@@std@@HHHHH_N@Z$0 00400000 f   Player.obj
 0002:fffbe000       __unwindtable$??$?0U?$pair@V?$basic_string@DU?$char_traits@D@std@@V?$allocator@D@2@@std@@V?$shared_ptr@VRawImageData@@@2@@std@@@?$_Tree_temp_node@V?$allocator@U?$_Tree_node@U?$pair@$$CBV?$basic_string@DU?$char_traits@D@std@@V?$allocator@D@2@@std@@V?$shared_ptr@VRawImageData@@@2@@std@@PAX@std@@@std@@@std@@QAE@AAV?$allocator@U?$_Tree_node@U?$pair@$$CBV?$basic_string@DU?$char_traits@D@std@@V?$allocator@D@2@@std@@V?$shared_ptr@VRawImageData@@@2@@std@@PAX@std@@@1@PAU?$_Tree_node@U?$pair@$$CBV?$basic_string@DU?$char_traits@D@std@@V?$allocator@D@2@@std@@V?$shared_ptr@VRawImageData@@@2@@std@@PAX@1@$$QAU?$pair@V?$basic_string@DU?$char_traits@D@std@@V?$allocator@D@2@@std@@V?$shared_ptr@VRawImageData@@@2@@1@@Z 00400000     Player.obj
 0002:fffbe000       __unwindtable$??$?0U?$pair@V?$basic_string@DU?$char_traits@D@std@@V?$allocator@D@2@@std@@V?$weak_ptr@VRawImageData@@@2@@std@@@?$_Tree_temp_node@V?$allocator@U?$_Tree_node@U?$pair@$$CBV?$basic_string@DU?$char_traits@D@std@@V?$allocator@D@2@@std@@V?$weak_ptr@VRawImageData@@@2@@std@@PAX@std@@@std@@@std@@QAE@AAV?$allocator@U?$_Tree_node@U?$pair@$$CBV?$basic_string@DU?$char_traits@D@std@@V?$allocator@D@2@@std@@V?$weak_ptr@VRawImageData@@@2@@std@@PAX@std@@@1@PAU?$_Tree_node@U?$pair@$$CBV?$basic_string@DU?$char_traits@D@std@@V?$allocator@D@2@@std@@V?$weak_ptr@VRawImageData@@@2@@std@@PAX@1@$$QAU?$pair@V?$basic_string@DU?$char_traits@D@std@@V?$allocator@D@2@@std@@V?$weak_ptr@VRawImageData@@@2@@1@@Z 00400000     Player.obj
 0002:fffbe000       __unwindtable$??$?0VRawImageData@@$0A@@?$shared_ptr@VRawImageData@@@std@@QAE@PAVRawImageData@@@Z 00400000     Player.obj
 0002:fffbe000       __unwindtable$??$_Construct@$01PBD@?$basic_string@DU?$char_traits@D@std@@V?$allocator@D@2@@std@@AAEXQBDI@Z 00400000     Player.obj
 0002:fffbe000       __unwindtable$??0?$_Tree_temp_node_alloc@V?$allocator@U?$_Tree_node@U?$pair@$$CBV?$basic_string@DU?$char_traits@D@std@@V?$allocator@D@2@@std@@V?$shared_ptr@VRawImageData@@@2@@std@@PAX@std@@@std@@@std@@QAE@AAV?$allocator@U?$_Tree_node@U?$pair@$$CBV?$basic_string@DU?$char_traits@D@std@@V?$allocator@D@2@@std@@V?$shared_ptr@VRawImageData@@@2@@std@@PAX@std@@@1@@Z 00400000     Player.obj
 0002:fffbe000       __unwindtable$??0?$_Tree_temp_node_alloc@V?$allocator@U?$_Tree_node@U?$pair@$$CBV?$basic_string@DU?$char_traits@D@std@@V?$allocator@D@2@@std@@V?$weak_ptr@VRawImageData@@@2@@std@@PAX@std@@@std@@@std@@QAE@AAV?$allocator@U?$_Tree_node@U?$pair@$$CBV?$basic_string@DU?$char_traits@D@std@@V?$allocator@D@2@@std@@V?$weak_ptr@VRawImageData@@@2@@std@@PAX@std@@@1@@Z 00400000     Player.obj
 0002:fffbe000       __unwindtable$??0?$basic_string@DU?$char_traits@D@std@@V?$allocator@D@2@@std@@QAE@ABV01@@Z 00400000     Player.obj
 0002:fffbe000       __unwindtable$??0ImageManager@@QAE@XZ 00400000     Player.obj
 0002:fffbe000       __unwindtable$??0RawImageData@@QAE@V?$basic_string@DU?$char_traits@D@std@@V?$allocator@D@2@@std@@@Z 00400000     Player.obj
 0002:fffbe000       __unwindtable$??0sentry@?$basic_ostream@DU?$char_traits@D@std@@@std@@QAE@AAV12@@Z 00400000     Player.obj
 0002:fffbe000       __unwindtable$?_Alloc_sentinel_and_proxy@?$_Tree@V?$_Tmap_traits@V?$basic_string@DU?$char_traits@D@std@@V?$allocator@D@2@@std@@V?$shared_ptr@VRawImageData@@@2@U?$less@V?$basic_string@DU?$char_traits@D@std@@V?$allocator@D@2@@std@@@2@V?$allocator@U?$pair@$$CBV?$basic_string@DU?$char_traits@D@std@@V?$allocator@D@2@@std@@V?$shared_ptr@VRawImageData@@@2@@std@@@2@$0A@@std@@@std@@IAEXXZ 00400000     Player.obj
 0002:fffbe000       __unwindtable$?_Alloc_sentinel_and_proxy@?$_Tree@V?$_Tmap_traits@V?$basic_string@DU?$char_traits@D@std@@V?$allocator@D@2@@std@@V?$weak_ptr@VRawImageData@@@2@U?$less@V?$basic_string@DU?$char_traits@D@std@@V?$allocator@D@2@@std@@@2@V?$allocator@U?$pair@$$CBV?$basic_string@DU?$char_traits@D@std@@V?$allocator@D@2@@std@@V?$weak_ptr@VRawImageData@@@2@@std@@@2@$0A@@std@@@std@@IAEXXZ 00400000     Player.obj
 0002:fffbe000       __unwindtable$?get@ImageManager@@SAPAV1@XZ 00400000     Player.obj
 0002:fffbe000       __unwindtable$?getImagebyURL@ImageManager@@QAE?AVSimpleImage@@V?$basic_string@DU?$char_traits@D@std@@V?$allocator@D@2@@std@@_N1@Z 00400000     Player.obj
 0002:fffbe000       __unwindtable$?loadAsNew@ImageManager@@QAE?AV?$shared_ptr@VRawImageData@@@std@@V?$basic_string@DU?$char_traits@D@std@@V?$allocator@D@2@@3@@Z 00400000     Player.obj
 0002:fffbe000       __unwindtable$?loadImage@ImageManager@@SA?AVSimpleImage@@V?$basic_string@DU?$char_traits@D@std@@V?$allocator@D@2@@std@@_N@Z 00400000     Player.obj
 0002:fffbe000       __unwindtable$?loadImage@RawImageData@@QAE_NV?$basic_string@DU?$char_traits@D@std@@V?$allocator@D@2@@std@@HHHHH_N@Z 00400000     Player.obj
 0000:00000000       _volmd                     00400000     Player.obj
 0000:00000000       _volmd                     00400000     Player.obj
 0000:00000000       _volmd                     00400000     Player.obj
 0000:00000000       _volmd                     00400000     Player.obj
 0000:00000000       _volmd                     00400000     Player.obj
 0000:00000000       _volmd                     00400000     Player.obj
 0000:00000000       _volmd                     00400000     Player.obj
 0000:00000000       _volmd                     00400000     Player.obj
 0000:00000000       _volmd                     00400000     Player.obj
 0000:00000000       _volmd                     00400000     Player.obj
 0000:00000000       _volmd                     00400000     Player.obj
 0000:00000000       _volmd                     00400000     Player.obj
 0000:00000000       _volmd                     00400000     Player.obj
 0000:00000000       _volmd                     00400000     Player.obj
 0000:00000000       _volmd                     00400000     Player.obj
 0000:00000000       _volmd                     00400000     Player.obj
 0000:00000000       _volmd                     00400000     Player.obj
 0000:00000000       _volmd                     00400000     Player.obj
 0000:00000000       _volmd                     00400000     Player.obj
 0000:00000000       _volmd                     00400000     Player.obj
 0000:00000000       _volmd                     00400000     Player.obj
 0000:00000000       _volmd                     00400000     Player.obj
 0000:00000000       _volmd                     00400000     Player.obj
 0000:00000000       _volmd                     00400000     Player.obj
 0000:00000000       _volmd                     00400000     Player.obj
 0000:00000000       _volmd                     00400000     Player.obj
 0000:00000000       _volmd                     00400000     Player.obj
 0000:00000000       _volmd                     00400000     Player.obj
 0000:00000000       _volmd                     00400000     Player.obj
 0000:00000000       _volmd                     00400000     Player.obj
 0000:00000000       _volmd                     00400000     Player.obj
 0000:00000000       _volmd                     00400000     Player.obj
 0000:00000000       _volmd                     00400000     Player.obj
 0000:00000000       _volmd                     00400000     Player.obj
 0000:00000000       _volmd                     00400000     Player.obj
 0000:00000000       _volmd                     00400000     Player.obj
 0000:00000000       _volmd                     00400000     Player.obj
 0000:00000000       _volmd                     00400000     Player.obj
 0002:fffbe000       __ehfuncinfo$??$_Deallocate@$07$0A@@std@@YAXPAXI@Z 00400000     Psydp3Engine.obj
 0002:fffbe000       __ehfuncinfo$??$_Deallocate_plain@V?$allocator@U_Container_proxy@std@@@std@@@std@@YAXAAV?$allocator@U_Container_proxy@std@@@0@QAU_Container_proxy@0@@Z 00400000     Psydp3Engine.obj
 0002:fffbe000       __ehfuncinfo$??0?$basic_string@DU?$char_traits@D@std@@V?$allocator@D@2@@std@@QAE@XZ 00400000     Psydp3Engine.obj
 0002:fffbe000       __ehfuncinfo$?_Tidy_deallocate@?$basic_string@DU?$char_traits@D@std@@V?$allocator@D@2@@std@@AAEXXZ 00400000     Psydp3Engine.obj
 0001:fffff000       __ehhandler$??$_Deallocate@$07$0A@@std@@YAXPAXI@Z 00400000 f   Psydp3Engine.obj
 0001:fffff000       __ehhandler$??$_Deallocate_plain@V?$allocator@U_Container_proxy@std@@@std@@@std@@YAXAAV?$allocator@U_Container_proxy@std@@@0@QAU_Container_proxy@0@@Z 00400000 f   Psydp3Engine.obj
 0001:fffff000       __ehhandler$??0?$basic_string@DU?$char_traits@D@std@@V?$allocator@D@2@@std@@QAE@XZ 00400000 f   Psydp3Engine.obj
 0001:fffff000       __ehhandler$?_Tidy_deallocate@?$basic_string@DU?$char_traits@D@std@@V?$allocator@D@2@@std@@AAEXXZ 00400000 f   Psydp3Engine.obj
 0001:fffff000       __unwindfunclet$??$_Construct@$00PBD@?$basic_string@DU?$char_traits@D@std@@V?$allocator@D@2@@std@@AAEXQBDI@Z$0 00400000 f   Psydp3Engine.obj
 0001:fffff000       __unwindfunclet$??0?$basic_string@DU?$char_traits@D@std@@V?$allocator@D@2@@std@@QAE@QBD@Z$0 00400000 f   Psydp3Engine.obj
 0002:fffbe000       __unwindtable$??$_Construct@$00PBD@?$basic_string@DU?$char_traits@D@std@@V?$allocator@D@2@@std@@AAEXQBDI@Z 00400000     Psydp3Engine.obj
 0002:fffbe000       __unwindtable$??0?$basic_string@DU?$char_traits@D@std@@V?$allocator@D@2@@std@@QAE@QBD@Z 00400000     Psydp3Engine.obj
 0000:00000000       _volmd                     00400000     Psydp3Engine.obj
 0000:00000000       _volmd                     00400000     Psydp3Engine.obj
 0000:00000000       _volmd                     00400000     Psydp3Engine.obj
 0000:00000000       _volmd                     00400000     Psydp3Engine.obj
 0000:00000000       _volmd                     00400000     Psydp3Engine.obj
 0000:00000000       _volmd                     00400000     Psydp3Engine.obj
 0000:00000000       _volmd                     00400000     Psydp3Engine.obj
 0000:00000000       _volmd                     00400000     Psydp3Engine.obj
 0000:00000000       _volmd                     00400000     Psydp3Engine.obj
 0000:00000000       _volmd                     00400000     Psydp3Engine.obj
 0000:00000000       _volmd                     00400000     Psydp3Engine.obj
 0000:00000000       _volmd                     00400000     Psydp3Engine.obj
 0000:00000000       _volmd                     00400000     Psydp3Engine.obj
 0000:00000000       _volmd                     00400000     Psydp3Engine.obj
 0000:00000000       _volmd                     00400000     Psydp3Engine.obj
 0000:00000000       _volmd                     00400000     Psydp3Engine.obj
 0000:00000000       _volmd                     00400000     Psydp3Engine.obj
 0002:fffbe000       __catchsym$??$?6U?$char_traits@D@std@@@std@@YAAAV?$basic_ostream@DU?$char_traits@D@std@@@0@AAV10@PBD@Z$3 00400000     RunningState.obj
 0002:fffbe000       __catchsym$??$_Emplace_reallocate@ABQAVDisplayableObject@@@?$vector@PAVDisplayableObject@@V?$allocator@PAVDisplayableObject@@@std@@@std@@AAEPAPAVDisplayableObject@@QAPAV2@ABQAV2@@Z$2 00400000     RunningState.obj
 0002:fffbe000       __catchsym$??$_Insert_string@DU?$char_traits@D@std@@I@std@@YAAAV?$basic_ostream@DU?$char_traits@D@std@@@0@AAV10@QBDI@Z$3 00400000     RunningState.obj
 0002:fffbe000       __catchsym$??$_Resize_reallocate@U_Value_init_tag@std@@@?$vector@PAVDisplayableObject@@V?$allocator@PAVDisplayableObject@@@std@@@std@@AAEXIABU_Value_init_tag@1@@Z$2 00400000     RunningState.obj
 0002:fffbe000       __ehfuncinfo$??$_Deallocate@$07$0A@@std@@YAXPAXI@Z 00400000     RunningState.obj
 0002:fffbe000       __ehfuncinfo$??$_Deallocate_plain@V?$allocator@U_Container_proxy@std@@@std@@@std@@YAXAAV?$allocator@U_Container_proxy@std@@@0@QAU_Container_proxy@0@@Z 00400000     RunningState.obj
 0002:fffbe000       __ehfuncinfo$??$_Freenode0@V?$allocator@U?$_Tree_node@U?$pair@$$CBV?$basic_string@DU?$char_traits@D@std@@V?$allocator@D@2@@std@@V?$weak_ptr@VRawImageData@@@2@@std@@PAX@std@@@std@@@?$_Tree_node@U?$pair@$$CBV?$basic_string@DU?$char_traits@D@std@@V?$allocator@D@2@@std@@V?$weak_ptr@VRawImageData@@@2@@std@@PAX@std@@SAXAAV?$allocator@U?$_Tree_node@U?$pair@$$CBV?$basic_string@DU?$char_traits@D@std@@V?$allocator@D@2@@std@@V?$weak_ptr@VRawImageData@@@2@@std@@PAX@std@@@1@PAU01@@Z 00400000     RunningState.obj
 0002:fffbe000       __ehfuncinfo$??$_Freenode@V?$allocator@U?$_Tree_node@U?$pair@$$CBV?$basic_string@DU?$char_traits@D@std@@V?$allocator@D@2@@std@@V?$weak_ptr@VRawImageData@@@2@@std@@PAX@std@@@std@@@?$_Tree_node@U?$pair@$$CBV?$basic_string@DU?$char_traits@D@std@@V?$allocator@D@2@@std@@V?$weak_ptr@VRawImageData@@@2@@std@@PAX@std@@SAXAAV?$allocator@U?$_Tree_node@U?$pair@$$CBV?$basic_string@DU?$char_traits@D@std@@V?$allocator@D@2@@std@@V?$weak_ptr@VRawImageData@@@2@@std@@PAX@std@@@1@PAU01@@Z 00400000     RunningState.obj
 0002:fffbe000       __ehfuncinfo$??0?$basic_string@DU?$char_traits@D@std@@V?$allocator@D@2@@std@@QAE@$$QAV01@@Z 00400000     RunningState.obj
 0002:fffbe000       __ehfuncinfo$??1?$_Alloc_construct_ptr@V?$allocator@U?$_Tree_node@U?$pair@$$CBV?$basic_string@DU?$char_traits@D@std@@V?$allocator@D@2@@std@@V?$shared_ptr@VRawImageData@@@2@@std@@PAX@std@@@std@@@std@@QAE@XZ 00400000     RunningState.obj
 0002:fffbe000       __ehfuncinfo$??1?$_Alloc_construct_ptr@V?$allocator@U?$_Tree_node@U?$pair@$$CBV?$basic_string@DU?$char_traits@D@std@@V?$allocator@D@2@@std@@V?$weak_ptr@VRawImageData@@@2@@std@@PAX@std@@@std@@@std@@QAE@XZ 00400000     RunningState.obj
 0002:fffbe000       __ehfuncinfo$??1?$_Tree_temp_node@V?$allocator@U?$_Tree_node@U?$pair@$$CBV?$basic_string@DU?$char_traits@D@std@@V?$allocator@D@2@@std@@V?$shared_ptr@VRawImageData@@@2@@std@@PAX@std@@@std@@@std@@QAE@XZ 00400000     RunningState.obj
 0002:fffbe000       __ehfuncinfo$??1?$_Tree_temp_node@V?$allocator@U?$_Tree_node@U?$pair@$$CBV?$basic_string@DU?$char_traits@D@std@@V?$allocator@D@2@@std@@V?$weak_ptr@VRawImageData@@@2@@std@@PAX@std@@@std@@@std@@QAE@XZ 00400000     RunningState.obj
 0002:fffbe000       __ehfuncinfo$??1RawImageData@@QAE@XZ 00400000     RunningState.obj
 0002:fffbe000       __ehfuncinfo$??1_Sentry_base@?$basic_ostream@DU?$char_traits@D@std@@@std@@QAE@XZ 00400000     RunningState.obj
 0002:fffbe000       __ehfuncinfo$??1sentry@?$basic_ostream@DU?$char_traits@D@std@@@std@@QAE@XZ 00400000     RunningState.obj
 0002:fffbe000       __ehfuncinfo$?_Take_contents@?$basic_string@DU?$char_traits@D@std@@V?$allocator@D@2@@std@@AAEXAAV12@@Z 00400000     RunningState.obj
 0002:fffbe000       __ehfuncinfo$?_Tidy_deallocate@?$basic_string@DU?$char_traits@D@std@@V?$allocator@D@2@@std@@AAEXXZ 00400000     RunningState.obj
 0002:fffbe000       __ehfuncinfo$?getImagePtrbyURL@ImageManager@@QAE?AV?$shared_ptr@VRawImageData@@@std@@V?$basic_string@DU?$char_traits@D@std@@V?$allocator@D@2@@3@_N1@Z 00400000     RunningState.obj
 0001:fffff000       __ehhandler$??$_Deallocate@$07$0A@@std@@YAXPAXI@Z 00400000 f   RunningState.obj
 0001:fffff000       __ehhandler$??$_Deallocate_plain@V?$allocator@U_Container_proxy@std@@@std@@@std@@YAXAAV?$allocator@U_Container_proxy@std@@@0@QAU_Container_proxy@0@@Z 00400000 f   RunningState.obj
 0001:fffff000       __ehhandler$??$_Emplace_reallocate@ABQAVDisplayableObject@@@?$vector@PAVDisplayableObject@@V?$allocator@PAVDisplayableObject@@@std@@@std@@AAEPAPAVDisplayableObject@@QAPAV2@ABQAV2@@Z 00400000 f   RunningState.obj
 0001:fffff000       __ehhandler$??$_Freenode0@V?$allocator@U?$_Tree_node@U?$pair@$$CBV?$basic_string@DU?$char_traits@D@std@@V?$allocator@D@2@@std@@V?$weak_ptr@VRawImageData@@@2@@std@@PAX@std@@@std@@@?$_Tree_node@U?$pair@$$CBV?$basic_string@DU?$char_traits@D@std@@V?$allocator@D@2@@std@@V?$weak_ptr@VRawImageData@@@2@@std@@PAX@std@@SAXAAV?$allocator@U?$_Tree_node@U?$pair@$$CBV?$basic_string@DU?$char_traits@D@std@@V?$allocator@D@2@@std@@V?$weak_ptr@VRawImageData@@@2@@std@@PAX@std@@@1@PAU01@@Z 00400000 f   RunningState.obj
 0001:fffff000       __ehhandler$??$_Freenode@V?$allocator@U?$_Tree_node@U?$pair@$$CBV?$basic_string@DU?$char_traits@D@std@@V?$allocator@D@2@@std@@V?$weak_ptr@VRawImageData@@@2@@std@@PAX@std@@@std@@@?$_Tree_node@U?$pair@$$CBV?$basic_string@DU?$char_traits@D@std@@V?$allocator@D@2@@std@@V?$weak_ptr@VRawImageData@@@2@@std@@PAX@std@@SAXAAV?$allocator@U?$_Tree_node@U?$pair@$$CBV?$basic_string@DU?$char_traits@D@std@@V?$allocator@D@2@@std@@V?$weak_ptr@VRawImageData@@@2@@std@@PAX@std@@@1@PAU01@@Z 00400000 f   RunningState.obj
 0001:fffff000       __ehhandler$??$_Resize_reallocate@U_Value_init_tag@std@@@?$vector@PAVDisplayableObject@@V?$allocator@PAVDisplayableObject@@@std@@@std@@AAEXIABU_Value_init_tag@1@@Z 00400000 f   RunningState.obj
 0001:fffff000       __ehhandler$??0?$basic_string@DU?$char_traits@D@std@@V?$allocator@D@2@@std@@QAE@$$QAV01@@Z 00400000 f   RunningState.obj
 0001:fffff000       __ehhandler$??1?$_Alloc_construct_ptr@V?$allocator@U?$_Tree_node@U?$pair@$$CBV?$basic_string@DU?$char_traits@D@std@@V?$allocator@D@2@@std@@V?$shared_ptr@VRawImageData@@@2@@std@@PAX@std@@@std@@@std@@QAE@XZ 00400000 f   RunningState.obj
 0001:fffff000       __ehhandler$??1?$_Alloc_construct_ptr@V?$allocator@U?$_Tree_node@U?$pair@$$CBV?$basic_string@DU?$char_traits@D@std@@V?$allocator@D@2@@std@@V?$weak_ptr@VRawImageData@@@2@@std@@PAX@std@@@std@@@std@@QAE@XZ 00400000 f   RunningState.obj
 0001:fffff000       __ehhandler$??1?$_Tree_temp_node@V?$allocator@U?$_Tree_node@U?$pair@$$CBV?$basic_string@DU?$char_traits@D@std@@V?$allocator@D@2@@std@@V?$shared_ptr@VRawImageData@@@2@@std@@PAX@std@@@std@@@std@@QAE@XZ 00400000 f   RunningState.obj
 0001:fffff000       __ehhandler$??1?$_Tree_temp_node@V?$allocator@U?$_Tree_node@U?$pair@$$CBV?$basic_string@DU?$char_traits@D@std@@V?$allocator@D@2@@std@@V?$weak_ptr@VRawImageData@@@2@@std@@PAX@std@@@std@@@std@@QAE@XZ 00400000 f   RunningState.obj
 0001:fffff000       __ehhandler$??1RawImageData@@QAE@XZ 00400000 f   RunningState.obj
 0001:fffff000       __ehhandler$??1_Sentry_base@?$basic_ostream@DU?$char_traits@D@std@@@std@@QAE@XZ 00400000 f   RunningState.obj
 0001:fffff000       __ehhandler$??1sentry@?$basic_ostream@DU?$char_traits@D@std@@@std@@QAE@XZ 00400000 f   RunningState.obj
 0001:fffff000       __ehhandler$?_Take_contents@?$basic_string@DU?$char_traits@D@std@@V?$allocator@D@2@@std@@AAEXAAV12@@Z 00400000 f   RunningState.obj
 0001:fffff000       __ehhandler$?_Tidy_deallocate@?$basic_string@DU?$char_traits@D@std@@V?$allocator@D@2@@std@@AAEXXZ 00400000 f   RunningState.obj
 0001:fffff000       __unwindfunclet$??$?0U?$pair@V?$basic_string@DU?$char_traits@D@std@@V?$allocator@D@2@@std@@V?$shared_ptr@VRawImageData@@@2@@std@@@?$_Tree_temp_node@V?$allocator@U?$_Tree_node@U?$pair@$$CBV?$basic_string@DU?$char_traits@D@std@@V?$allocator@D@2@@std@@V?$shared_ptr@VRawImageData@@@2@@std@@PAX@std@@@std@@@std@@QAE@AAV?$allocator@U?$_Tree_node@U?$pair@$$CBV?$basic_string@DU?$char_traits@D@std@@V?$allocator@D@2@@std@@V?$shared_ptr@VRawImageData@@@2@@std@@PAX@std@@@1@PAU?$_Tree_node@U?$pair@$$CBV?$basic_string@DU?$char_traits@D@std@@V?$allocator@D@2@@std@@V?$shared_ptr@VRawImageData@@@2@@std@@PAX@1@$$QAU?$pair@V?$basic_string@DU?$char_traits@D@std@@V?$allocator@D@2@@std@@V?$shared_ptr@VRawImageData@@@2@@1@@Z$0 00400000 f   RunningState.obj
 0001:fffff000       __unwindfunclet$??$?0U?$pair@V?$basic_string@DU?$char_traits@D@std@@V?$allocator@D@2@@std@@V?$weak_ptr@VRawImageData@@@2@@std@@@?$_Tree_temp_node@V?$allocator@U?$_Tree_node@U?$pair@$$CBV?$basic_string@DU?$char_traits@D@std@@V?$allocator@D@2@@std@@V?$weak_ptr@VRawImageData@@@2@@std@@PAX@std@@@std@@@std@@QAE@AAV?$allocator@U?$_Tree_node@U?$pair@$$CBV?$basic_string@DU?$char_traits@D@std@@V?$allocator@D@2@@std@@V?$weak_ptr@VRawImageData@@@2@@std@@PAX@std@@@1@PAU?$_Tree_node@U?$pair@$$CBV?$basic_string@DU?$char_traits@D@std@@V?$allocator@D@2@@std@@V?$weak_ptr@VRawImageData@@@2@@std@@PAX@1@$$QAU?$pair@V?$basic_string@DU?$char_traits@D@std@@V?$allocator@D@2@@std@@V?$weak_ptr@VRawImageData@@@2@@1@@Z$0 00400000 f   RunningState.obj
 0001:fffff000       __unwindfunclet$??$?0VRawImageData@@$0A@@?$shared_ptr@VRawImageData@@@std@@QAE@PAVRawImageData@@@Z$0 00400000 f   RunningState.obj
 0001:fffff000       __unwindfunclet$??$?6U?$char_traits@D@std@@@std@@YAAAV?$basic_ostream@DU?$char_traits@D@std@@@0@AAV10@PBD@Z$2 00400000 f   RunningState.obj
 0001:fffff000       __unwindfunclet$??$_Construct@$00PBD@?$basic_string@DU?$char_traits@D@std@@V?$allocator@D@2@@std@@AAEXQBDI@Z$0 00400000 f   RunningState.obj
 0001:fffff000       __unwindfunclet$??$_Construct@$01PBD@?$basic_string@DU?$char_traits@D@std@@V?$allocator@D@2@@std@@AAEXQBDI@Z$0 00400000 f   RunningState.obj
 0001:fffff000       __unwindfunclet$??$_Insert_string@DU?$char_traits@D@std@@I@std@@YAAAV?$basic_ostream@DU?$char_traits@D@std@@@0@AAV10@QBDI@Z$2 00400000 f   RunningState.obj
 0001:fffff000       __unwindfunclet$??$_Uninitialized_move@PAPAVDisplayableObject@@V?$allocator@PAVDisplayableObject@@@std@@@std@@YAPAPAVDisplayableObject@@QAPAV1@0PAPAV1@AAV?$allocator@PAVDisplayableObject@@@0@@Z$0 00400000 f   RunningState.obj
 0001:fffff000       __unwindfunclet$??$_Uninitialized_value_construct_n@V?$allocator@PAVDisplayableObject@@@std@@@std@@YAPAPAVDisplayableObject@@PAPAV1@IAAV?$allocator@PAVDisplayableObject@@@0@@Z$0 00400000 f   RunningState.obj
 0001:fffff000       __unwindfunclet$??0?$_Tree_temp_node_alloc@V?$allocator@U?$_Tree_node@U?$pair@$$CBV?$basic_string@DU?$char_traits@D@std@@V?$allocator@D@2@@std@@V?$shared_ptr@VRawImageData@@@2@@std@@PAX@std@@@std@@@std@@QAE@AAV?$allocator@U?$_Tree_node@U?$pair@$$CBV?$basic_string@DU?$char_traits@D@std@@V?$allocator@D@2@@std@@V?$shared_ptr@VRawImageData@@@2@@std@@PAX@std@@@1@@Z$0 00400000 f   RunningState.obj
 0001:fffff000       __unwindfunclet$??0?$_Tree_temp_node_alloc@V?$allocator@U?$_Tree_node@U?$pair@$$CBV?$basic_string@DU?$char_traits@D@std@@V?$allocator@D@2@@std@@V?$weak_ptr@VRawImageData@@@2@@std@@PAX@std@@@std@@@std@@QAE@AAV?$allocator@U?$_Tree_node@U?$pair@$$CBV?$basic_string@DU?$char_traits@D@std@@V?$allocator@D@2@@std@@V?$weak_ptr@VRawImageData@@@2@@std@@PAX@std@@@1@@Z$0 00400000 f   RunningState.obj
 0001:fffff000       __unwindfunclet$??0?$basic_string@DU?$char_traits@D@std@@V?$allocator@D@2@@std@@QAE@ABV01@@Z$0 00400000 f   RunningState.obj
 0001:fffff000       __unwindfunclet$??0?$basic_string@DU?$char_traits@D@std@@V?$allocator@D@2@@std@@QAE@QBD@Z$0 00400000 f   RunningState.obj
 0001:fffff000       __unwindfunclet$??0GameObject@@QAE@HHPAVBaseEngine@@HH_N@Z$0 00400000 f   RunningState.obj
 0001:fffff000       __unwindfunclet$??0ImageManager@@QAE@XZ$0 00400000 f   RunningState.obj
 0001:fffff000       __unwindfunclet$??0RawImageData@@QAE@V?$basic_string@DU?$char_traits@D@std@@V?$allocator@D@2@@std@@@Z$0 00400000 f   RunningState.obj
 0001:fffff000       __unwindfunclet$??0sentry@?$basic_ostream@DU?$char_traits@D@std@@@std@@QAE@AAV12@@Z$0 00400000 f   RunningState.obj
 0001:fffff000       __unwindfunclet$?_Alloc_sentinel_and_proxy@?$_Tree@V?$_Tmap_traits@V?$basic_string@DU?$char_traits@D@std@@V?$allocator@D@2@@std@@V?$shared_ptr@VRawImageData@@@2@U?$less@V?$basic_string@DU?$char_traits@D@std@@V?$allocator@D@2@@std@@@2@V?$allocator@U?$pair@$$CBV?$basic_string@DU?$char_traits@D@std@@V?$allocator@D@2@@std@@V?$shared_ptr@VRawImageData@@@2@@std@@@2@$0A@@std@@@std@@IAEXXZ$0 00400000 f   RunningState.obj
 0001:fffff000       __unwindfunclet$?_Alloc_sentinel_and_proxy@?$_Tree@V?$_Tmap_traits@V?$basic_string@DU?$char_traits@D@std@@V?$allocator@D@2@@std@@V?$weak_ptr@VRawImageData@@@2@U?$less@V?$basic_string@DU?$char_traits@D@std@@V?$allocator@D@2@@std@@@2@V?$allocator@U?$pair@$$CBV?$basic_string@DU?$char_traits@D@std@@V?$allocator@D@2@@std@@V?$weak_ptr@VRawImageData@@@2@@std@@@2@$0A@@std@@@std@@IAEXXZ$0 00400000 f   RunningState.obj
 0001:fffff000       __unwindfunclet$?_Orphan_range_locked@?$vector@PAVDisplayableObject@@V?$allocator@PAVDisplayableObject@@@std@@@std@@ABEXPAPAVDisplayableObject@@0@Z$0 00400000 f   RunningState.obj
 0001:fffff000       __unwindfunclet$?get@ImageManager@@SAPAV1@XZ$0 00400000 f   RunningState.obj
 0001:fffff000       __unwindfunclet$?getImagePtrbyURL@ImageManager@@QAE?AV?$shared_ptr@VRawImageData@@@std@@V?$basic_string@DU?$char_traits@D@std@@V?$allocator@D@2@@3@_N1@Z$0 00400000 f   RunningState.obj
 0001:fffff000       __unwindfunclet$?getImagebyURL@ImageManager@@QAE?AVSimpleImage@@V?$basic_string@DU?$char_traits@D@std@@V?$allocator@D@2@@std@@_N1@Z$0 00400000 f   RunningState.obj
 0001:fffff000       __unwindfunclet$?loadAsNew@ImageManager@@QAE?AV?$shared_ptr@VRawImageData@@@std@@V?$basic_string@DU?$char_traits@D@std@@V?$allocator@D@2@@3@@Z$0 00400000 f   RunningState.obj
 0001:fffff000       __unwindfunclet$?loadImage@ImageManager@@SA?AVSimpleImage@@V?$basic_string@DU?$char_traits@D@std@@V?$allocator@D@2@@std@@_N@Z$0 00400000 f   RunningState.obj
 0001:fffff000       __unwindfunclet$?loadImage@RawImageData@@QAE_NV?$basic_string@DU?$char_traits@D@std@@V?$allocator@D@2@@std@@HHHHH_N@Z$0 00400000 f   RunningState.obj
 0002:fffbe000       __unwindtable$??$?0U?$pair@V?$basic_string@DU?$char_traits@D@std@@V?$allocator@D@2@@std@@V?$shared_ptr@VRawImageData@@@2@@std@@@?$_Tree_temp_node@V?$allocator@U?$_Tree_node@U?$pair@$$CBV?$basic_string@DU?$char_traits@D@std@@V?$allocator@D@2@@std@@V?$shared_ptr@VRawImageData@@@2@@std@@PAX@std@@@std@@@std@@QAE@AAV?$allocator@U?$_Tree_node@U?$pair@$$CBV?$basic_string@DU?$char_traits@D@std@@V?$allocator@D@2@@std@@V?$shared_ptr@VRawImageData@@@2@@std@@PAX@std@@@1@PAU?$_Tree_node@U?$pair@$$CBV?$basic_string@DU?$char_traits@D@std@@V?$allocator@D@2@@std@@V?$shared_ptr@VRawImageData@@@2@@std@@PAX@1@$$QAU?$pair@V?$basic_string@DU?$char_traits@D@std@@V?$allocator@D@2@@std@@V?$shared_ptr@VRawImageData@@@2@@1@@Z 00400000     RunningState.obj
 0002:fffbe000       __unwindtable$??$?0U?$pair@V?$basic_string@DU?$char_traits@D@std@@V?$allocator@D@2@@std@@V?$weak_ptr@VRawImageData@@@2@@std@@@?$_Tree_temp_node@V?$allocator@U?$_Tree_node@U?$pair@$$CBV?$basic_string@DU?$char_traits@D@std@@V?$allocator@D@2@@std@@V?$weak_ptr@VRawImageData@@@2@@std@@PAX@std@@@std@@@std@@QAE@AAV?$allocator@U?$_Tree_node@U?$pair@$$CBV?$basic_string@DU?$char_traits@D@std@@V?$allocator@D@2@@std@@V?$weak_ptr@VRawImageData@@@2@@std@@PAX@std@@@1@PAU?$_Tree_node@U?$pair@$$CBV?$basic_string@DU?$char_traits@D@std@@V?$allocator@D@2@@std@@V?$weak_ptr@VRawImageData@@@2@@std@@PAX@1@$$QAU?$pair@V?$basic_string@DU?$char_traits@D@std@@V?$allocator@D@2@@std@@V?$weak_ptr@VRawImageData@@@2@@1@@Z 00400000     RunningState.obj
 0002:fffbe000       __unwindtable$??$?0VRawImageData@@$0A@@?$shared_ptr@VRawImageData@@@std@@QAE@PAVRawImageData@@@Z 00400000     RunningState.obj
 0002:fffbe000       __unwindtable$??$_Construct@$00PBD@?$basic_string@DU?$char_traits@D@std@@V?$allocator@D@2@@std@@AAEXQBDI@Z 00400000     RunningState.obj
 0002:fffbe000       __unwindtable$??$_Construct@$01PBD@?$basic_string@DU?$char_traits@D@std@@V?$allocator@D@2@@std@@AAEXQBDI@Z 00400000     RunningState.obj
 0002:fffbe000       __unwindtable$??$_Uninitialized_move@PAPAVDisplayableObject@@V?$allocator@PAVDisplayableObject@@@std@@@std@@YAPAPAVDisplayableObject@@QAPAV1@0PAPAV1@AAV?$allocator@PAVDisplayableObject@@@0@@Z 00400000     RunningState.obj
 0002:fffbe000       __unwindtable$??$_Uninitialized_value_construct_n@V?$allocator@PAVDisplayableObject@@@std@@@std@@YAPAPAVDisplayableObject@@PAPAV1@IAAV?$allocator@PAVDisplayableObject@@@0@@Z 00400000     RunningState.obj
 0002:fffbe000       __unwindtable$??0?$_Tree_temp_node_alloc@V?$allocator@U?$_Tree_node@U?$pair@$$CBV?$basic_string@DU?$char_traits@D@std@@V?$allocator@D@2@@std@@V?$shared_ptr@VRawImageData@@@2@@std@@PAX@std@@@std@@@std@@QAE@AAV?$allocator@U?$_Tree_node@U?$pair@$$CBV?$basic_string@DU?$char_traits@D@std@@V?$allocator@D@2@@std@@V?$shared_ptr@VRawImageData@@@2@@std@@PAX@std@@@1@@Z 00400000     RunningState.obj
 0002:fffbe000       __unwindtable$??0?$_Tree_temp_node_alloc@V?$allocator@U?$_Tree_node@U?$pair@$$CBV?$basic_string@DU?$char_traits@D@std@@V?$allocator@D@2@@std@@V?$weak_ptr@VRawImageData@@@2@@std@@PAX@std@@@std@@@std@@QAE@AAV?$allocator@U?$_Tree_node@U?$pair@$$CBV?$basic_string@DU?$char_traits@D@std@@V?$allocator@D@2@@std@@V?$weak_ptr@VRawImageData@@@2@@std@@PAX@std@@@1@@Z 00400000     RunningState.obj
 0002:fffbe000       __unwindtable$??0?$basic_string@DU?$char_traits@D@std@@V?$allocator@D@2@@std@@QAE@ABV01@@Z 00400000     RunningState.obj
 0002:fffbe000       __unwindtable$??0?$basic_string@DU?$char_traits@D@std@@V?$allocator@D@2@@std@@QAE@QBD@Z 00400000     RunningState.obj
 0002:fffbe000       __unwindtable$??0GameObject@@QAE@HHPAVBaseEngine@@HH_N@Z 00400000     RunningState.obj
 0002:fffbe000       __unwindtable$??0ImageManager@@QAE@XZ 00400000     RunningState.obj
 0002:fffbe000       __unwindtable$??0RawImageData@@QAE@V?$basic_string@DU?$char_traits@D@std@@V?$allocator@D@2@@std@@@Z 00400000     RunningState.obj
 0002:fffbe000       __unwindtable$??0sentry@?$basic_ostream@DU?$char_traits@D@std@@@std@@QAE@AAV12@@Z 00400000     RunningState.obj
 0002:fffbe000       __unwindtable$?_Alloc_sentinel_and_proxy@?$_Tree@V?$_Tmap_traits@V?$basic_string@DU?$char_traits@D@std@@V?$allocator@D@2@@std@@V?$shared_ptr@VRawImageData@@@2@U?$less@V?$basic_string@DU?$char_traits@D@std@@V?$allocator@D@2@@std@@@2@V?$allocator@U?$pair@$$CBV?$basic_string@DU?$char_traits@D@std@@V?$allocator@D@2@@std@@V?$shared_ptr@VRawImageData@@@2@@std@@@2@$0A@@std@@@std@@IAEXXZ 00400000     RunningState.obj
 0002:fffbe000       __unwindtable$?_Alloc_sentinel_and_proxy@?$_Tree@V?$_Tmap_traits@V?$basic_string@DU?$char_traits@D@std@@V?$allocator@D@2@@std@@V?$weak_ptr@VRawImageData@@@2@U?$less@V?$basic_string@DU?$char_traits@D@std@@V?$allocator@D@2@@std@@@2@V?$allocator@U?$pair@$$CBV?$basic_string@DU?$char_traits@D@std@@V?$allocator@D@2@@std@@V?$weak_ptr@VRawImageData@@@2@@std@@@2@$0A@@std@@@std@@IAEXXZ 00400000     RunningState.obj
 0002:fffbe000       __unwindtable$?_Orphan_range_locked@?$vector@PAVDisplayableObject@@V?$allocator@PAVDisplayableObject@@@std@@@std@@ABEXPAPAVDisplayableObject@@0@Z 00400000     RunningState.obj
 0002:fffbe000       __unwindtable$?get@ImageManager@@SAPAV1@XZ 00400000     RunningState.obj
 0002:fffbe000       __unwindtable$?getImagebyURL@ImageManager@@QAE?AVSimpleImage@@V?$basic_string@DU?$char_traits@D@std@@V?$allocator@D@2@@std@@_N1@Z 00400000     RunningState.obj
 0002:fffbe000       __unwindtable$?loadAsNew@ImageManager@@QAE?AV?$shared_ptr@VRawImageData@@@std@@V?$basic_string@DU?$char_traits@D@std@@V?$allocator@D@2@@3@@Z 00400000     RunningState.obj
 0002:fffbe000       __unwindtable$?loadImage@ImageManager@@SA?AVSimpleImage@@V?$basic_string@DU?$char_traits@D@std@@V?$allocator@D@2@@std@@_N@Z 00400000     RunningState.obj
 0002:fffbe000       __unwindtable$?loadImage@RawImageData@@QAE_NV?$basic_string@DU?$char_traits@D@std@@V?$allocator@D@2@@std@@HHHHH_N@Z 00400000     RunningState.obj
 0000:00000000       _volmd                     00400000     RunningState.obj
 0000:00000000       _volmd                     00400000     RunningState.obj
 0000:00000000       _volmd                     00400000     RunningState.obj
 0000:00000000       _volmd                     00400000     RunningState.obj
 0000:00000000       _volmd                     00400000     RunningState.obj
 0000:00000000       _volmd                     00400000     RunningState.obj
 0000:00000000       _volmd                     00400000     RunningState.obj
 0000:00000000       _volmd                     00400000     RunningState.obj
 0000:00000000       _volmd                     00400000     RunningState.obj
 0000:00000000       _volmd                     00400000     RunningState.obj
 0000:00000000       _volmd                     00400000     RunningState.obj
 0000:00000000       _volmd                     00400000     RunningState.obj
 0000:00000000       _volmd                     00400000     RunningState.obj
 0000:00000000       _volmd                     00400000     RunningState.obj
 0000:00000000       _volmd                     00400000     RunningState.obj
 0000:00000000       _volmd                     00400000     RunningState.obj
 0000:00000000       _volmd                     00400000     RunningState.obj
 0000:00000000       _volmd                     00400000     RunningState.obj
 0000:00000000       _volmd                     00400000     RunningState.obj
 0000:00000000       _volmd                     00400000     RunningState.obj
 0000:00000000       _volmd                     00400000     RunningState.obj
 0000:00000000       _volmd                     00400000     RunningState.obj
 0000:00000000       _volmd                     00400000     RunningState.obj
 0000:00000000       _volmd                     00400000     RunningState.obj
 0000:00000000       _volmd                     00400000     RunningState.obj
 0000:00000000       _volmd                     00400000     RunningState.obj
 0000:00000000       _volmd                     00400000     RunningState.obj
 0000:00000000       _volmd                     00400000     RunningState.obj
 0000:00000000       _volmd                     00400000     RunningState.obj
 0000:00000000       _volmd                     00400000     RunningState.obj
 0000:00000000       _volmd                     00400000     RunningState.obj
 0000:00000000       _volmd                     00400000     RunningState.obj
 0000:00000000       _volmd                     00400000     RunningState.obj
 0000:00000000       _volmd                     00400000     RunningState.obj
 0000:00000000       _volmd                     00400000     RunningState.obj
 0000:00000000       _volmd                     00400000     RunningState.obj
 0000:00000000       _volmd                     00400000     RunningState.obj
 0000:00000000       _volmd                     00400000     RunningState.obj
 0000:00000000       _volmd                     00400000     RunningState.obj
 0000:00000000       _volmd                     00400000     RunningState.obj
 0000:00000000       _volmd                     00400000     RunningState.obj
 0000:00000000       _volmd                     00400000     RunningState.obj
 0000:00000000       _volmd                     00400000     RunningState.obj
 0000:00000000       _volmd                     00400000     RunningState.obj
 0000:00000000       _volmd                     00400000     RunningState.obj
 0000:00000000       _volmd                     00400000     RunningState.obj
 0000:00000000       _volmd                     00400000     RunningState.obj
 0000:00000000       _volmd                     00400000     RunningState.obj
 0000:00000000       _volmd                     00400000     RunningState.obj
 0002:fffbe000       __catchsym$??$?6U?$char_traits@D@std@@@std@@YAAAV?$basic_ostream@DU?$char_traits@D@std@@@0@AAV10@PBD@Z$3 00400000     SimpleDemo.obj
 0002:fffbe000       __catchsym$??$_Emplace_reallocate@ABQAVDisplayableObject@@@?$vector@PAVDisplayableObject@@V?$allocator@PAVDisplayableObject@@@std@@@std@@AAEPAPAVDisplayableObject@@QAPAV2@ABQAV2@@Z$2 00400000     SimpleDemo.obj
 0002:fffbe000       __catchsym$??$_Resize_reallocate@U_Value_init_tag@std@@@?$vector@PAVDisplayableObject@@V?$allocator@PAVDisplayableObject@@@std@@@std@@AAEXIABU_Value_init_tag@1@@Z$2 00400000     SimpleDemo.obj
 0002:fffbe000       __ehfuncinfo$??$_Deallocate@$07$0A@@std@@YAXPAXI@Z 00400000     SimpleDemo.obj
 0002:fffbe000       __ehfuncinfo$??1_Sentry_base@?$basic_ostream@DU?$char_traits@D@std@@@std@@QAE@XZ 00400000     SimpleDemo.obj
 0002:fffbe000       __ehfuncinfo$??1sentry@?$basic_ostream@DU?$char_traits@D@std@@@std@@QAE@XZ 00400000     SimpleDemo.obj
 0001:fffff000       __ehhandler$??$_Deallocate@$07$0A@@std@@YAXPAXI@Z 00400000 f   SimpleDemo.obj
 0001:fffff000       __ehhandler$??$_Emplace_reallocate@ABQAVDisplayableObject@@@?$vector@PAVDisplayableObject@@V?$allocator@PAVDisplayableObject@@@std@@@std@@AAEPAPAVDisplayableObject@@QAPAV2@ABQAV2@@Z 00400000 f   SimpleDemo.obj
 0001:fffff000       __ehhandler$??$_Resize_reallocate@U_Value_init_tag@std@@@?$vector@PAVDisplayableObject@@V?$allocator@PAVDisplayableObject@@@std@@@std@@AAEXIABU_Value_init_tag@1@@Z 00400000 f   SimpleDemo.obj
 0001:fffff000       __ehhandler$??1_Sentry_base@?$basic_ostream@DU?$char_traits@D@std@@@std@@QAE@XZ 00400000 f   SimpleDemo.obj
 0001:fffff000       __ehhandler$??1sentry@?$basic_ostream@DU?$char_traits@D@std@@@std@@QAE@XZ 00400000 f   SimpleDemo.obj
 0001:fffff000       __unwindfunclet$??$?6U?$char_traits@D@std@@@std@@YAAAV?$basic_ostream@DU?$char_traits@D@std@@@0@AAV10@PBD@Z$2 00400000 f   SimpleDemo.obj
 0001:fffff000       __unwindfunclet$??$_Uninitialized_move@PAPAVDisplayableObject@@V?$allocator@PAVDisplayableObject@@@std@@@std@@YAPAPAVDisplayableObject@@QAPAV1@0PAPAV1@AAV?$allocator@PAVDisplayableObject@@@0@@Z$0 00400000 f   SimpleDemo.obj
 0001:fffff000       __unwindfunclet$??$_Uninitialized_value_construct_n@V?$allocator@PAVDisplayableObject@@@std@@@std@@YAPAPAVDisplayableObject@@PAPAV1@IAAV?$allocator@PAVDisplayableObject@@@0@@Z$0 00400000 f   SimpleDemo.obj
 0001:fffff000       __unwindfunclet$??0sentry@?$basic_ostream@DU?$char_traits@D@std@@@std@@QAE@AAV12@@Z$0 00400000 f   SimpleDemo.obj
 0001:fffff000       __unwindfunclet$?_Orphan_range_locked@?$vector@PAVDisplayableObject@@V?$allocator@PAVDisplayableObject@@@std@@@std@@ABEXPAPAVDisplayableObject@@0@Z$0 00400000 f   SimpleDemo.obj
 0002:fffbe000       __unwindtable$??$_Uninitialized_move@PAPAVDisplayableObject@@V?$allocator@PAVDisplayableObject@@@std@@@std@@YAPAPAVDisplayableObject@@QAPAV1@0PAPAV1@AAV?$allocator@PAVDisplayableObject@@@0@@Z 00400000     SimpleDemo.obj
 0002:fffbe000       __unwindtable$??$_Uninitialized_value_construct_n@V?$allocator@PAVDisplayableObject@@@std@@@std@@YAPAPAVDisplayableObject@@PAPAV1@IAAV?$allocator@PAVDisplayableObject@@@0@@Z 00400000     SimpleDemo.obj
 0002:fffbe000       __unwindtable$??0sentry@?$basic_ostream@DU?$char_traits@D@std@@@std@@QAE@AAV12@@Z 00400000     SimpleDemo.obj
 0002:fffbe000       __unwindtable$?_Orphan_range_locked@?$vector@PAVDisplayableObject@@V?$allocator@PAVDisplayableObject@@@std@@@std@@ABEXPAPAVDisplayableObject@@0@Z 00400000     SimpleDemo.obj
 0000:00000000       _volmd                     00400000     SimpleDemo.obj
 0000:00000000       _volmd                     00400000     SimpleDemo.obj
 0000:00000000       _volmd                     00400000     SimpleDemo.obj
 0000:00000000       _volmd                     00400000     SimpleDemo.obj
 0000:00000000       _volmd                     00400000     SimpleDemo.obj
 0000:00000000       _volmd                     00400000     SimpleDemo.obj
 0000:00000000       _volmd                     00400000     SimpleDemo.obj
 0000:00000000       _volmd                     00400000     SimpleDemo.obj
 0000:00000000       _volmd                     00400000     SimpleDemo.obj
 0000:00000000       _volmd                     00400000     SimpleDemo.obj
 0000:00000000       _volmd                     00400000     SimpleDemo.obj
 0000:00000000       _volmd                     00400000     SimpleDemo.obj
 0002:fffbe000       __catchsym$??$?6U?$char_traits@D@std@@@std@@YAAAV?$basic_ostream@DU?$char_traits@D@std@@@0@AAV10@PBD@Z$3 00400000     SimpleImage.obj
 0002:fffbe000       __ehfuncinfo$??1_Sentry_base@?$basic_ostream@DU?$char_traits@D@std@@@std@@QAE@XZ 00400000     SimpleImage.obj
 0002:fffbe000       __ehfuncinfo$??1sentry@?$basic_ostream@DU?$char_traits@D@std@@@std@@QAE@XZ 00400000     SimpleImage.obj
 0001:fffff000       __ehhandler$??1_Sentry_base@?$basic_ostream@DU?$char_traits@D@std@@@std@@QAE@XZ 00400000 f   SimpleImage.obj
 0001:fffff000       __ehhandler$??1sentry@?$basic_ostream@DU?$char_traits@D@std@@@std@@QAE@XZ 00400000 f   SimpleImage.obj
 0001:fffff000       __unwindfunclet$??$?6U?$char_traits@D@std@@@std@@YAAAV?$basic_ostream@DU?$char_traits@D@std@@@0@AAV10@PBD@Z$2 00400000 f   SimpleImage.obj
 0001:fffff000       __unwindfunclet$??0sentry@?$basic_ostream@DU?$char_traits@D@std@@@std@@QAE@AAV12@@Z$0 00400000 f   SimpleImage.obj
 0002:fffbe000       __unwindtable$??0sentry@?$basic_ostream@DU?$char_traits@D@std@@@std@@QAE@AAV12@@Z 00400000     SimpleImage.obj
 0000:00000000       _volmd                     00400000     SimpleImage.obj
 0000:00000000       _volmd                     00400000     SimpleImage.obj
 0000:00000000       _volmd                     00400000     SimpleImage.obj
 0000:00000000       _volmd                     00400000     SimpleImage.obj
 0000:00000000       _volmd                     00400000     SimpleImage.obj
 0002:fffbe000       __catchsym$??$?6U?$char_traits@D@std@@@std@@YAAAV?$basic_ostream@DU?$char_traits@D@std@@@0@AAV10@PBD@Z$3 00400000     StarfieldDemo.obj
 0002:fffbe000       __ehfuncinfo$??1_Sentry_base@?$basic_ostream@DU?$char_traits@D@std@@@std@@QAE@XZ 00400000     StarfieldDemo.obj
 0002:fffbe000       __ehfuncinfo$??1sentry@?$basic_ostream@DU?$char_traits@D@std@@@std@@QAE@XZ 00400000     StarfieldDemo.obj
 0001:fffff000       __ehhandler$??1_Sentry_base@?$basic_ostream@DU?$char_traits@D@std@@@std@@QAE@XZ 00400000 f   StarfieldDemo.obj
 0001:fffff000       __ehhandler$??1sentry@?$basic_ostream@DU?$char_traits@D@std@@@std@@QAE@XZ 00400000 f   StarfieldDemo.obj
 0001:fffff000       __unwindfunclet$??$?6U?$char_traits@D@std@@@std@@YAAAV?$basic_ostream@DU?$char_traits@D@std@@@0@AAV10@PBD@Z$2 00400000 f   StarfieldDemo.obj
 0001:fffff000       __unwindfunclet$??0sentry@?$basic_ostream@DU?$char_traits@D@std@@@std@@QAE@AAV12@@Z$0 00400000 f   StarfieldDemo.obj
 0002:fffbe000       __unwindtable$??0sentry@?$basic_ostream@DU?$char_traits@D@std@@@std@@QAE@AAV12@@Z 00400000     StarfieldDemo.obj
 0000:00000000       _volmd                     00400000     StarfieldDemo.obj
 0000:00000000       _volmd                     00400000     StarfieldDemo.obj
 0000:00000000       _volmd                     00400000     StarfieldDemo.obj
 0000:00000000       _volmd                     00400000     StarfieldDemo.obj
 0000:00000000       _volmd                     00400000     StarfieldDemo.obj
 0002:fffbe000       __catchsym$??$?6U?$char_traits@D@std@@@std@@YAAAV?$basic_ostream@DU?$char_traits@D@std@@@0@AAV10@PBD@Z$3 00400000     StartupState.obj
 0002:fffbe000       __catchsym$??$_Insert_string@DU?$char_traits@D@std@@I@std@@YAAAV?$basic_ostream@DU?$char_traits@D@std@@@0@AAV10@QBDI@Z$3 00400000     StartupState.obj
 0002:fffbe000       __catchsym$??$_Resize_reallocate@U_Value_init_tag@std@@@?$vector@PAVDisplayableObject@@V?$allocator@PAVDisplayableObject@@@std@@@std@@AAEXIABU_Value_init_tag@1@@Z$2 00400000     StartupState.obj
 0002:fffbe000       __ehfuncinfo$??$_Deallocate@$07$0A@@std@@YAXPAXI@Z 00400000     StartupState.obj
 0002:fffbe000       __ehfuncinfo$??$_Deallocate_plain@V?$allocator@U_Container_proxy@std@@@std@@@std@@YAXAAV?$allocator@U_Container_proxy@std@@@0@QAU_Container_proxy@0@@Z 00400000     StartupState.obj
 0002:fffbe000       __ehfuncinfo$??$_Freenode0@V?$allocator@U?$_Tree_node@U?$pair@$$CBV?$basic_string@DU?$char_traits@D@std@@V?$allocator@D@2@@std@@V?$weak_ptr@VRawImageData@@@2@@std@@PAX@std@@@std@@@?$_Tree_node@U?$pair@$$CBV?$basic_string@DU?$char_traits@D@std@@V?$allocator@D@2@@std@@V?$weak_ptr@VRawImageData@@@2@@std@@PAX@std@@SAXAAV?$allocator@U?$_Tree_node@U?$pair@$$CBV?$basic_string@DU?$char_traits@D@std@@V?$allocator@D@2@@std@@V?$weak_ptr@VRawImageData@@@2@@std@@PAX@std@@@1@PAU01@@Z 00400000     StartupState.obj
 0002:fffbe000       __ehfuncinfo$??$_Freenode@V?$allocator@U?$_Tree_node@U?$pair@$$CBV?$basic_string@DU?$char_traits@D@std@@V?$allocator@D@2@@std@@V?$weak_ptr@VRawImageData@@@2@@std@@PAX@std@@@std@@@?$_Tree_node@U?$pair@$$CBV?$basic_string@DU?$char_traits@D@std@@V?$allocator@D@2@@std@@V?$weak_ptr@VRawImageData@@@2@@std@@PAX@std@@SAXAAV?$allocator@U?$_Tree_node@U?$pair@$$CBV?$basic_string@DU?$char_traits@D@std@@V?$allocator@D@2@@std@@V?$weak_ptr@VRawImageData@@@2@@std@@PAX@std@@@1@PAU01@@Z 00400000     StartupState.obj
 0002:fffbe000       __ehfuncinfo$??0?$basic_string@DU?$char_traits@D@std@@V?$allocator@D@2@@std@@QAE@$$QAV01@@Z 00400000     StartupState.obj
 0002:fffbe000       __ehfuncinfo$??0?$basic_string@DU?$char_traits@D@std@@V?$allocator@D@2@@std@@QAE@XZ 00400000     StartupState.obj
 0002:fffbe000       __ehfuncinfo$??1?$_Alloc_construct_ptr@V?$allocator@U?$_Tree_node@U?$pair@$$CBV?$basic_string@DU?$char_traits@D@std@@V?$allocator@D@2@@std@@V?$shared_ptr@VRawImageData@@@2@@std@@PAX@std@@@std@@@std@@QAE@XZ 00400000     StartupState.obj
 0002:fffbe000       __ehfuncinfo$??1?$_Alloc_construct_ptr@V?$allocator@U?$_Tree_node@U?$pair@$$CBV?$basic_string@DU?$char_traits@D@std@@V?$allocator@D@2@@std@@V?$weak_ptr@VRawImageData@@@2@@std@@PAX@std@@@std@@@std@@QAE@XZ 00400000     StartupState.obj
 0002:fffbe000       __ehfuncinfo$??1?$_Tree_temp_node@V?$allocator@U?$_Tree_node@U?$pair@$$CBV?$basic_string@DU?$char_traits@D@std@@V?$allocator@D@2@@std@@V?$shared_ptr@VRawImageData@@@2@@std@@PAX@std@@@std@@@std@@QAE@XZ 00400000     StartupState.obj
 0002:fffbe000       __ehfuncinfo$??1?$_Tree_temp_node@V?$allocator@U?$_Tree_node@U?$pair@$$CBV?$basic_string@DU?$char_traits@D@std@@V?$allocator@D@2@@std@@V?$weak_ptr@VRawImageData@@@2@@std@@PAX@std@@@std@@@std@@QAE@XZ 00400000     StartupState.obj
 0002:fffbe000       __ehfuncinfo$??1?$basic_filebuf@DU?$char_traits@D@std@@@std@@UAE@XZ 00400000     StartupState.obj
 0002:fffbe000       __ehfuncinfo$??1RawImageData@@QAE@XZ 00400000     StartupState.obj
 0002:fffbe000       __ehfuncinfo$??1_Sentry_base@?$basic_ostream@DU?$char_traits@D@std@@@std@@QAE@XZ 00400000     StartupState.obj
 0002:fffbe000       __ehfuncinfo$??1sentry@?$basic_ostream@DU?$char_traits@D@std@@@std@@QAE@XZ 00400000     StartupState.obj
 0002:fffbe000       __ehfuncinfo$?_Take_contents@?$basic_string@DU?$char_traits@D@std@@V?$allocator@D@2@@std@@AAEXAAV12@@Z 00400000     StartupState.obj
 0002:fffbe000       __ehfuncinfo$?_Tidy_deallocate@?$basic_string@DU?$char_traits@D@std@@V?$allocator@D@2@@std@@AAEXXZ 00400000     StartupState.obj
 0002:fffbe000       __ehfuncinfo$?getImagePtrbyURL@ImageManager@@QAE?AV?$shared_ptr@VRawImageData@@@std@@V?$basic_string@DU?$char_traits@D@std@@V?$allocator@D@2@@3@_N1@Z 00400000     StartupState.obj
 0001:fffff000       __ehhandler$??$_Deallocate@$07$0A@@std@@YAXPAXI@Z 00400000 f   StartupState.obj
 0001:fffff000       __ehhandler$??$_Deallocate_plain@V?$allocator@U_Container_proxy@std@@@std@@@std@@YAXAAV?$allocator@U_Container_proxy@std@@@0@QAU_Container_proxy@0@@Z 00400000 f   StartupState.obj
 0001:fffff000       __ehhandler$??$_Freenode0@V?$allocator@U?$_Tree_node@U?$pair@$$CBV?$basic_string@DU?$char_traits@D@std@@V?$allocator@D@2@@std@@V?$weak_ptr@VRawImageData@@@2@@std@@PAX@std@@@std@@@?$_Tree_node@U?$pair@$$CBV?$basic_string@DU?$char_traits@D@std@@V?$allocator@D@2@@std@@V?$weak_ptr@VRawImageData@@@2@@std@@PAX@std@@SAXAAV?$allocator@U?$_Tree_node@U?$pair@$$CBV?$basic_string@DU?$char_traits@D@std@@V?$allocator@D@2@@std@@V?$weak_ptr@VRawImageData@@@2@@std@@PAX@std@@@1@PAU01@@Z 00400000 f   StartupState.obj
 0001:fffff000       __ehhandler$??$_Freenode@V?$allocator@U?$_Tree_node@U?$pair@$$CBV?$basic_string@DU?$char_traits@D@std@@V?$allocator@D@2@@std@@V?$weak_ptr@VRawImageData@@@2@@std@@PAX@std@@@std@@@?$_Tree_node@U?$pair@$$CBV?$basic_string@DU?$char_traits@D@std@@V?$allocator@D@2@@std@@V?$weak_ptr@VRawImageData@@@2@@std@@PAX@std@@SAXAAV?$allocator@U?$_Tree_node@U?$pair@$$CBV?$basic_string@DU?$char_traits@D@std@@V?$allocator@D@2@@std@@V?$weak_ptr@VRawImageData@@@2@@std@@PAX@std@@@1@PAU01@@Z 00400000 f   StartupState.obj
 0001:fffff000       __ehhandler$??$_Resize_reallocate@U_Value_init_tag@std@@@?$vector@PAVDisplayableObject@@V?$allocator@PAVDisplayableObject@@@std@@@std@@AAEXIABU_Value_init_tag@1@@Z 00400000 f   StartupState.obj
 0001:fffff000       __ehhandler$??0?$basic_string@DU?$char_traits@D@std@@V?$allocator@D@2@@std@@QAE@$$QAV01@@Z 00400000 f   StartupState.obj
 0001:fffff000       __ehhandler$??0?$basic_string@DU?$char_traits@D@std@@V?$allocator@D@2@@std@@QAE@XZ 00400000 f   StartupState.obj
 0001:fffff000       __ehhandler$??1?$_Alloc_construct_ptr@V?$allocator@U?$_Tree_node@U?$pair@$$CBV?$basic_string@DU?$char_traits@D@std@@V?$allocator@D@2@@std@@V?$shared_ptr@VRawImageData@@@2@@std@@PAX@std@@@std@@@std@@QAE@XZ 00400000 f   StartupState.obj
 0001:fffff000       __ehhandler$??1?$_Alloc_construct_ptr@V?$allocator@U?$_Tree_node@U?$pair@$$CBV?$basic_string@DU?$char_traits@D@std@@V?$allocator@D@2@@std@@V?$weak_ptr@VRawImageData@@@2@@std@@PAX@std@@@std@@@std@@QAE@XZ 00400000 f   StartupState.obj
 0001:fffff000       __ehhandler$??1?$_Tree_temp_node@V?$allocator@U?$_Tree_node@U?$pair@$$CBV?$basic_string@DU?$char_traits@D@std@@V?$allocator@D@2@@std@@V?$shared_ptr@VRawImageData@@@2@@std@@PAX@std@@@std@@@std@@QAE@XZ 00400000 f   StartupState.obj
 0001:fffff000       __ehhandler$??1?$_Tree_temp_node@V?$allocator@U?$_Tree_node@U?$pair@$$CBV?$basic_string@DU?$char_traits@D@std@@V?$allocator@D@2@@std@@V?$weak_ptr@VRawImageData@@@2@@std@@PAX@std@@@std@@@std@@QAE@XZ 00400000 f   StartupState.obj
 0001:fffff000       __ehhandler$??1?$basic_filebuf@DU?$char_traits@D@std@@@std@@UAE@XZ 00400000 f   StartupState.obj
 0001:fffff000       __ehhandler$??1RawImageData@@QAE@XZ 00400000 f   StartupState.obj
 0001:fffff000       __ehhandler$??1_Sentry_base@?$basic_ostream@DU?$char_traits@D@std@@@std@@QAE@XZ 00400000 f   StartupState.obj
 0001:fffff000       __ehhandler$??1sentry@?$basic_ostream@DU?$char_traits@D@std@@@std@@QAE@XZ 00400000 f   StartupState.obj
 0001:fffff000       __ehhandler$?_Take_contents@?$basic_string@DU?$char_traits@D@std@@V?$allocator@D@2@@std@@AAEXAAV12@@Z 00400000 f   StartupState.obj
 0001:fffff000       __ehhandler$?_Tidy_deallocate@?$basic_string@DU?$char_traits@D@std@@V?$allocator@D@2@@std@@AAEXXZ 00400000 f   StartupState.obj
 0001:fffff000       __unwindfunclet$??$?0U?$pair@V?$basic_string@DU?$char_traits@D@std@@V?$allocator@D@2@@std@@V?$shared_ptr@VRawImageData@@@2@@std@@@?$_Tree_temp_node@V?$allocator@U?$_Tree_node@U?$pair@$$CBV?$basic_string@DU?$char_traits@D@std@@V?$allocator@D@2@@std@@V?$shared_ptr@VRawImageData@@@2@@std@@PAX@std@@@std@@@std@@QAE@AAV?$allocator@U?$_Tree_node@U?$pair@$$CBV?$basic_string@DU?$char_traits@D@std@@V?$allocator@D@2@@std@@V?$shared_ptr@VRawImageData@@@2@@std@@PAX@std@@@1@PAU?$_Tree_node@U?$pair@$$CBV?$basic_string@DU?$char_traits@D@std@@V?$allocator@D@2@@std@@V?$shared_ptr@VRawImageData@@@2@@std@@PAX@1@$$QAU?$pair@V?$basic_string@DU?$char_traits@D@std@@V?$allocator@D@2@@std@@V?$shared_ptr@VRawImageData@@@2@@1@@Z$0 00400000 f   StartupState.obj
 0001:fffff000       __unwindfunclet$??$?0U?$pair@V?$basic_string@DU?$char_traits@D@std@@V?$allocator@D@2@@std@@V?$weak_ptr@VRawImageData@@@2@@std@@@?$_Tree_temp_node@V?$allocator@U?$_Tree_node@U?$pair@$$CBV?$basic_string@DU?$char_traits@D@std@@V?$allocator@D@2@@std@@V?$weak_ptr@VRawImageData@@@2@@std@@PAX@std@@@std@@@std@@QAE@AAV?$allocator@U?$_Tree_node@U?$pair@$$CBV?$basic_string@DU?$char_traits@D@std@@V?$allocator@D@2@@std@@V?$weak_ptr@VRawImageData@@@2@@std@@PAX@std@@@1@PAU?$_Tree_node@U?$pair@$$CBV?$basic_string@DU?$char_traits@D@std@@V?$allocator@D@2@@std@@V?$weak_ptr@VRawImageData@@@2@@std@@PAX@1@$$QAU?$pair@V?$basic_string@DU?$char_traits@D@std@@V?$allocator@D@2@@std@@V?$weak_ptr@VRawImageData@@@2@@1@@Z$0 00400000 f   StartupState.obj
 0001:fffff000       __unwindfunclet$??$?0VRawImageData@@$0A@@?$shared_ptr@VRawImageData@@@std@@QAE@PAVRawImageData@@@Z$0 00400000 f   StartupState.obj
 0001:fffff000       __unwindfunclet$??$?6U?$char_traits@D@std@@@std@@YAAAV?$basic_ostream@DU?$char_traits@D@std@@@0@AAV10@PBD@Z$2 00400000 f   StartupState.obj
 0001:fffff000       __unwindfunclet$??$_Construct@$00PBD@?$basic_string@DU?$char_traits@D@std@@V?$allocator@D@2@@std@@AAEXQBDI@Z$0 00400000 f   StartupState.obj
 0001:fffff000       __unwindfunclet$??$_Construct@$01PBD@?$basic_string@DU?$char_traits@D@std@@V?$allocator@D@2@@std@@AAEXQBDI@Z$0 00400000 f   StartupState.obj
 0001:fffff000       __unwindfunclet$??$_Insert_string@DU?$char_traits@D@std@@I@std@@YAAAV?$basic_ostream@DU?$char_traits@D@std@@@0@AAV10@QBDI@Z$2 00400000 f   StartupState.obj
 0001:fffff000       __unwindfunclet$??$_Uninitialized_move@PAPAVDisplayableObject@@V?$allocator@PAVDisplayableObject@@@std@@@std@@YAPAPAVDisplayableObject@@QAPAV1@0PAPAV1@AAV?$allocator@PAVDisplayableObject@@@0@@Z$0 00400000 f   StartupState.obj
 0001:fffff000       __unwindfunclet$??$_Uninitialized_value_construct_n@V?$allocator@PAVDisplayableObject@@@std@@@std@@YAPAPAVDisplayableObject@@PAPAV1@IAAV?$allocator@PAVDisplayableObject@@@0@@Z$0 00400000 f   StartupState.obj
 0001:fffff000       __unwindfunclet$??$use_facet@V?$codecvt@DDU_Mbstatet@@@std@@@std@@YAABV?$codecvt@DDU_Mbstatet@@@0@ABVlocale@0@@Z$0 00400000 f   StartupState.obj
 0001:fffff000       __unwindfunclet$??0?$_Tree_temp_node_alloc@V?$allocator@U?$_Tree_node@U?$pair@$$CBV?$basic_string@DU?$char_traits@D@std@@V?$allocator@D@2@@std@@V?$shared_ptr@VRawImageData@@@2@@std@@PAX@std@@@std@@@std@@QAE@AAV?$allocator@U?$_Tree_node@U?$pair@$$CBV?$basic_string@DU?$char_traits@D@std@@V?$allocator@D@2@@std@@V?$shared_ptr@VRawImageData@@@2@@std@@PAX@std@@@1@@Z$0 00400000 f   StartupState.obj
 0001:fffff000       __unwindfunclet$??0?$_Tree_temp_node_alloc@V?$allocator@U?$_Tree_node@U?$pair@$$CBV?$basic_string@DU?$char_traits@D@std@@V?$allocator@D@2@@std@@V?$weak_ptr@VRawImageData@@@2@@std@@PAX@std@@@std@@@std@@QAE@AAV?$allocator@U?$_Tree_node@U?$pair@$$CBV?$basic_string@DU?$char_traits@D@std@@V?$allocator@D@2@@std@@V?$weak_ptr@VRawImageData@@@2@@std@@PAX@std@@@1@@Z$0 00400000 f   StartupState.obj
 0001:fffff000       __unwindfunclet$??0?$basic_filebuf@DU?$char_traits@D@std@@@std@@QAE@XZ$0 00400000 f   StartupState.obj
 0001:fffff000       __unwindfunclet$??0?$basic_ofstream@DU?$char_traits@D@std@@@std@@QAE@XZ$0 00400000 f   StartupState.obj
 0001:fffff000       __unwindfunclet$??0?$basic_string@DU?$char_traits@D@std@@V?$allocator@D@2@@std@@QAE@ABV01@@Z$0 00400000 f   StartupState.obj
 0001:fffff000       __unwindfunclet$??0?$basic_string@DU?$char_traits@D@std@@V?$allocator@D@2@@std@@QAE@QBD@Z$0 00400000 f   StartupState.obj
 0001:fffff000       __unwindfunclet$??0ImageManager@@QAE@XZ$0 00400000 f   StartupState.obj
 0001:fffff000       __unwindfunclet$??0RawImageData@@QAE@V?$basic_string@DU?$char_traits@D@std@@V?$allocator@D@2@@std@@@Z$0 00400000 f   StartupState.obj
 0001:fffff000       __unwindfunclet$??0sentry@?$basic_ostream@DU?$char_traits@D@std@@@std@@QAE@AAV12@@Z$0 00400000 f   StartupState.obj
 0001:fffff000       __unwindfunclet$?_Alloc_sentinel_and_proxy@?$_Tree@V?$_Tmap_traits@V?$basic_string@DU?$char_traits@D@std@@V?$allocator@D@2@@std@@V?$shared_ptr@VRawImageData@@@2@U?$less@V?$basic_string@DU?$char_traits@D@std@@V?$allocator@D@2@@std@@@2@V?$allocator@U?$pair@$$CBV?$basic_string@DU?$char_traits@D@std@@V?$allocator@D@2@@std@@V?$shared_ptr@VRawImageData@@@2@@std@@@2@$0A@@std@@@std@@IAEXXZ$0 00400000 f   StartupState.obj
 0001:fffff000       __unwindfunclet$?_Alloc_sentinel_and_proxy@?$_Tree@V?$_Tmap_traits@V?$basic_string@DU?$char_traits@D@std@@V?$allocator@D@2@@std@@V?$weak_ptr@VRawImageData@@@2@U?$less@V?$basic_string@DU?$char_traits@D@std@@V?$allocator@D@2@@std@@@2@V?$allocator@U?$pair@$$CBV?$basic_string@DU?$char_traits@D@std@@V?$allocator@D@2@@std@@V?$weak_ptr@VRawImageData@@@2@@std@@@2@$0A@@std@@@std@@IAEXXZ$0 00400000 f   StartupState.obj
 0001:fffff000       __unwindfunclet$?_Orphan_range_locked@?$vector@PAVDisplayableObject@@V?$allocator@PAVDisplayableObject@@@std@@@std@@ABEXPAPAVDisplayableObject@@0@Z$0 00400000 f   StartupState.obj
 0001:fffff000       __unwindfunclet$?get@ImageManager@@SAPAV1@XZ$0 00400000 f   StartupState.obj
 0001:fffff000       __unwindfunclet$?getImagePtrbyURL@ImageManager@@QAE?AV?$shared_ptr@VRawImageData@@@std@@V?$basic_string@DU?$char_traits@D@std@@V?$allocator@D@2@@3@_N1@Z$0 00400000 f   StartupState.obj
 0001:fffff000       __unwindfunclet$?getImagebyURL@ImageManager@@QAE?AVSimpleImage@@V?$basic_string@DU?$char_traits@D@std@@V?$allocator@D@2@@std@@_N1@Z$0 00400000 f   StartupState.obj
 0001:fffff000       __unwindfunclet$?loadAsNew@ImageManager@@QAE?AV?$shared_ptr@VRawImageData@@@std@@V?$basic_string@DU?$char_traits@D@std@@V?$allocator@D@2@@3@@Z$0 00400000 f   StartupState.obj
 0001:fffff000       __unwindfunclet$?loadImage@ImageManager@@SA?AVSimpleImage@@V?$basic_string@DU?$char_traits@D@std@@V?$allocator@D@2@@std@@_N@Z$0 00400000 f   StartupState.obj
 0001:fffff000       __unwindfunclet$?loadImage@RawImageData@@QAE_NV?$basic_string@DU?$char_traits@D@std@@V?$allocator@D@2@@std@@HHHHH_N@Z$0 00400000 f   StartupState.obj
 0001:fffff000       __unwindfunclet$?open@?$basic_filebuf@DU?$char_traits@D@std@@@std@@QAEPAV12@PBDHH@Z$0 00400000 f   StartupState.obj
 0001:fffff000       __unwindfunclet$?setAllObjectsVisible@DisplayableObjectContainer@@QBEX_N@Z$0 00400000 f   StartupState.obj
 0001:fffff000       __unwindfunclet$?uflow@?$basic_filebuf@DU?$char_traits@D@std@@@std@@MAEHXZ$0 00400000 f   StartupState.obj
 0002:fffbe000       __unwindtable$??$?0U?$pair@V?$basic_string@DU?$char_traits@D@std@@V?$allocator@D@2@@std@@V?$shared_ptr@VRawImageData@@@2@@std@@@?$_Tree_temp_node@V?$allocator@U?$_Tree_node@U?$pair@$$CBV?$basic_string@DU?$char_traits@D@std@@V?$allocator@D@2@@std@@V?$shared_ptr@VRawImageData@@@2@@std@@PAX@std@@@std@@@std@@QAE@AAV?$allocator@U?$_Tree_node@U?$pair@$$CBV?$basic_string@DU?$char_traits@D@std@@V?$allocator@D@2@@std@@V?$shared_ptr@VRawImageData@@@2@@std@@PAX@std@@@1@PAU?$_Tree_node@U?$pair@$$CBV?$basic_string@DU?$char_traits@D@std@@V?$allocator@D@2@@std@@V?$shared_ptr@VRawImageData@@@2@@std@@PAX@1@$$QAU?$pair@V?$basic_string@DU?$char_traits@D@std@@V?$allocator@D@2@@std@@V?$shared_ptr@VRawImageData@@@2@@1@@Z 00400000     StartupState.obj
 0002:fffbe000       __unwindtable$??$?0U?$pair@V?$basic_string@DU?$char_traits@D@std@@V?$allocator@D@2@@std@@V?$weak_ptr@VRawImageData@@@2@@std@@@?$_Tree_temp_node@V?$allocator@U?$_Tree_node@U?$pair@$$CBV?$basic_string@DU?$char_traits@D@std@@V?$allocator@D@2@@std@@V?$weak_ptr@VRawImageData@@@2@@std@@PAX@std@@@std@@@std@@QAE@AAV?$allocator@U?$_Tree_node@U?$pair@$$CBV?$basic_string@DU?$char_traits@D@std@@V?$allocator@D@2@@std@@V?$weak_ptr@VRawImageData@@@2@@std@@PAX@std@@@1@PAU?$_Tree_node@U?$pair@$$CBV?$basic_string@DU?$char_traits@D@std@@V?$allocator@D@2@@std@@V?$weak_ptr@VRawImageData@@@2@@std@@PAX@1@$$QAU?$pair@V?$basic_string@DU?$char_traits@D@std@@V?$allocator@D@2@@std@@V?$weak_ptr@VRawImageData@@@2@@1@@Z 00400000     StartupState.obj
 0002:fffbe000       __unwindtable$??$?0VRawImageData@@$0A@@?$shared_ptr@VRawImageData@@@std@@QAE@PAVRawImageData@@@Z 00400000     StartupState.obj
 0002:fffbe000       __unwindtable$??$_Construct@$00PBD@?$basic_string@DU?$char_traits@D@std@@V?$allocator@D@2@@std@@AAEXQBDI@Z 00400000     StartupState.obj
 0002:fffbe000       __unwindtable$??$_Construct@$01PBD@?$basic_string@DU?$char_traits@D@std@@V?$allocator@D@2@@std@@AAEXQBDI@Z 00400000     StartupState.obj
 0002:fffbe000       __unwindtable$??$_Uninitialized_move@PAPAVDisplayableObject@@V?$allocator@PAVDisplayableObject@@@std@@@std@@YAPAPAVDisplayableObject@@QAPAV1@0PAPAV1@AAV?$allocator@PAVDisplayableObject@@@0@@Z 00400000     StartupState.obj
 0002:fffbe000       __unwindtable$??$_Uninitialized_value_construct_n@V?$allocator@PAVDisplayableObject@@@std@@@std@@YAPAPAVDisplayableObject@@PAPAV1@IAAV?$allocator@PAVDisplayableObject@@@0@@Z 00400000     StartupState.obj
 0002:fffbe000       __unwindtable$??$use_facet@V?$codecvt@DDU_Mbstatet@@@std@@@std@@YAABV?$codecvt@DDU_Mbstatet@@@0@ABVlocale@0@@Z 00400000     StartupState.obj
 0002:fffbe000       __unwindtable$??0?$_Tree_temp_node_alloc@V?$allocator@U?$_Tree_node@U?$pair@$$CBV?$basic_string@DU?$char_traits@D@std@@V?$allocator@D@2@@std@@V?$shared_ptr@VRawImageData@@@2@@std@@PAX@std@@@std@@@std@@QAE@AAV?$allocator@U?$_Tree_node@U?$pair@$$CBV?$basic_string@DU?$char_traits@D@std@@V?$allocator@D@2@@std@@V?$shared_ptr@VRawImageData@@@2@@std@@PAX@std@@@1@@Z 00400000     StartupState.obj
 0002:fffbe000       __unwindtable$??0?$_Tree_temp_node_alloc@V?$allocator@U?$_Tree_node@U?$pair@$$CBV?$basic_string@DU?$char_traits@D@std@@V?$allocator@D@2@@std@@V?$weak_ptr@VRawImageData@@@2@@std@@PAX@std@@@std@@@std@@QAE@AAV?$allocator@U?$_Tree_node@U?$pair@$$CBV?$basic_string@DU?$char_traits@D@std@@V?$allocator@D@2@@std@@V?$weak_ptr@VRawImageData@@@2@@std@@PAX@std@@@1@@Z 00400000     StartupState.obj
 0002:fffbe000       __unwindtable$??0?$basic_filebuf@DU?$char_traits@D@std@@@std@@QAE@XZ 00400000     StartupState.obj
 0002:fffbe000       __unwindtable$??0?$basic_ofstream@DU?$char_traits@D@std@@@std@@QAE@XZ 00400000     StartupState.obj
 0002:fffbe000       __unwindtable$??0?$basic_string@DU?$char_traits@D@std@@V?$allocator@D@2@@std@@QAE@ABV01@@Z 00400000     StartupState.obj
 0002:fffbe000       __unwindtable$??0?$basic_string@DU?$char_traits@D@std@@V?$allocator@D@2@@std@@QAE@QBD@Z 00400000     StartupState.obj
 0002:fffbe000       __unwindtable$??0ImageManager@@QAE@XZ 00400000     StartupState.obj
 0002:fffbe000       __unwindtable$??0RawImageData@@QAE@V?$basic_string@DU?$char_traits@D@std@@V?$allocator@D@2@@std@@@Z 00400000     StartupState.obj
 0002:fffbe000       __unwindtable$??0sentry@?$basic_ostream@DU?$char_traits@D@std@@@std@@QAE@AAV12@@Z 00400000     StartupState.obj
 0002:fffbe000       __unwindtable$?_Alloc_sentinel_and_proxy@?$_Tree@V?$_Tmap_traits@V?$basic_string@DU?$char_traits@D@std@@V?$allocator@D@2@@std@@V?$shared_ptr@VRawImageData@@@2@U?$less@V?$basic_string@DU?$char_traits@D@std@@V?$allocator@D@2@@std@@@2@V?$allocator@U?$pair@$$CBV?$basic_string@DU?$char_traits@D@std@@V?$allocator@D@2@@std@@V?$shared_ptr@VRawImageData@@@2@@std@@@2@$0A@@std@@@std@@IAEXXZ 00400000     StartupState.obj
 0002:fffbe000       __unwindtable$?_Alloc_sentinel_and_proxy@?$_Tree@V?$_Tmap_traits@V?$basic_string@DU?$char_traits@D@std@@V?$allocator@D@2@@std@@V?$weak_ptr@VRawImageData@@@2@U?$less@V?$basic_string@DU?$char_traits@D@std@@V?$allocator@D@2@@std@@@2@V?$allocator@U?$pair@$$CBV?$basic_string@DU?$char_traits@D@std@@V?$allocator@D@2@@std@@V?$weak_ptr@VRawImageData@@@2@@std@@@2@$0A@@std@@@std@@IAEXXZ 00400000     StartupState.obj
 0002:fffbe000       __unwindtable$?_Orphan_range_locked@?$vector@PAVDisplayableObject@@V?$allocator@PAVDisplayableObject@@@std@@@std@@ABEXPAPAVDisplayableObject@@0@Z 00400000     StartupState.obj
 0002:fffbe000       __unwindtable$?get@ImageManager@@SAPAV1@XZ 00400000     StartupState.obj
 0002:fffbe000       __unwindtable$?getImagebyURL@ImageManager@@QAE?AVSimpleImage@@V?$basic_string@DU?$char_traits@D@std@@V?$allocator@D@2@@std@@_N1@Z 00400000     StartupState.obj
 0002:fffbe000       __unwindtable$?loadAsNew@ImageManager@@QAE?AV?$shared_ptr@VRawImageData@@@std@@V?$basic_string@DU?$char_traits@D@std@@V?$allocator@D@2@@3@@Z 00400000     StartupState.obj
 0002:fffbe000       __unwindtable$?loadImage@ImageManager@@SA?AVSimpleImage@@V?$basic_string@DU?$char_traits@D@std@@V?$allocator@D@2@@std@@_N@Z 00400000     StartupState.obj
 0002:fffbe000       __unwindtable$?loadImage@RawImageData@@QAE_NV?$basic_string@DU?$char_traits@D@std@@V?$allocator@D@2@@std@@HHHHH_N@Z 00400000     StartupState.obj
 0002:fffbe000       __unwindtable$?open@?$basic_filebuf@DU?$char_traits@D@std@@@std@@QAEPAV12@PBDHH@Z 00400000     StartupState.obj
 0002:fffbe000       __unwindtable$?setAllObjectsVisible@DisplayableObjectContainer@@QBEX_N@Z 00400000     StartupState.obj
 0002:fffbe000       __unwindtable$?uflow@?$basic_filebuf@DU?$char_traits@D@std@@@std@@MAEHXZ 00400000     StartupState.obj
 0000:00000000       _volmd                     00400000     StartupState.obj
 0000:00000000       _volmd                     00400000     StartupState.obj
 0000:00000000       _volmd                     00400000     StartupState.obj
 0000:00000000       _volmd                     00400000     StartupState.obj
 0000:00000000       _volmd                     00400000     StartupState.obj
 0000:00000000       _volmd                     00400000     StartupState.obj
 0000:00000000       _volmd                     00400000     StartupState.obj
 0000:00000000       _volmd                     00400000     StartupState.obj
 0000:00000000       _volmd                     00400000     StartupState.obj
 0000:00000000       _volmd                     00400000     StartupState.obj
 0000:00000000       _volmd                     00400000     StartupState.obj
 0000:00000000       _volmd                     00400000     StartupState.obj
 0000:00000000       _volmd                     00400000     StartupState.obj
 0000:00000000       _volmd                     00400000     StartupState.obj
 0000:00000000       _volmd                     00400000     StartupState.obj
 0000:00000000       _volmd                     00400000     StartupState.obj
 0000:00000000       _volmd                     00400000     StartupState.obj
 0000:00000000       _volmd                     00400000     StartupState.obj
 0000:00000000       _volmd                     00400000     StartupState.obj
 0000:00000000       _volmd                     00400000     StartupState.obj
 0000:00000000       _volmd                     00400000     StartupState.obj
 0000:00000000       _volmd                     00400000     StartupState.obj
 0000:00000000       _volmd                     00400000     StartupState.obj
 0000:00000000       _volmd                     00400000     StartupState.obj
 0000:00000000       _volmd                     00400000     StartupState.obj
 0000:00000000       _volmd                     00400000     StartupState.obj
 0000:00000000       _volmd                     00400000     StartupState.obj
 0000:00000000       _volmd                     00400000     StartupState.obj
 0000:00000000       _volmd                     00400000     StartupState.obj
 0000:00000000       _volmd                     00400000     StartupState.obj
 0000:00000000       _volmd                     00400000     StartupState.obj
 0000:00000000       _volmd                     00400000     StartupState.obj
 0000:00000000       _volmd                     00400000     StartupState.obj
 0000:00000000       _volmd                     00400000     StartupState.obj
 0000:00000000       _volmd                     00400000     StartupState.obj
 0000:00000000       _volmd                     00400000     StartupState.obj
 0000:00000000       _volmd                     00400000     StartupState.obj
 0000:00000000       _volmd                     00400000     StartupState.obj
 0000:00000000       _volmd                     00400000     StartupState.obj
 0000:00000000       _volmd                     00400000     StartupState.obj
 0000:00000000       _volmd                     00400000     StartupState.obj
 0000:00000000       _volmd                     00400000     StartupState.obj
 0000:00000000       _volmd                     00400000     StartupState.obj
 0000:00000000       _volmd                     00400000     StartupState.obj
 0000:00000000       _volmd                     00400000     StartupState.obj
 0000:00000000       _volmd                     00400000     StartupState.obj
 0000:00000000       _volmd                     00400000     StartupState.obj
 0000:00000000       _volmd                     00400000     StartupState.obj
 0000:00000000       _volmd                     00400000     StartupState.obj
 0000:00000000       _volmd                     00400000     StartupState.obj
 0000:00000000       _volmd                     00400000     StartupState.obj
 0000:00000000       _volmd                     00400000     StartupState.obj
 0000:00000000       _volmd                     00400000     StartupState.obj
 0000:00000000       _volmd                     00400000     StartupState.obj
 0000:00000000       _volmd                     00400000     StartupState.obj
 0000:00000000       _volmd                     00400000     StartupState.obj
 0000:00000000       _volmd                     00400000     StartupState.obj
 0000:00000000       _volmd                     00400000     StartupState.obj
 0000:00000000       _volmd                     00400000     StartupState.obj
 0000:00000000       _volmd                     00400000     StartupState.obj
 0000:00000000       _volmd                     00400000     StartupState.obj
 0000:00000000       _volmd                     00400000     StartupState.obj
 0000:00000000       _volmd                     00400000     StartupState.obj
 0000:00000000       _volmd                     00400000     StartupState.obj
 0000:00000000       _volmd                     00400000     StartupState.obj
 0002:fffbe000       __catchsym$??$?6U?$char_traits@D@std@@@std@@YAAAV?$basic_ostream@DU?$char_traits@D@std@@@0@AAV10@PBD@Z$3 00400000     WinState.obj
 0002:fffbe000       __catchsym$??$_Emplace_reallocate@ABQAVDisplayableObject@@@?$vector@PAVDisplayableObject@@V?$allocator@PAVDisplayableObject@@@std@@@std@@AAEPAPAVDisplayableObject@@QAPAV2@ABQAV2@@Z$2 00400000     WinState.obj
 0002:fffbe000       __catchsym$??$_Insert_string@DU?$char_traits@D@std@@I@std@@YAAAV?$basic_ostream@DU?$char_traits@D@std@@@0@AAV10@QBDI@Z$3 00400000     WinState.obj
 0002:fffbe000       __catchsym$??$_Resize_reallocate@U_Value_init_tag@std@@@?$vector@PAVDisplayableObject@@V?$allocator@PAVDisplayableObject@@@std@@@std@@AAEXIABU_Value_init_tag@1@@Z$2 00400000     WinState.obj
 0002:fffbe000       __ehfuncinfo$??$_Deallocate@$07$0A@@std@@YAXPAXI@Z 00400000     WinState.obj
 0002:fffbe000       __ehfuncinfo$??$_Deallocate_plain@V?$allocator@U_Container_proxy@std@@@std@@@std@@YAXAAV?$allocator@U_Container_proxy@std@@@0@QAU_Container_proxy@0@@Z 00400000     WinState.obj
 0002:fffbe000       __ehfuncinfo$??$_Freenode0@V?$allocator@U?$_Tree_node@U?$pair@$$CBV?$basic_string@DU?$char_traits@D@std@@V?$allocator@D@2@@std@@V?$weak_ptr@VRawImageData@@@2@@std@@PAX@std@@@std@@@?$_Tree_node@U?$pair@$$CBV?$basic_string@DU?$char_traits@D@std@@V?$allocator@D@2@@std@@V?$weak_ptr@VRawImageData@@@2@@std@@PAX@std@@SAXAAV?$allocator@U?$_Tree_node@U?$pair@$$CBV?$basic_string@DU?$char_traits@D@std@@V?$allocator@D@2@@std@@V?$weak_ptr@VRawImageData@@@2@@std@@PAX@std@@@1@PAU01@@Z 00400000     WinState.obj
 0002:fffbe000       __ehfuncinfo$??$_Freenode@V?$allocator@U?$_Tree_node@U?$pair@$$CBV?$basic_string@DU?$char_traits@D@std@@V?$allocator@D@2@@std@@V?$weak_ptr@VRawImageData@@@2@@std@@PAX@std@@@std@@@?$_Tree_node@U?$pair@$$CBV?$basic_string@DU?$char_traits@D@std@@V?$allocator@D@2@@std@@V?$weak_ptr@VRawImageData@@@2@@std@@PAX@std@@SAXAAV?$allocator@U?$_Tree_node@U?$pair@$$CBV?$basic_string@DU?$char_traits@D@std@@V?$allocator@D@2@@std@@V?$weak_ptr@VRawImageData@@@2@@std@@PAX@std@@@1@PAU01@@Z 00400000     WinState.obj
 0002:fffbe000       __ehfuncinfo$??0?$basic_string@DU?$char_traits@D@std@@V?$allocator@D@2@@std@@QAE@$$QAV01@@Z 00400000     WinState.obj
 0002:fffbe000       __ehfuncinfo$??1?$_Alloc_construct_ptr@V?$allocator@U?$_Tree_node@U?$pair@$$CBV?$basic_string@DU?$char_traits@D@std@@V?$allocator@D@2@@std@@V?$shared_ptr@VRawImageData@@@2@@std@@PAX@std@@@std@@@std@@QAE@XZ 00400000     WinState.obj
 0002:fffbe000       __ehfuncinfo$??1?$_Alloc_construct_ptr@V?$allocator@U?$_Tree_node@U?$pair@$$CBV?$basic_string@DU?$char_traits@D@std@@V?$allocator@D@2@@std@@V?$weak_ptr@VRawImageData@@@2@@std@@PAX@std@@@std@@@std@@QAE@XZ 00400000     WinState.obj
 0002:fffbe000       __ehfuncinfo$??1?$_Tree_temp_node@V?$allocator@U?$_Tree_node@U?$pair@$$CBV?$basic_string@DU?$char_traits@D@std@@V?$allocator@D@2@@std@@V?$shared_ptr@VRawImageData@@@2@@std@@PAX@std@@@std@@@std@@QAE@XZ 00400000     WinState.obj
 0002:fffbe000       __ehfuncinfo$??1?$_Tree_temp_node@V?$allocator@U?$_Tree_node@U?$pair@$$CBV?$basic_string@DU?$char_traits@D@std@@V?$allocator@D@2@@std@@V?$weak_ptr@VRawImageData@@@2@@std@@PAX@std@@@std@@@std@@QAE@XZ 00400000     WinState.obj
 0002:fffbe000       __ehfuncinfo$??1RawImageData@@QAE@XZ 00400000     WinState.obj
 0002:fffbe000       __ehfuncinfo$??1_Sentry_base@?$basic_ostream@DU?$char_traits@D@std@@@std@@QAE@XZ 00400000     WinState.obj
 0002:fffbe000       __ehfuncinfo$??1sentry@?$basic_ostream@DU?$char_traits@D@std@@@std@@QAE@XZ 00400000     WinState.obj
 0002:fffbe000       __ehfuncinfo$?_Take_contents@?$basic_string@DU?$char_traits@D@std@@V?$allocator@D@2@@std@@AAEXAAV12@@Z 00400000     WinState.obj
 0002:fffbe000       __ehfuncinfo$?_Tidy_deallocate@?$basic_string@DU?$char_traits@D@std@@V?$allocator@D@2@@std@@AAEXXZ 00400000     WinState.obj
 0002:fffbe000       __ehfuncinfo$?getImagePtrbyURL@ImageManager@@QAE?AV?$shared_ptr@VRawImageData@@@std@@V?$basic_string@DU?$char_traits@D@std@@V?$allocator@D@2@@3@_N1@Z 00400000     WinState.obj
 0001:fffff000       __ehhandler$??$_Deallocate@$07$0A@@std@@YAXPAXI@Z 00400000 f   WinState.obj
 0001:fffff000       __ehhandler$??$_Deallocate_plain@V?$allocator@U_Container_proxy@std@@@std@@@std@@YAXAAV?$allocator@U_Container_proxy@std@@@0@QAU_Container_proxy@0@@Z 00400000 f   WinState.obj
 0001:fffff000       __ehhandler$??$_Emplace_reallocate@ABQAVDisplayableObject@@@?$vector@PAVDisplayableObject@@V?$allocator@PAVDisplayableObject@@@std@@@std@@AAEPAPAVDisplayableObject@@QAPAV2@ABQAV2@@Z 00400000 f   WinState.obj
 0001:fffff000       __ehhandler$??$_Freenode0@V?$allocator@U?$_Tree_node@U?$pair@$$CBV?$basic_string@DU?$char_traits@D@std@@V?$allocator@D@2@@std@@V?$weak_ptr@VRawImageData@@@2@@std@@PAX@std@@@std@@@?$_Tree_node@U?$pair@$$CBV?$basic_string@DU?$char_traits@D@std@@V?$allocator@D@2@@std@@V?$weak_ptr@VRawImageData@@@2@@std@@PAX@std@@SAXAAV?$allocator@U?$_Tree_node@U?$pair@$$CBV?$basic_string@DU?$char_traits@D@std@@V?$allocator@D@2@@std@@V?$weak_ptr@VRawImageData@@@2@@std@@PAX@std@@@1@PAU01@@Z 00400000 f   WinState.obj
 0001:fffff000       __ehhandler$??$_Freenode@V?$allocator@U?$_Tree_node@U?$pair@$$CBV?$basic_string@DU?$char_traits@D@std@@V?$allocator@D@2@@std@@V?$weak_ptr@VRawImageData@@@2@@std@@PAX@std@@@std@@@?$_Tree_node@U?$pair@$$CBV?$basic_string@DU?$char_traits@D@std@@V?$allocator@D@2@@std@@V?$weak_ptr@VRawImageData@@@2@@std@@PAX@std@@SAXAAV?$allocator@U?$_Tree_node@U?$pair@$$CBV?$basic_string@DU?$char_traits@D@std@@V?$allocator@D@2@@std@@V?$weak_ptr@VRawImageData@@@2@@std@@PAX@std@@@1@PAU01@@Z 00400000 f   WinState.obj
 0001:fffff000       __ehhandler$??$_Resize_reallocate@U_Value_init_tag@std@@@?$vector@PAVDisplayableObject@@V?$allocator@PAVDisplayableObject@@@std@@@std@@AAEXIABU_Value_init_tag@1@@Z 00400000 f   WinState.obj
 0001:fffff000       __ehhandler$??0?$basic_string@DU?$char_traits@D@std@@V?$allocator@D@2@@std@@QAE@$$QAV01@@Z 00400000 f   WinState.obj
 0001:fffff000       __ehhandler$??1?$_Alloc_construct_ptr@V?$allocator@U?$_Tree_node@U?$pair@$$CBV?$basic_string@DU?$char_traits@D@std@@V?$allocator@D@2@@std@@V?$shared_ptr@VRawImageData@@@2@@std@@PAX@std@@@std@@@std@@QAE@XZ 00400000 f   WinState.obj
 0001:fffff000       __ehhandler$??1?$_Alloc_construct_ptr@V?$allocator@U?$_Tree_node@U?$pair@$$CBV?$basic_string@DU?$char_traits@D@std@@V?$allocator@D@2@@std@@V?$weak_ptr@VRawImageData@@@2@@std@@PAX@std@@@std@@@std@@QAE@XZ 00400000 f   WinState.obj
 0001:fffff000       __ehhandler$??1?$_Tree_temp_node@V?$allocator@U?$_Tree_node@U?$pair@$$CBV?$basic_string@DU?$char_traits@D@std@@V?$allocator@D@2@@std@@V?$shared_ptr@VRawImageData@@@2@@std@@PAX@std@@@std@@@std@@QAE@XZ 00400000 f   WinState.obj
 0001:fffff000       __ehhandler$??1?$_Tree_temp_node@V?$allocator@U?$_Tree_node@U?$pair@$$CBV?$basic_string@DU?$char_traits@D@std@@V?$allocator@D@2@@std@@V?$weak_ptr@VRawImageData@@@2@@std@@PAX@std@@@std@@@std@@QAE@XZ 00400000 f   WinState.obj
 0001:fffff000       __ehhandler$??1RawImageData@@QAE@XZ 00400000 f   WinState.obj
 0001:fffff000       __ehhandler$??1_Sentry_base@?$basic_ostream@DU?$char_traits@D@std@@@std@@QAE@XZ 00400000 f   WinState.obj
 0001:fffff000       __ehhandler$??1sentry@?$basic_ostream@DU?$char_traits@D@std@@@std@@QAE@XZ 00400000 f   WinState.obj
 0001:fffff000       __ehhandler$?_Take_contents@?$basic_string@DU?$char_traits@D@std@@V?$allocator@D@2@@std@@AAEXAAV12@@Z 00400000 f   WinState.obj
 0001:fffff000       __ehhandler$?_Tidy_deallocate@?$basic_string@DU?$char_traits@D@std@@V?$allocator@D@2@@std@@AAEXXZ 00400000 f   WinState.obj
 0001:fffff000       __unwindfunclet$??$?0U?$pair@V?$basic_string@DU?$char_traits@D@std@@V?$allocator@D@2@@std@@V?$shared_ptr@VRawImageData@@@2@@std@@@?$_Tree_temp_node@V?$allocator@U?$_Tree_node@U?$pair@$$CBV?$basic_string@DU?$char_traits@D@std@@V?$allocator@D@2@@std@@V?$shared_ptr@VRawImageData@@@2@@std@@PAX@std@@@std@@@std@@QAE@AAV?$allocator@U?$_Tree_node@U?$pair@$$CBV?$basic_string@DU?$char_traits@D@std@@V?$allocator@D@2@@std@@V?$shared_ptr@VRawImageData@@@2@@std@@PAX@std@@@1@PAU?$_Tree_node@U?$pair@$$CBV?$basic_string@DU?$char_traits@D@std@@V?$allocator@D@2@@std@@V?$shared_ptr@VRawImageData@@@2@@std@@PAX@1@$$QAU?$pair@V?$basic_string@DU?$char_traits@D@std@@V?$allocator@D@2@@std@@V?$shared_ptr@VRawImageData@@@2@@1@@Z$0 00400000 f   WinState.obj
 0001:fffff000       __unwindfunclet$??$?0U?$pair@V?$basic_string@DU?$char_traits@D@std@@V?$allocator@D@2@@std@@V?$weak_ptr@VRawImageData@@@2@@std@@@?$_Tree_temp_node@V?$allocator@U?$_Tree_node@U?$pair@$$CBV?$basic_string@DU?$char_traits@D@std@@V?$allocator@D@2@@std@@V?$weak_ptr@VRawImageData@@@2@@std@@PAX@std@@@std@@@std@@QAE@AAV?$allocator@U?$_Tree_node@U?$pair@$$CBV?$basic_string@DU?$char_traits@D@std@@V?$allocator@D@2@@std@@V?$weak_ptr@VRawImageData@@@2@@std@@PAX@std@@@1@PAU?$_Tree_node@U?$pair@$$CBV?$basic_string@DU?$char_traits@D@std@@V?$allocator@D@2@@std@@V?$weak_ptr@VRawImageData@@@2@@std@@PAX@1@$$QAU?$pair@V?$basic_string@DU?$char_traits@D@std@@V?$allocator@D@2@@std@@V?$weak_ptr@VRawImageData@@@2@@1@@Z$0 00400000 f   WinState.obj
 0001:fffff000       __unwindfunclet$??$?0VRawImageData@@$0A@@?$shared_ptr@VRawImageData@@@std@@QAE@PAVRawImageData@@@Z$0 00400000 f   WinState.obj
 0001:fffff000       __unwindfunclet$??$?6U?$char_traits@D@std@@@std@@YAAAV?$basic_ostream@DU?$char_traits@D@std@@@0@AAV10@PBD@Z$2 00400000 f   WinState.obj
 0001:fffff000       __unwindfunclet$??$_Construct@$00PBD@?$basic_string@DU?$char_traits@D@std@@V?$allocator@D@2@@std@@AAEXQBDI@Z$0 00400000 f   WinState.obj
 0001:fffff000       __unwindfunclet$??$_Construct@$01PBD@?$basic_string@DU?$char_traits@D@std@@V?$allocator@D@2@@std@@AAEXQBDI@Z$0 00400000 f   WinState.obj
 0001:fffff000       __unwindfunclet$??$_Insert_string@DU?$char_traits@D@std@@I@std@@YAAAV?$basic_ostream@DU?$char_traits@D@std@@@0@AAV10@QBDI@Z$2 00400000 f   WinState.obj
 0001:fffff000       __unwindfunclet$??$_Uninitialized_move@PAPAVDisplayableObject@@V?$allocator@PAVDisplayableObject@@@std@@@std@@YAPAPAVDisplayableObject@@QAPAV1@0PAPAV1@AAV?$allocator@PAVDisplayableObject@@@0@@Z$0 00400000 f   WinState.obj
 0001:fffff000       __unwindfunclet$??$_Uninitialized_value_construct_n@V?$allocator@PAVDisplayableObject@@@std@@@std@@YAPAPAVDisplayableObject@@PAPAV1@IAAV?$allocator@PAVDisplayableObject@@@0@@Z$0 00400000 f   WinState.obj
 0001:fffff000       __unwindfunclet$??0?$_Tree_temp_node_alloc@V?$allocator@U?$_Tree_node@U?$pair@$$CBV?$basic_string@DU?$char_traits@D@std@@V?$allocator@D@2@@std@@V?$shared_ptr@VRawImageData@@@2@@std@@PAX@std@@@std@@@std@@QAE@AAV?$allocator@U?$_Tree_node@U?$pair@$$CBV?$basic_string@DU?$char_traits@D@std@@V?$allocator@D@2@@std@@V?$shared_ptr@VRawImageData@@@2@@std@@PAX@std@@@1@@Z$0 00400000 f   WinState.obj
 0001:fffff000       __unwindfunclet$??0?$_Tree_temp_node_alloc@V?$allocator@U?$_Tree_node@U?$pair@$$CBV?$basic_string@DU?$char_traits@D@std@@V?$allocator@D@2@@std@@V?$weak_ptr@VRawImageData@@@2@@std@@PAX@std@@@std@@@std@@QAE@AAV?$allocator@U?$_Tree_node@U?$pair@$$CBV?$basic_string@DU?$char_traits@D@std@@V?$allocator@D@2@@std@@V?$weak_ptr@VRawImageData@@@2@@std@@PAX@std@@@1@@Z$0 00400000 f   WinState.obj
 0001:fffff000       __unwindfunclet$??0?$basic_string@DU?$char_traits@D@std@@V?$allocator@D@2@@std@@QAE@ABV01@@Z$0 00400000 f   WinState.obj
 0001:fffff000       __unwindfunclet$??0?$basic_string@DU?$char_traits@D@std@@V?$allocator@D@2@@std@@QAE@QBD@Z$0 00400000 f   WinState.obj
 0001:fffff000       __unwindfunclet$??0ImageManager@@QAE@XZ$0 00400000 f   WinState.obj
 0001:fffff000       __unwindfunclet$??0RawImageData@@QAE@V?$basic_string@DU?$char_traits@D@std@@V?$allocator@D@2@@std@@@Z$0 00400000 f   WinState.obj
 0001:fffff000       __unwindfunclet$??0sentry@?$basic_ostream@DU?$char_traits@D@std@@@std@@QAE@AAV12@@Z$0 00400000 f   WinState.obj
 0001:fffff000       __unwindfunclet$?_Alloc_sentinel_and_proxy@?$_Tree@V?$_Tmap_traits@V?$basic_string@DU?$char_traits@D@std@@V?$allocator@D@2@@std@@V?$shared_ptr@VRawImageData@@@2@U?$less@V?$basic_string@DU?$char_traits@D@std@@V?$allocator@D@2@@std@@@2@V?$allocator@U?$pair@$$CBV?$basic_string@DU?$char_traits@D@std@@V?$allocator@D@2@@std@@V?$shared_ptr@VRawImageData@@@2@@std@@@2@$0A@@std@@@std@@IAEXXZ$0 00400000 f   WinState.obj
 0001:fffff000       __unwindfunclet$?_Alloc_sentinel_and_proxy@?$_Tree@V?$_Tmap_traits@V?$basic_string@DU?$char_traits@D@std@@V?$allocator@D@2@@std@@V?$weak_ptr@VRawImageData@@@2@U?$less@V?$basic_string@DU?$char_traits@D@std@@V?$allocator@D@2@@std@@@2@V?$allocator@U?$pair@$$CBV?$basic_string@DU?$char_traits@D@std@@V?$allocator@D@2@@std@@V?$weak_ptr@VRawImageData@@@2@@std@@@2@$0A@@std@@@std@@IAEXXZ$0 00400000 f   WinState.obj
 0001:fffff000       __unwindfunclet$?_Orphan_range_locked@?$vector@PAVDisplayableObject@@V?$allocator@PAVDisplayableObject@@@std@@@std@@ABEXPAPAVDisplayableObject@@0@Z$0 00400000 f   WinState.obj
 0001:fffff000       __unwindfunclet$?get@ImageManager@@SAPAV1@XZ$0 00400000 f   WinState.obj
 0001:fffff000       __unwindfunclet$?getImagePtrbyURL@ImageManager@@QAE?AV?$shared_ptr@VRawImageData@@@std@@V?$basic_string@DU?$char_traits@D@std@@V?$allocator@D@2@@3@_N1@Z$0 00400000 f   WinState.obj
 0001:fffff000       __unwindfunclet$?getImagebyURL@ImageManager@@QAE?AVSimpleImage@@V?$basic_string@DU?$char_traits@D@std@@V?$allocator@D@2@@std@@_N1@Z$0 00400000 f   WinState.obj
 0001:fffff000       __unwindfunclet$?loadAsNew@ImageManager@@QAE?AV?$shared_ptr@VRawImageData@@@std@@V?$basic_string@DU?$char_traits@D@std@@V?$allocator@D@2@@3@@Z$0 00400000 f   WinState.obj
 0001:fffff000       __unwindfunclet$?loadImage@ImageManager@@SA?AVSimpleImage@@V?$basic_string@DU?$char_traits@D@std@@V?$allocator@D@2@@std@@_N@Z$0 00400000 f   WinState.obj
 0001:fffff000       __unwindfunclet$?loadImage@RawImageData@@QAE_NV?$basic_string@DU?$char_traits@D@std@@V?$allocator@D@2@@std@@HHHHH_N@Z$0 00400000 f   WinState.obj
 0001:fffff000       __unwindfunclet$?setAllObjectsVisible@DisplayableObjectContainer@@QBEX_N@Z$0 00400000 f   WinState.obj
 0002:fffbe000       __unwindtable$??$?0U?$pair@V?$basic_string@DU?$char_traits@D@std@@V?$allocator@D@2@@std@@V?$shared_ptr@VRawImageData@@@2@@std@@@?$_Tree_temp_node@V?$allocator@U?$_Tree_node@U?$pair@$$CBV?$basic_string@DU?$char_traits@D@std@@V?$allocator@D@2@@std@@V?$shared_ptr@VRawImageData@@@2@@std@@PAX@std@@@std@@@std@@QAE@AAV?$allocator@U?$_Tree_node@U?$pair@$$CBV?$basic_string@DU?$char_traits@D@std@@V?$allocator@D@2@@std@@V?$shared_ptr@VRawImageData@@@2@@std@@PAX@std@@@1@PAU?$_Tree_node@U?$pair@$$CBV?$basic_string@DU?$char_traits@D@std@@V?$allocator@D@2@@std@@V?$shared_ptr@VRawImageData@@@2@@std@@PAX@1@$$QAU?$pair@V?$basic_string@DU?$char_traits@D@std@@V?$allocator@D@2@@std@@V?$shared_ptr@VRawImageData@@@2@@1@@Z 00400000     WinState.obj
 0002:fffbe000       __unwindtable$??$?0U?$pair@V?$basic_string@DU?$char_traits@D@std@@V?$allocator@D@2@@std@@V?$weak_ptr@VRawImageData@@@2@@std@@@?$_Tree_temp_node@V?$allocator@U?$_Tree_node@U?$pair@$$CBV?$basic_string@DU?$char_traits@D@std@@V?$allocator@D@2@@std@@V?$weak_ptr@VRawImageData@@@2@@std@@PAX@std@@@std@@@std@@QAE@AAV?$allocator@U?$_Tree_node@U?$pair@$$CBV?$basic_string@DU?$char_traits@D@std@@V?$allocator@D@2@@std@@V?$weak_ptr@VRawImageData@@@2@@std@@PAX@std@@@1@PAU?$_Tree_node@U?$pair@$$CBV?$basic_string@DU?$char_traits@D@std@@V?$allocator@D@2@@std@@V?$weak_ptr@VRawImageData@@@2@@std@@PAX@1@$$QAU?$pair@V?$basic_string@DU?$char_traits@D@std@@V?$allocator@D@2@@std@@V?$weak_ptr@VRawImageData@@@2@@1@@Z 00400000     WinState.obj
 0002:fffbe000       __unwindtable$??$?0VRawImageData@@$0A@@?$shared_ptr@VRawImageData@@@std@@QAE@PAVRawImageData@@@Z 00400000     WinState.obj
 0002:fffbe000       __unwindtable$??$_Construct@$00PBD@?$basic_string@DU?$char_traits@D@std@@V?$allocator@D@2@@std@@AAEXQBDI@Z 00400000     WinState.obj
 0002:fffbe000       __unwindtable$??$_Construct@$01PBD@?$basic_string@DU?$char_traits@D@std@@V?$allocator@D@2@@std@@AAEXQBDI@Z 00400000     WinState.obj
 0002:fffbe000       __unwindtable$??$_Uninitialized_move@PAPAVDisplayableObject@@V?$allocator@PAVDisplayableObject@@@std@@@std@@YAPAPAVDisplayableObject@@QAPAV1@0PAPAV1@AAV?$allocator@PAVDisplayableObject@@@0@@Z 00400000     WinState.obj
 0002:fffbe000       __unwindtable$??$_Uninitialized_value_construct_n@V?$allocator@PAVDisplayableObject@@@std@@@std@@YAPAPAVDisplayableObject@@PAPAV1@IAAV?$allocator@PAVDisplayableObject@@@0@@Z 00400000     WinState.obj
 0002:fffbe000       __unwindtable$??0?$_Tree_temp_node_alloc@V?$allocator@U?$_Tree_node@U?$pair@$$CBV?$basic_string@DU?$char_traits@D@std@@V?$allocator@D@2@@std@@V?$shared_ptr@VRawImageData@@@2@@std@@PAX@std@@@std@@@std@@QAE@AAV?$allocator@U?$_Tree_node@U?$pair@$$CBV?$basic_string@DU?$char_traits@D@std@@V?$allocator@D@2@@std@@V?$shared_ptr@VRawImageData@@@2@@std@@PAX@std@@@1@@Z 00400000     WinState.obj
 0002:fffbe000       __unwindtable$??0?$_Tree_temp_node_alloc@V?$allocator@U?$_Tree_node@U?$pair@$$CBV?$basic_string@DU?$char_traits@D@std@@V?$allocator@D@2@@std@@V?$weak_ptr@VRawImageData@@@2@@std@@PAX@std@@@std@@@std@@QAE@AAV?$allocator@U?$_Tree_node@U?$pair@$$CBV?$basic_string@DU?$char_traits@D@std@@V?$allocator@D@2@@std@@V?$weak_ptr@VRawImageData@@@2@@std@@PAX@std@@@1@@Z 00400000     WinState.obj
 0002:fffbe000       __unwindtable$??0?$basic_string@DU?$char_traits@D@std@@V?$allocator@D@2@@std@@QAE@ABV01@@Z 00400000     WinState.obj
 0002:fffbe000       __unwindtable$??0?$basic_string@DU?$char_traits@D@std@@V?$allocator@D@2@@std@@QAE@QBD@Z 00400000     WinState.obj
 0002:fffbe000       __unwindtable$??0ImageManager@@QAE@XZ 00400000     WinState.obj
 0002:fffbe000       __unwindtable$??0RawImageData@@QAE@V?$basic_string@DU?$char_traits@D@std@@V?$allocator@D@2@@std@@@Z 00400000     WinState.obj
 0002:fffbe000       __unwindtable$??0sentry@?$basic_ostream@DU?$char_traits@D@std@@@std@@QAE@AAV12@@Z 00400000     WinState.obj
 0002:fffbe000       __unwindtable$?_Alloc_sentinel_and_proxy@?$_Tree@V?$_Tmap_traits@V?$basic_string@DU?$char_traits@D@std@@V?$allocator@D@2@@std@@V?$shared_ptr@VRawImageData@@@2@U?$less@V?$basic_string@DU?$char_traits@D@std@@V?$allocator@D@2@@std@@@2@V?$allocator@U?$pair@$$CBV?$basic_string@DU?$char_traits@D@std@@V?$allocator@D@2@@std@@V?$shared_ptr@VRawImageData@@@2@@std@@@2@$0A@@std@@@std@@IAEXXZ 00400000     WinState.obj
 0002:fffbe000       __unwindtable$?_Alloc_sentinel_and_proxy@?$_Tree@V?$_Tmap_traits@V?$basic_string@DU?$char_traits@D@std@@V?$allocator@D@2@@std@@V?$weak_ptr@VRawImageData@@@2@U?$less@V?$basic_string@DU?$char_traits@D@std@@V?$allocator@D@2@@std@@@2@V?$allocator@U?$pair@$$CBV?$basic_string@DU?$char_traits@D@std@@V?$allocator@D@2@@std@@V?$weak_ptr@VRawImageData@@@2@@std@@@2@$0A@@std@@@std@@IAEXXZ 00400000     WinState.obj
 0002:fffbe000       __unwindtable$?_Orphan_range_locked@?$vector@PAVDisplayableObject@@V?$allocator@PAVDisplayableObject@@@std@@@std@@ABEXPAPAVDisplayableObject@@0@Z 00400000     WinState.obj
 0002:fffbe000       __unwindtable$?get@ImageManager@@SAPAV1@XZ 00400000     WinState.obj
 0002:fffbe000       __unwindtable$?getImagebyURL@ImageManager@@QAE?AVSimpleImage@@V?$basic_string@DU?$char_traits@D@std@@V?$allocator@D@2@@std@@_N1@Z 00400000     WinState.obj
 0002:fffbe000       __unwindtable$?loadAsNew@ImageManager@@QAE?AV?$shared_ptr@VRawImageData@@@std@@V?$basic_string@DU?$char_traits@D@std@@V?$allocator@D@2@@3@@Z 00400000     WinState.obj
 0002:fffbe000       __unwindtable$?loadImage@ImageManager@@SA?AVSimpleImage@@V?$basic_string@DU?$char_traits@D@std@@V?$allocator@D@2@@std@@_N@Z 00400000     WinState.obj
 0002:fffbe000       __unwindtable$?loadImage@RawImageData@@QAE_NV?$basic_string@DU?$char_traits@D@std@@V?$allocator@D@2@@std@@HHHHH_N@Z 00400000     WinState.obj
 0002:fffbe000       __unwindtable$?setAllObjectsVisible@DisplayableObjectContainer@@QBEX_N@Z 00400000     WinState.obj
 0000:00000000       _volmd                     00400000     WinState.obj
 0000:00000000       _volmd                     00400000     WinState.obj
 0000:00000000       _volmd                     00400000     WinState.obj
 0000:00000000       _volmd                     00400000     WinState.obj
 0000:00000000       _volmd                     00400000     WinState.obj
 0000:00000000       _volmd                     00400000     WinState.obj
 0000:00000000       _volmd                     00400000     WinState.obj
 0000:00000000       _volmd                     00400000     WinState.obj
 0000:00000000       _volmd                     00400000     WinState.obj
 0000:00000000       _volmd                     00400000     WinState.obj
 0000:00000000       _volmd                     00400000     WinState.obj
 0000:00000000       _volmd                     00400000     WinState.obj
 0000:00000000       _volmd                     00400000     WinState.obj
 0000:00000000       _volmd                     00400000     WinState.obj
 0000:00000000       _volmd                     00400000     WinState.obj
 0000:00000000       _volmd                     00400000     WinState.obj
 0000:00000000       _volmd                     00400000     WinState.obj
 0000:00000000       _volmd                     00400000     WinState.obj
 0000:00000000       _volmd                     00400000     WinState.obj
 0000:00000000       _volmd                     00400000     WinState.obj
 0000:00000000       _volmd                     00400000     WinState.obj
 0000:00000000       _volmd                     00400000     WinState.obj
 0000:00000000       _volmd                     00400000     WinState.obj
 0000:00000000       _volmd                     00400000     WinState.obj
 0000:00000000       _volmd                     00400000     WinState.obj
 0000:00000000       _volmd                     00400000     WinState.obj
 0000:00000000       _volmd                     00400000     WinState.obj
 0000:00000000       _volmd                     00400000     WinState.obj
 0000:00000000       _volmd                     00400000     WinState.obj
 0000:00000000       _volmd                     00400000     WinState.obj
 0000:00000000       _volmd                     00400000     WinState.obj
 0000:00000000       _volmd                     00400000     WinState.obj
 0000:00000000       _volmd                     00400000     WinState.obj
 0000:00000000       _volmd                     00400000     WinState.obj
 0000:00000000       _volmd                     00400000     WinState.obj
 0000:00000000       _volmd                     00400000     WinState.obj
 0000:00000000       _volmd                     00400000     WinState.obj
 0000:00000000       _volmd                     00400000     WinState.obj
 0000:00000000       _volmd                     00400000     WinState.obj
 0000:00000000       _volmd                     00400000     WinState.obj
 0000:00000000       _volmd                     00400000     WinState.obj
 0000:00000000       _volmd                     00400000     WinState.obj
 0000:00000000       _volmd                     00400000     WinState.obj
 0000:00000000       _volmd                     00400000     WinState.obj
 0000:00000000       _volmd                     00400000     WinState.obj
 0002:fffbe000       __catchsym$??$?6U?$char_traits@D@std@@@std@@YAAAV?$basic_ostream@DU?$char_traits@D@std@@@0@AAV10@PBD@Z$3 00400000     ZoomPoints.obj
 0002:fffbe000       __ehfuncinfo$??1_Sentry_base@?$basic_ostream@DU?$char_traits@D@std@@@std@@QAE@XZ 00400000     ZoomPoints.obj
 0002:fffbe000       __ehfuncinfo$??1sentry@?$basic_ostream@DU?$char_traits@D@std@@@std@@QAE@XZ 00400000     ZoomPoints.obj
 0001:fffff000       __ehhandler$??1_Sentry_base@?$basic_ostream@DU?$char_traits@D@std@@@std@@QAE@XZ 00400000 f   ZoomPoints.obj
 0001:fffff000       __ehhandler$??1sentry@?$basic_ostream@DU?$char_traits@D@std@@@std@@QAE@XZ 00400000 f   ZoomPoints.obj
 0001:fffff000       __unwindfunclet$??$?6U?$char_traits@D@std@@@std@@YAAAV?$basic_ostream@DU?$char_traits@D@std@@@0@AAV10@PBD@Z$2 00400000 f   ZoomPoints.obj
 0001:fffff000       __unwindfunclet$??0sentry@?$basic_ostream@DU?$char_traits@D@std@@@std@@QAE@AAV12@@Z$0 00400000 f   ZoomPoints.obj
 0002:fffbe000       __unwindtable$??0sentry@?$basic_ostream@DU?$char_traits@D@std@@@std@@QAE@AAV12@@Z 00400000     ZoomPoints.obj
 0000:00000000       _volmd                     00400000     ZoomPoints.obj
 0000:00000000       _volmd                     00400000     ZoomPoints.obj
 0000:00000000       _volmd                     00400000     ZoomPoints.obj
 0000:00000000       _volmd                     00400000     ZoomPoints.obj
 0002:fffbe000       __catchsym$??$?6U?$char_traits@D@std@@@std@@YAAAV?$basic_ostream@DU?$char_traits@D@std@@@0@AAV10@PBD@Z$3 00400000     ZoomingDemo.obj
 0002:fffbe000       __catchsym$??$_Insert_string@DU?$char_traits@D@std@@I@std@@YAAAV?$basic_ostream@DU?$char_traits@D@std@@@0@AAV10@QBDI@Z$3 00400000     ZoomingDemo.obj
 0002:fffbe000       __catchsym$??$_Resize_reallocate@U_Value_init_tag@std@@@?$vector@PAVDisplayableObject@@V?$allocator@PAVDisplayableObject@@@std@@@std@@AAEXIABU_Value_init_tag@1@@Z$2 00400000     ZoomingDemo.obj
 0002:fffbe000       __ehfuncinfo$??$_Deallocate@$07$0A@@std@@YAXPAXI@Z 00400000     ZoomingDemo.obj
 0002:fffbe000       __ehfuncinfo$??$_Deallocate_plain@V?$allocator@U_Container_proxy@std@@@std@@@std@@YAXAAV?$allocator@U_Container_proxy@std@@@0@QAU_Container_proxy@0@@Z 00400000     ZoomingDemo.obj
 0002:fffbe000       __ehfuncinfo$??$_Freenode0@V?$allocator@U?$_Tree_node@U?$pair@$$CBV?$basic_string@DU?$char_traits@D@std@@V?$allocator@D@2@@std@@V?$weak_ptr@VRawImageData@@@2@@std@@PAX@std@@@std@@@?$_Tree_node@U?$pair@$$CBV?$basic_string@DU?$char_traits@D@std@@V?$allocator@D@2@@std@@V?$weak_ptr@VRawImageData@@@2@@std@@PAX@std@@SAXAAV?$allocator@U?$_Tree_node@U?$pair@$$CBV?$basic_string@DU?$char_traits@D@std@@V?$allocator@D@2@@std@@V?$weak_ptr@VRawImageData@@@2@@std@@PAX@std@@@1@PAU01@@Z 00400000     ZoomingDemo.obj
 0002:fffbe000       __ehfuncinfo$??$_Freenode@V?$allocator@U?$_Tree_node@U?$pair@$$CBV?$basic_string@DU?$char_traits@D@std@@V?$allocator@D@2@@std@@V?$weak_ptr@VRawImageData@@@2@@std@@PAX@std@@@std@@@?$_Tree_node@U?$pair@$$CBV?$basic_string@DU?$char_traits@D@std@@V?$allocator@D@2@@std@@V?$weak_ptr@VRawImageData@@@2@@std@@PAX@std@@SAXAAV?$allocator@U?$_Tree_node@U?$pair@$$CBV?$basic_string@DU?$char_traits@D@std@@V?$allocator@D@2@@std@@V?$weak_ptr@VRawImageData@@@2@@std@@PAX@std@@@1@PAU01@@Z 00400000     ZoomingDemo.obj
 0002:fffbe000       __ehfuncinfo$??0?$basic_string@DU?$char_traits@D@std@@V?$allocator@D@2@@std@@QAE@$$QAV01@@Z 00400000     ZoomingDemo.obj
 0002:fffbe000       __ehfuncinfo$??1?$_Alloc_construct_ptr@V?$allocator@U?$_Tree_node@U?$pair@$$CBV?$basic_string@DU?$char_traits@D@std@@V?$allocator@D@2@@std@@V?$shared_ptr@VRawImageData@@@2@@std@@PAX@std@@@std@@@std@@QAE@XZ 00400000     ZoomingDemo.obj
 0002:fffbe000       __ehfuncinfo$??1?$_Alloc_construct_ptr@V?$allocator@U?$_Tree_node@U?$pair@$$CBV?$basic_string@DU?$char_traits@D@std@@V?$allocator@D@2@@std@@V?$weak_ptr@VRawImageData@@@2@@std@@PAX@std@@@std@@@std@@QAE@XZ 00400000     ZoomingDemo.obj
 0002:fffbe000       __ehfuncinfo$??1?$_Tree_temp_node@V?$allocator@U?$_Tree_node@U?$pair@$$CBV?$basic_string@DU?$char_traits@D@std@@V?$allocator@D@2@@std@@V?$shared_ptr@VRawImageData@@@2@@std@@PAX@std@@@std@@@std@@QAE@XZ 00400000     ZoomingDemo.obj
 0002:fffbe000       __ehfuncinfo$??1?$_Tree_temp_node@V?$allocator@U?$_Tree_node@U?$pair@$$CBV?$basic_string@DU?$char_traits@D@std@@V?$allocator@D@2@@std@@V?$weak_ptr@VRawImageData@@@2@@std@@PAX@std@@@std@@@std@@QAE@XZ 00400000     ZoomingDemo.obj
 0002:fffbe000       __ehfuncinfo$??1RawImageData@@QAE@XZ 00400000     ZoomingDemo.obj
 0002:fffbe000       __ehfuncinfo$??1_Sentry_base@?$basic_ostream@DU?$char_traits@D@std@@@std@@QAE@XZ 00400000     ZoomingDemo.obj
 0002:fffbe000       __ehfuncinfo$??1sentry@?$basic_ostream@DU?$char_traits@D@std@@@std@@QAE@XZ 00400000     ZoomingDemo.obj
 0002:fffbe000       __ehfuncinfo$?_Take_contents@?$basic_string@DU?$char_traits@D@std@@V?$allocator@D@2@@std@@AAEXAAV12@@Z 00400000     ZoomingDemo.obj
 0002:fffbe000       __ehfuncinfo$?_Tidy_deallocate@?$basic_string@DU?$char_traits@D@std@@V?$allocator@D@2@@std@@AAEXXZ 00400000     ZoomingDemo.obj
 0002:fffbe000       __ehfuncinfo$?getImagePtrbyURL@ImageManager@@QAE?AV?$shared_ptr@VRawImageData@@@std@@V?$basic_string@DU?$char_traits@D@std@@V?$allocator@D@2@@3@_N1@Z 00400000     ZoomingDemo.obj
 0001:fffff000       __ehhandler$??$_Deallocate@$07$0A@@std@@YAXPAXI@Z 00400000 f   ZoomingDemo.obj
 0001:fffff000       __ehhandler$??$_Deallocate_plain@V?$allocator@U_Container_proxy@std@@@std@@@std@@YAXAAV?$allocator@U_Container_proxy@std@@@0@QAU_Container_proxy@0@@Z 00400000 f   ZoomingDemo.obj
 0001:fffff000       __ehhandler$??$_Freenode0@V?$allocator@U?$_Tree_node@U?$pair@$$CBV?$basic_string@DU?$char_traits@D@std@@V?$allocator@D@2@@std@@V?$weak_ptr@VRawImageData@@@2@@std@@PAX@std@@@std@@@?$_Tree_node@U?$pair@$$CBV?$basic_string@DU?$char_traits@D@std@@V?$allocator@D@2@@std@@V?$weak_ptr@VRawImageData@@@2@@std@@PAX@std@@SAXAAV?$allocator@U?$_Tree_node@U?$pair@$$CBV?$basic_string@DU?$char_traits@D@std@@V?$allocator@D@2@@std@@V?$weak_ptr@VRawImageData@@@2@@std@@PAX@std@@@1@PAU01@@Z 00400000 f   ZoomingDemo.obj
 0001:fffff000       __ehhandler$??$_Freenode@V?$allocator@U?$_Tree_node@U?$pair@$$CBV?$basic_string@DU?$char_traits@D@std@@V?$allocator@D@2@@std@@V?$weak_ptr@VRawImageData@@@2@@std@@PAX@std@@@std@@@?$_Tree_node@U?$pair@$$CBV?$basic_string@DU?$char_traits@D@std@@V?$allocator@D@2@@std@@V?$weak_ptr@VRawImageData@@@2@@std@@PAX@std@@SAXAAV?$allocator@U?$_Tree_node@U?$pair@$$CBV?$basic_string@DU?$char_traits@D@std@@V?$allocator@D@2@@std@@V?$weak_ptr@VRawImageData@@@2@@std@@PAX@std@@@1@PAU01@@Z 00400000 f   ZoomingDemo.obj
 0001:fffff000       __ehhandler$??$_Resize_reallocate@U_Value_init_tag@std@@@?$vector@PAVDisplayableObject@@V?$allocator@PAVDisplayableObject@@@std@@@std@@AAEXIABU_Value_init_tag@1@@Z 00400000 f   ZoomingDemo.obj
 0001:fffff000       __ehhandler$??0?$basic_string@DU?$char_traits@D@std@@V?$allocator@D@2@@std@@QAE@$$QAV01@@Z 00400000 f   ZoomingDemo.obj
 0001:fffff000       __ehhandler$??1?$_Alloc_construct_ptr@V?$allocator@U?$_Tree_node@U?$pair@$$CBV?$basic_string@DU?$char_traits@D@std@@V?$allocator@D@2@@std@@V?$shared_ptr@VRawImageData@@@2@@std@@PAX@std@@@std@@@std@@QAE@XZ 00400000 f   ZoomingDemo.obj
 0001:fffff000       __ehhandler$??1?$_Alloc_construct_ptr@V?$allocator@U?$_Tree_node@U?$pair@$$CBV?$basic_string@DU?$char_traits@D@std@@V?$allocator@D@2@@std@@V?$weak_ptr@VRawImageData@@@2@@std@@PAX@std@@@std@@@std@@QAE@XZ 00400000 f   ZoomingDemo.obj
 0001:fffff000       __ehhandler$??1?$_Tree_temp_node@V?$allocator@U?$_Tree_node@U?$pair@$$CBV?$basic_string@DU?$char_traits@D@std@@V?$allocator@D@2@@std@@V?$shared_ptr@VRawImageData@@@2@@std@@PAX@std@@@std@@@std@@QAE@XZ 00400000 f   ZoomingDemo.obj
 0001:fffff000       __ehhandler$??1?$_Tree_temp_node@V?$allocator@U?$_Tree_node@U?$pair@$$CBV?$basic_string@DU?$char_traits@D@std@@V?$allocator@D@2@@std@@V?$weak_ptr@VRawImageData@@@2@@std@@PAX@std@@@std@@@std@@QAE@XZ 00400000 f   ZoomingDemo.obj
 0001:fffff000       __ehhandler$??1RawImageData@@QAE@XZ 00400000 f   ZoomingDemo.obj
 0001:fffff000       __ehhandler$??1_Sentry_base@?$basic_ostream@DU?$char_traits@D@std@@@std@@QAE@XZ 00400000 f   ZoomingDemo.obj
 0001:fffff000       __ehhandler$??1sentry@?$basic_ostream@DU?$char_traits@D@std@@@std@@QAE@XZ 00400000 f   ZoomingDemo.obj
 0001:fffff000       __ehhandler$?_Take_contents@?$basic_string@DU?$char_traits@D@std@@V?$allocator@D@2@@std@@AAEXAAV12@@Z 00400000 f   ZoomingDemo.obj
 0001:fffff000       __ehhandler$?_Tidy_deallocate@?$basic_string@DU?$char_traits@D@std@@V?$allocator@D@2@@std@@AAEXXZ 00400000 f   ZoomingDemo.obj
 0001:fffff000       __unwindfunclet$??$?0U?$pair@V?$basic_string@DU?$char_traits@D@std@@V?$allocator@D@2@@std@@V?$shared_ptr@VRawImageData@@@2@@std@@@?$_Tree_temp_node@V?$allocator@U?$_Tree_node@U?$pair@$$CBV?$basic_string@DU?$char_traits@D@std@@V?$allocator@D@2@@std@@V?$shared_ptr@VRawImageData@@@2@@std@@PAX@std@@@std@@@std@@QAE@AAV?$allocator@U?$_Tree_node@U?$pair@$$CBV?$basic_string@DU?$char_traits@D@std@@V?$allocator@D@2@@std@@V?$shared_ptr@VRawImageData@@@2@@std@@PAX@std@@@1@PAU?$_Tree_node@U?$pair@$$CBV?$basic_string@DU?$char_traits@D@std@@V?$allocator@D@2@@std@@V?$shared_ptr@VRawImageData@@@2@@std@@PAX@1@$$QAU?$pair@V?$basic_string@DU?$char_traits@D@std@@V?$allocator@D@2@@std@@V?$shared_ptr@VRawImageData@@@2@@1@@Z$0 00400000 f   ZoomingDemo.obj
 0001:fffff000       __unwindfunclet$??$?0U?$pair@V?$basic_string@DU?$char_traits@D@std@@V?$allocator@D@2@@std@@V?$weak_ptr@VRawImageData@@@2@@std@@@?$_Tree_temp_node@V?$allocator@U?$_Tree_node@U?$pair@$$CBV?$basic_string@DU?$char_traits@D@std@@V?$allocator@D@2@@std@@V?$weak_ptr@VRawImageData@@@2@@std@@PAX@std@@@std@@@std@@QAE@AAV?$allocator@U?$_Tree_node@U?$pair@$$CBV?$basic_string@DU?$char_traits@D@std@@V?$allocator@D@2@@std@@V?$weak_ptr@VRawImageData@@@2@@std@@PAX@std@@@1@PAU?$_Tree_node@U?$pair@$$CBV?$basic_string@DU?$char_traits@D@std@@V?$allocator@D@2@@std@@V?$weak_ptr@VRawImageData@@@2@@std@@PAX@1@$$QAU?$pair@V?$basic_string@DU?$char_traits@D@std@@V?$allocator@D@2@@std@@V?$weak_ptr@VRawImageData@@@2@@1@@Z$0 00400000 f   ZoomingDemo.obj
 0001:fffff000       __unwindfunclet$??$?0VRawImageData@@$0A@@?$shared_ptr@VRawImageData@@@std@@QAE@PAVRawImageData@@@Z$0 00400000 f   ZoomingDemo.obj
 0001:fffff000       __unwindfunclet$??$?6U?$char_traits@D@std@@@std@@YAAAV?$basic_ostream@DU?$char_traits@D@std@@@0@AAV10@PBD@Z$2 00400000 f   ZoomingDemo.obj
 0001:fffff000       __unwindfunclet$??$_Construct@$00PBD@?$basic_string@DU?$char_traits@D@std@@V?$allocator@D@2@@std@@AAEXQBDI@Z$0 00400000 f   ZoomingDemo.obj
 0001:fffff000       __unwindfunclet$??$_Construct@$01PBD@?$basic_string@DU?$char_traits@D@std@@V?$allocator@D@2@@std@@AAEXQBDI@Z$0 00400000 f   ZoomingDemo.obj
 0001:fffff000       __unwindfunclet$??$_Insert_string@DU?$char_traits@D@std@@I@std@@YAAAV?$basic_ostream@DU?$char_traits@D@std@@@0@AAV10@QBDI@Z$2 00400000 f   ZoomingDemo.obj
 0001:fffff000       __unwindfunclet$??$_Uninitialized_move@PAPAVDisplayableObject@@V?$allocator@PAVDisplayableObject@@@std@@@std@@YAPAPAVDisplayableObject@@QAPAV1@0PAPAV1@AAV?$allocator@PAVDisplayableObject@@@0@@Z$0 00400000 f   ZoomingDemo.obj
 0001:fffff000       __unwindfunclet$??$_Uninitialized_value_construct_n@V?$allocator@PAVDisplayableObject@@@std@@@std@@YAPAPAVDisplayableObject@@PAPAV1@IAAV?$allocator@PAVDisplayableObject@@@0@@Z$0 00400000 f   ZoomingDemo.obj
 0001:fffff000       __unwindfunclet$??0?$_Tree_temp_node_alloc@V?$allocator@U?$_Tree_node@U?$pair@$$CBV?$basic_string@DU?$char_traits@D@std@@V?$allocator@D@2@@std@@V?$shared_ptr@VRawImageData@@@2@@std@@PAX@std@@@std@@@std@@QAE@AAV?$allocator@U?$_Tree_node@U?$pair@$$CBV?$basic_string@DU?$char_traits@D@std@@V?$allocator@D@2@@std@@V?$shared_ptr@VRawImageData@@@2@@std@@PAX@std@@@1@@Z$0 00400000 f   ZoomingDemo.obj
 0001:fffff000       __unwindfunclet$??0?$_Tree_temp_node_alloc@V?$allocator@U?$_Tree_node@U?$pair@$$CBV?$basic_string@DU?$char_traits@D@std@@V?$allocator@D@2@@std@@V?$weak_ptr@VRawImageData@@@2@@std@@PAX@std@@@std@@@std@@QAE@AAV?$allocator@U?$_Tree_node@U?$pair@$$CBV?$basic_string@DU?$char_traits@D@std@@V?$allocator@D@2@@std@@V?$weak_ptr@VRawImageData@@@2@@std@@PAX@std@@@1@@Z$0 00400000 f   ZoomingDemo.obj
 0001:fffff000       __unwindfunclet$??0?$basic_string@DU?$char_traits@D@std@@V?$allocator@D@2@@std@@QAE@ABV01@@Z$0 00400000 f   ZoomingDemo.obj
 0001:fffff000       __unwindfunclet$??0?$basic_string@DU?$char_traits@D@std@@V?$allocator@D@2@@std@@QAE@QBD@Z$0 00400000 f   ZoomingDemo.obj
 0001:fffff000       __unwindfunclet$??0DragableImageObject@@QAE@HHPAVBaseEngine@@V?$basic_string@DU?$char_traits@D@std@@V?$allocator@D@2@@std@@_N2@Z$0 00400000 f   ZoomingDemo.obj
 0001:fffff000       __unwindfunclet$??0DragableObject@@QAE@HHPAVBaseEngine@@HH_N1@Z$0 00400000 f   ZoomingDemo.obj
 0001:fffff000       __unwindfunclet$??0ImageManager@@QAE@XZ$0 00400000 f   ZoomingDemo.obj
 0001:fffff000       __unwindfunclet$??0RawImageData@@QAE@V?$basic_string@DU?$char_traits@D@std@@V?$allocator@D@2@@std@@@Z$0 00400000 f   ZoomingDemo.obj
 0001:fffff000       __unwindfunclet$??0sentry@?$basic_ostream@DU?$char_traits@D@std@@@std@@QAE@AAV12@@Z$0 00400000 f   ZoomingDemo.obj
 0001:fffff000       __unwindfunclet$?_Alloc_sentinel_and_proxy@?$_Tree@V?$_Tmap_traits@V?$basic_string@DU?$char_traits@D@std@@V?$allocator@D@2@@std@@V?$shared_ptr@VRawImageData@@@2@U?$less@V?$basic_string@DU?$char_traits@D@std@@V?$allocator@D@2@@std@@@2@V?$allocator@U?$pair@$$CBV?$basic_string@DU?$char_traits@D@std@@V?$allocator@D@2@@std@@V?$shared_ptr@VRawImageData@@@2@@std@@@2@$0A@@std@@@std@@IAEXXZ$0 00400000 f   ZoomingDemo.obj
 0001:fffff000       __unwindfunclet$?_Alloc_sentinel_and_proxy@?$_Tree@V?$_Tmap_traits@V?$basic_string@DU?$char_traits@D@std@@V?$allocator@D@2@@std@@V?$weak_ptr@VRawImageData@@@2@U?$less@V?$basic_string@DU?$char_traits@D@std@@V?$allocator@D@2@@std@@@2@V?$allocator@U?$pair@$$CBV?$basic_string@DU?$char_traits@D@std@@V?$allocator@D@2@@std@@V?$weak_ptr@VRawImageData@@@2@@std@@@2@$0A@@std@@@std@@IAEXXZ$0 00400000 f   ZoomingDemo.obj
 0001:fffff000       __unwindfunclet$?_Orphan_range_locked@?$vector@PAVDisplayableObject@@V?$allocator@PAVDisplayableObject@@@std@@@std@@ABEXPAPAVDisplayableObject@@0@Z$0 00400000 f   ZoomingDemo.obj
 0001:fffff000       __unwindfunclet$?get@ImageManager@@SAPAV1@XZ$0 00400000 f   ZoomingDemo.obj
 0001:fffff000       __unwindfunclet$?getImagePtrbyURL@ImageManager@@QAE?AV?$shared_ptr@VRawImageData@@@std@@V?$basic_string@DU?$char_traits@D@std@@V?$allocator@D@2@@3@_N1@Z$0 00400000 f   ZoomingDemo.obj
 0001:fffff000       __unwindfunclet$?getImagebyURL@ImageManager@@QAE?AVSimpleImage@@V?$basic_string@DU?$char_traits@D@std@@V?$allocator@D@2@@std@@_N1@Z$0 00400000 f   ZoomingDemo.obj
 0001:fffff000       __unwindfunclet$?loadAsNew@ImageManager@@QAE?AV?$shared_ptr@VRawImageData@@@std@@V?$basic_string@DU?$char_traits@D@std@@V?$allocator@D@2@@3@@Z$0 00400000 f   ZoomingDemo.obj
 0001:fffff000       __unwindfunclet$?loadImage@RawImageData@@QAE_NV?$basic_string@DU?$char_traits@D@std@@V?$allocator@D@2@@std@@HHHHH_N@Z$0 00400000 f   ZoomingDemo.obj
 0002:fffbe000       __unwindtable$??$?0U?$pair@V?$basic_string@DU?$char_traits@D@std@@V?$allocator@D@2@@std@@V?$shared_ptr@VRawImageData@@@2@@std@@@?$_Tree_temp_node@V?$allocator@U?$_Tree_node@U?$pair@$$CBV?$basic_string@DU?$char_traits@D@std@@V?$allocator@D@2@@std@@V?$shared_ptr@VRawImageData@@@2@@std@@PAX@std@@@std@@@std@@QAE@AAV?$allocator@U?$_Tree_node@U?$pair@$$CBV?$basic_string@DU?$char_traits@D@std@@V?$allocator@D@2@@std@@V?$shared_ptr@VRawImageData@@@2@@std@@PAX@std@@@1@PAU?$_Tree_node@U?$pair@$$CBV?$basic_string@DU?$char_traits@D@std@@V?$allocator@D@2@@std@@V?$shared_ptr@VRawImageData@@@2@@std@@PAX@1@$$QAU?$pair@V?$basic_string@DU?$char_traits@D@std@@V?$allocator@D@2@@std@@V?$shared_ptr@VRawImageData@@@2@@1@@Z 00400000     ZoomingDemo.obj
 0002:fffbe000       __unwindtable$??$?0U?$pair@V?$basic_string@DU?$char_traits@D@std@@V?$allocator@D@2@@std@@V?$weak_ptr@VRawImageData@@@2@@std@@@?$_Tree_temp_node@V?$allocator@U?$_Tree_node@U?$pair@$$CBV?$basic_string@DU?$char_traits@D@std@@V?$allocator@D@2@@std@@V?$weak_ptr@VRawImageData@@@2@@std@@PAX@std@@@std@@@std@@QAE@AAV?$allocator@U?$_Tree_node@U?$pair@$$CBV?$basic_string@DU?$char_traits@D@std@@V?$allocator@D@2@@std@@V?$weak_ptr@VRawImageData@@@2@@std@@PAX@std@@@1@PAU?$_Tree_node@U?$pair@$$CBV?$basic_string@DU?$char_traits@D@std@@V?$allocator@D@2@@std@@V?$weak_ptr@VRawImageData@@@2@@std@@PAX@1@$$QAU?$pair@V?$basic_string@DU?$char_traits@D@std@@V?$allocator@D@2@@std@@V?$weak_ptr@VRawImageData@@@2@@1@@Z 00400000     ZoomingDemo.obj
 0002:fffbe000       __unwindtable$??$?0VRawImageData@@$0A@@?$shared_ptr@VRawImageData@@@std@@QAE@PAVRawImageData@@@Z 00400000     ZoomingDemo.obj
 0002:fffbe000       __unwindtable$??$_Construct@$00PBD@?$basic_string@DU?$char_traits@D@std@@V?$allocator@D@2@@std@@AAEXQBDI@Z 00400000     ZoomingDemo.obj
 0002:fffbe000       __unwindtable$??$_Construct@$01PBD@?$basic_string@DU?$char_traits@D@std@@V?$allocator@D@2@@std@@AAEXQBDI@Z 00400000     ZoomingDemo.obj
 0002:fffbe000       __unwindtable$??$_Uninitialized_move@PAPAVDisplayableObject@@V?$allocator@PAVDisplayableObject@@@std@@@std@@YAPAPAVDisplayableObject@@QAPAV1@0PAPAV1@AAV?$allocator@PAVDisplayableObject@@@0@@Z 00400000     ZoomingDemo.obj
 0002:fffbe000       __unwindtable$??$_Uninitialized_value_construct_n@V?$allocator@PAVDisplayableObject@@@std@@@std@@YAPAPAVDisplayableObject@@PAPAV1@IAAV?$allocator@PAVDisplayableObject@@@0@@Z 00400000     ZoomingDemo.obj
 0002:fffbe000       __unwindtable$??0?$_Tree_temp_node_alloc@V?$allocator@U?$_Tree_node@U?$pair@$$CBV?$basic_string@DU?$char_traits@D@std@@V?$allocator@D@2@@std@@V?$shared_ptr@VRawImageData@@@2@@std@@PAX@std@@@std@@@std@@QAE@AAV?$allocator@U?$_Tree_node@U?$pair@$$CBV?$basic_string@DU?$char_traits@D@std@@V?$allocator@D@2@@std@@V?$shared_ptr@VRawImageData@@@2@@std@@PAX@std@@@1@@Z 00400000     ZoomingDemo.obj
 0002:fffbe000       __unwindtable$??0?$_Tree_temp_node_alloc@V?$allocator@U?$_Tree_node@U?$pair@$$CBV?$basic_string@DU?$char_traits@D@std@@V?$allocator@D@2@@std@@V?$weak_ptr@VRawImageData@@@2@@std@@PAX@std@@@std@@@std@@QAE@AAV?$allocator@U?$_Tree_node@U?$pair@$$CBV?$basic_string@DU?$char_traits@D@std@@V?$allocator@D@2@@std@@V?$weak_ptr@VRawImageData@@@2@@std@@PAX@std@@@1@@Z 00400000     ZoomingDemo.obj
 0002:fffbe000       __unwindtable$??0?$basic_string@DU?$char_traits@D@std@@V?$allocator@D@2@@std@@QAE@ABV01@@Z 00400000     ZoomingDemo.obj
 0002:fffbe000       __unwindtable$??0?$basic_string@DU?$char_traits@D@std@@V?$allocator@D@2@@std@@QAE@QBD@Z 00400000     ZoomingDemo.obj
 0002:fffbe000       __unwindtable$??0DragableImageObject@@QAE@HHPAVBaseEngine@@V?$basic_string@DU?$char_traits@D@std@@V?$allocator@D@2@@std@@_N2@Z 00400000     ZoomingDemo.obj
 0002:fffbe000       __unwindtable$??0DragableObject@@QAE@HHPAVBaseEngine@@HH_N1@Z 00400000     ZoomingDemo.obj
 0002:fffbe000       __unwindtable$??0ImageManager@@QAE@XZ 00400000     ZoomingDemo.obj
 0002:fffbe000       __unwindtable$??0RawImageData@@QAE@V?$basic_string@DU?$char_traits@D@std@@V?$allocator@D@2@@std@@@Z 00400000     ZoomingDemo.obj
 0002:fffbe000       __unwindtable$??0sentry@?$basic_ostream@DU?$char_traits@D@std@@@std@@QAE@AAV12@@Z 00400000     ZoomingDemo.obj
 0002:fffbe000       __unwindtable$?_Alloc_sentinel_and_proxy@?$_Tree@V?$_Tmap_traits@V?$basic_string@DU?$char_traits@D@std@@V?$allocator@D@2@@std@@V?$shared_ptr@VRawImageData@@@2@U?$less@V?$basic_string@DU?$char_traits@D@std@@V?$allocator@D@2@@std@@@2@V?$allocator@U?$pair@$$CBV?$basic_string@DU?$char_traits@D@std@@V?$allocator@D@2@@std@@V?$shared_ptr@VRawImageData@@@2@@std@@@2@$0A@@std@@@std@@IAEXXZ 00400000     ZoomingDemo.obj
 0002:fffbe000       __unwindtable$?_Alloc_sentinel_and_proxy@?$_Tree@V?$_Tmap_traits@V?$basic_string@DU?$char_traits@D@std@@V?$allocator@D@2@@std@@V?$weak_ptr@VRawImageData@@@2@U?$less@V?$basic_string@DU?$char_traits@D@std@@V?$allocator@D@2@@std@@@2@V?$allocator@U?$pair@$$CBV?$basic_string@DU?$char_traits@D@std@@V?$allocator@D@2@@std@@V?$weak_ptr@VRawImageData@@@2@@std@@@2@$0A@@std@@@std@@IAEXXZ 00400000     ZoomingDemo.obj
 0002:fffbe000       __unwindtable$?_Orphan_range_locked@?$vector@PAVDisplayableObject@@V?$allocator@PAVDisplayableObject@@@std@@@std@@ABEXPAPAVDisplayableObject@@0@Z 00400000     ZoomingDemo.obj
 0002:fffbe000       __unwindtable$?get@ImageManager@@SAPAV1@XZ 00400000     ZoomingDemo.obj
 0002:fffbe000       __unwindtable$?getImagebyURL@ImageManager@@QAE?AVSimpleImage@@V?$basic_string@DU?$char_traits@D@std@@V?$allocator@D@2@@std@@_N1@Z 00400000     ZoomingDemo.obj
 0002:fffbe000       __unwindtable$?loadAsNew@ImageManager@@QAE?AV?$shared_ptr@VRawImageData@@@std@@V?$basic_string@DU?$char_traits@D@std@@V?$allocator@D@2@@3@@Z 00400000     ZoomingDemo.obj
 0002:fffbe000       __unwindtable$?loadImage@RawImageData@@QAE_NV?$basic_string@DU?$char_traits@D@std@@V?$allocator@D@2@@std@@HHHHH_N@Z 00400000     ZoomingDemo.obj
 0000:00000000       _volmd                     00400000     ZoomingDemo.obj
 0000:00000000       _volmd                     00400000     ZoomingDemo.obj
 0000:00000000       _volmd                     00400000     ZoomingDemo.obj
 0000:00000000       _volmd                     00400000     ZoomingDemo.obj
 0000:00000000       _volmd                     00400000     ZoomingDemo.obj
 0000:00000000       _volmd                     00400000     ZoomingDemo.obj
 0000:00000000       _volmd                     00400000     ZoomingDemo.obj
 0000:00000000       _volmd                     00400000     ZoomingDemo.obj
 0000:00000000       _volmd                     00400000     ZoomingDemo.obj
 0000:00000000       _volmd                     00400000     ZoomingDemo.obj
 0000:00000000       _volmd                     00400000     ZoomingDemo.obj
 0000:00000000       _volmd                     00400000     ZoomingDemo.obj
 0000:00000000       _volmd                     00400000     ZoomingDemo.obj
 0000:00000000       _volmd                     00400000     ZoomingDemo.obj
 0000:00000000       _volmd                     00400000     ZoomingDemo.obj
 0000:00000000       _volmd                     00400000     ZoomingDemo.obj
 0000:00000000       _volmd                     00400000     ZoomingDemo.obj
 0000:00000000       _volmd                     00400000     ZoomingDemo.obj
 0000:00000000       _volmd                     00400000     ZoomingDemo.obj
 0000:00000000       _volmd                     00400000     ZoomingDemo.obj
 0000:00000000       _volmd                     00400000     ZoomingDemo.obj
 0000:00000000       _volmd                     00400000     ZoomingDemo.obj
 0000:00000000       _volmd                     00400000     ZoomingDemo.obj
 0000:00000000       _volmd                     00400000     ZoomingDemo.obj
 0000:00000000       _volmd                     00400000     ZoomingDemo.obj
 0000:00000000       _volmd                     00400000     ZoomingDemo.obj
 0000:00000000       _volmd                     00400000     ZoomingDemo.obj
 0000:00000000       _volmd                     00400000     ZoomingDemo.obj
 0000:00000000       _volmd                     00400000     ZoomingDemo.obj
 0000:00000000       _volmd                     00400000     ZoomingDemo.obj
 0000:00000000       _volmd                     00400000     ZoomingDemo.obj
 0000:00000000       _volmd                     00400000     ZoomingDemo.obj
 0000:00000000       _volmd                     00400000     ZoomingDemo.obj
 0000:00000000       _volmd                     00400000     ZoomingDemo.obj
 0000:00000000       _volmd                     00400000     ZoomingDemo.obj
 0000:00000000       _volmd                     00400000     ZoomingDemo.obj
 0000:00000000       _volmd                     00400000     ZoomingDemo.obj
 0000:00000000       _volmd                     00400000     ZoomingDemo.obj
 0000:00000000       _volmd                     00400000     ZoomingDemo.obj
 0000:00000000       _volmd                     00400000     ZoomingDemo.obj
 0000:00000000       _volmd                     00400000     ZoomingDemo.obj
 0000:00000000       _volmd                     00400000     ZoomingDemo.obj
 0000:00000000       _volmd                     00400000     ZoomingDemo.obj
 0000:00000000       _volmd                     00400000     ZoomingDemo.obj
 0000:00000000       _volmd                     00400000     ZoomingDemo.obj
 0002:fffbe000       __ehfuncinfo$??$_Deallocate@$07$0A@@std@@YAXPAXI@Z 00400000     mainfunction.obj
 0002:fffbe000       __ehfuncinfo$??$_Deallocate_plain@V?$allocator@U_Container_proxy@std@@@std@@@std@@YAXAAV?$allocator@U_Container_proxy@std@@@0@QAU_Container_proxy@0@@Z 00400000     mainfunction.obj
 0002:fffbe000       __ehfuncinfo$??$_Freenode0@V?$allocator@U?$_Tree_node@U?$pair@$$CBV?$basic_string@DU?$char_traits@D@std@@V?$allocator@D@2@@std@@V?$weak_ptr@VRawImageData@@@2@@std@@PAX@std@@@std@@@?$_Tree_node@U?$pair@$$CBV?$basic_string@DU?$char_traits@D@std@@V?$allocator@D@2@@std@@V?$weak_ptr@VRawImageData@@@2@@std@@PAX@std@@SAXAAV?$allocator@U?$_Tree_node@U?$pair@$$CBV?$basic_string@DU?$char_traits@D@std@@V?$allocator@D@2@@std@@V?$weak_ptr@VRawImageData@@@2@@std@@PAX@std@@@1@PAU01@@Z 00400000     mainfunction.obj
 0002:fffbe000       __ehfuncinfo$??$_Freenode@V?$allocator@U?$_Tree_node@U?$pair@$$CBV?$basic_string@DU?$char_traits@D@std@@V?$allocator@D@2@@std@@V?$weak_ptr@VRawImageData@@@2@@std@@PAX@std@@@std@@@?$_Tree_node@U?$pair@$$CBV?$basic_string@DU?$char_traits@D@std@@V?$allocator@D@2@@std@@V?$weak_ptr@VRawImageData@@@2@@std@@PAX@std@@SAXAAV?$allocator@U?$_Tree_node@U?$pair@$$CBV?$basic_string@DU?$char_traits@D@std@@V?$allocator@D@2@@std@@V?$weak_ptr@VRawImageData@@@2@@std@@PAX@std@@@1@PAU01@@Z 00400000     mainfunction.obj
 0002:fffbe000       __ehfuncinfo$?_Tidy_deallocate@?$basic_string@DU?$char_traits@D@std@@V?$allocator@D@2@@std@@AAEXXZ 00400000     mainfunction.obj
 0001:fffff000       __ehhandler$??$_Deallocate@$07$0A@@std@@YAXPAXI@Z 00400000 f   mainfunction.obj
 0001:fffff000       __ehhandler$??$_Deallocate_plain@V?$allocator@U_Container_proxy@std@@@std@@@std@@YAXAAV?$allocator@U_Container_proxy@std@@@0@QAU_Container_proxy@0@@Z 00400000 f   mainfunction.obj
 0001:fffff000       __ehhandler$??$_Freenode0@V?$allocator@U?$_Tree_node@U?$pair@$$CBV?$basic_string@DU?$char_traits@D@std@@V?$allocator@D@2@@std@@V?$weak_ptr@VRawImageData@@@2@@std@@PAX@std@@@std@@@?$_Tree_node@U?$pair@$$CBV?$basic_string@DU?$char_traits@D@std@@V?$allocator@D@2@@std@@V?$weak_ptr@VRawImageData@@@2@@std@@PAX@std@@SAXAAV?$allocator@U?$_Tree_node@U?$pair@$$CBV?$basic_string@DU?$char_traits@D@std@@V?$allocator@D@2@@std@@V?$weak_ptr@VRawImageData@@@2@@std@@PAX@std@@@1@PAU01@@Z 00400000 f   mainfunction.obj
 0001:fffff000       __ehhandler$??$_Freenode@V?$allocator@U?$_Tree_node@U?$pair@$$CBV?$basic_string@DU?$char_traits@D@std@@V?$allocator@D@2@@std@@V?$weak_ptr@VRawImageData@@@2@@std@@PAX@std@@@std@@@?$_Tree_node@U?$pair@$$CBV?$basic_string@DU?$char_traits@D@std@@V?$allocator@D@2@@std@@V?$weak_ptr@VRawImageData@@@2@@std@@PAX@std@@SAXAAV?$allocator@U?$_Tree_node@U?$pair@$$CBV?$basic_string@DU?$char_traits@D@std@@V?$allocator@D@2@@std@@V?$weak_ptr@VRawImageData@@@2@@std@@PAX@std@@@1@PAU01@@Z 00400000 f   mainfunction.obj
 0001:fffff000       __ehhandler$?_Tidy_deallocate@?$basic_string@DU?$char_traits@D@std@@V?$allocator@D@2@@std@@AAEXXZ 00400000 f   mainfunction.obj
 0000:00000000       _volmd                     00400000     mainfunction.obj
 0000:00000000       _volmd                     00400000     mainfunction.obj
 0000:00000000       _volmd                     00400000     mainfunction.obj
 0000:00000000       _volmd                     00400000     mainfunction.obj
 0000:00000000       _volmd                     00400000     mainfunction.obj
 0000:00000000       _volmd                     00400000     mainfunction.obj
 0000:00000000       _volmd                     00400000     mainfunction.obj
 0000:00000000       _volmd                     00400000     mainfunction.obj
 0000:fffa5000       .debug$S                   00400000     SDL2:SDL2.dll
 0000:fffa5000       .debug$S                   00400000     SDL2:SDL2.dll
 0000:fffa5000       .debug$S                   00400000     SDL2:SDL2.dll
 0000:fffa5000       .debug$S                   00400000     SDL2:SDL2.dll
 0000:fffa5000       .debug$S                   00400000     SDL2:SDL2.dll
 0000:fffa5000       .debug$S                   00400000     SDL2:SDL2.dll
 0000:fffa5000       .debug$S                   00400000     SDL2:SDL2.dll
 0000:fffa5000       .debug$S                   00400000     SDL2:SDL2.dll
 0000:fffa5000       .debug$S                   00400000     SDL2:SDL2.dll
 0000:fffa5000       .debug$S                   00400000     SDL2:SDL2.dll
 0000:fffa5000       .debug$S                   00400000     SDL2:SDL2.dll
 0000:fffa5000       .debug$S                   00400000     SDL2:SDL2.dll
 0000:fffa5000       .debug$S                   00400000     SDL2:SDL2.dll
 0000:fffa5000       .debug$S                   00400000     SDL2:SDL2.dll
 0000:fffa5000       .debug$S                   00400000     SDL2:SDL2.dll
 0000:fffa5000       .debug$S                   00400000     SDL2:SDL2.dll
 0000:fffa5000       .debug$S                   00400000     SDL2:SDL2.dll
 0000:fffa5000       .debug$S                   00400000     SDL2:SDL2.dll
 0000:fffa5000       .debug$S                   00400000     SDL2:SDL2.dll
 0000:fffa5000       .debug$S                   00400000     SDL2:SDL2.dll
 0000:fffa5000       .debug$S                   00400000     SDL2:SDL2.dll
 0000:fffa5000       .debug$S                   00400000     SDL2:SDL2.dll
 0000:fffa5000       .debug$S                   00400000     SDL2_image:SDL2_image.dll
 0000:fffa5000       .debug$S                   00400000     SDL2_ttf:SDL2_ttf.dll
 0000:fffa5000       .debug$S                   00400000     SDL2_ttf:SDL2_ttf.dll
 0000:fffa5000       .debug$S                   00400000     SDL2_ttf:SDL2_ttf.dll
 0000:fffa5000       .debug$S                   00400000     SDL2_ttf:SDL2_ttf.dll
 0000:fffa5000       .debug$S                   00400000     SDL2_ttf:SDL2_ttf.dll
 0000:fffa5000       .debug$S                   00400000     ucrtd:ucrtbased.dll
 0000:fffa5000       .debug$S                   00400000     ucrtd:ucrtbased.dll
 0000:fffa5000       .debug$S                   00400000     ucrtd:ucrtbased.dll
 0000:fffa5000       .debug$S                   00400000     ucrtd:ucrtbased.dll
 0000:fffa5000       .debug$S                   00400000     ucrtd:ucrtbased.dll
 0000:fffa5000       .debug$S                   00400000     ucrtd:ucrtbased.dll
 0000:fffa5000       .debug$S                   00400000     ucrtd:ucrtbased.dll
 0000:fffa5000       .debug$S                   00400000     ucrtd:ucrtbased.dll
 0000:fffa5000       .debug$S                   00400000     ucrtd:ucrtbased.dll
 0000:fffa5000       .debug$S                   00400000     ucrtd:ucrtbased.dll
 0000:fffa5000       .debug$S                   00400000     ucrtd:ucrtbased.dll
 0000:fffa5000       .debug$S                   00400000     ucrtd:ucrtbased.dll
 0000:fffa5000       .debug$S                   00400000     ucrtd:ucrtbased.dll
 0000:fffa5000       .debug$S                   00400000     ucrtd:ucrtbased.dll
 0000:fffa5000       .debug$S                   00400000     ucrtd:ucrtbased.dll
 0000:fffa5000       .debug$S                   00400000     ucrtd:ucrtbased.dll
 0000:fffa5000       .debug$S                   00400000     ucrtd:ucrtbased.dll
 0000:fffa5000       .debug$S                   00400000     ucrtd:ucrtbased.dll
 0000:fffa5000       .debug$S                   00400000     ucrtd:ucrtbased.dll
 0000:fffa5000       .debug$S                   00400000     ucrtd:ucrtbased.dll
 0000:fffa5000       .debug$S                   00400000     ucrtd:ucrtbased.dll
 0000:fffa5000       .debug$S                   00400000     ucrtd:ucrtbased.dll
 0000:fffa5000       .debug$S                   00400000     ucrtd:ucrtbased.dll
 0000:fffa5000       .debug$S                   00400000     ucrtd:ucrtbased.dll
 0000:fffa5000       .debug$S                   00400000     ucrtd:ucrtbased.dll
 0000:fffa5000       .debug$S                   00400000     ucrtd:ucrtbased.dll
 0000:fffa5000       .debug$S                   00400000     ucrtd:ucrtbased.dll
 0000:fffa5000       .debug$S                   00400000     ucrtd:ucrtbased.dll
 0000:fffa5000       .debug$S                   00400000     ucrtd:ucrtbased.dll
 0000:fffa5000       .debug$S                   00400000     ucrtd:ucrtbased.dll
 0000:fffa5000       .debug$S                   00400000     ucrtd:ucrtbased.dll
 0000:fffa5000       .debug$S                   00400000     ucrtd:ucrtbased.dll
 0000:fffa5000       .debug$S                   00400000     ucrtd:ucrtbased.dll
 0000:fffa5000       .debug$S                   00400000     ucrtd:ucrtbased.dll
 0000:fffa5000       .debug$S                   00400000     ucrtd:ucrtbased.dll
 0000:fffa5000       .debug$S                   00400000     ucrtd:ucrtbased.dll
 0000:fffa5000       .debug$S                   00400000     ucrtd:ucrtbased.dll
 0000:fffa5000       .debug$S                   00400000     ucrtd:ucrtbased.dll
 0000:fffa5000       .debug$S                   00400000     ucrtd:ucrtbased.dll
 0000:fffa5000       .debug$S                   00400000     ucrtd:ucrtbased.dll
 0000:fffa5000       .debug$S                   00400000     ucrtd:ucrtbased.dll
 0000:fffa5000       .debug$S                   00400000     ucrtd:ucrtbased.dll
 0000:fffa5000       .debug$S                   00400000     ucrtd:ucrtbased.dll
 0000:fffa5000       .debug$S                   00400000     ucrtd:ucrtbased.dll
 0000:fffa5000       .debug$S                   00400000     ucrtd:ucrtbased.dll
 0000:fffa5000       .debug$S                   00400000     ucrtd:ucrtbased.dll
 0000:fffa5000       .debug$S                   00400000     ucrtd:ucrtbased.dll
 0000:fffa5000       .debug$S                   00400000     ucrtd:ucrtbased.dll
 0000:fffa5000       .debug$S                   00400000     ucrtd:ucrtbased.dll
 0000:fffa5000       .debug$S                   00400000     ucrtd:ucrtbased.dll
 0000:fffa5000       .debug$S                   00400000     ucrtd:ucrtbased.dll
 0000:fffa5000       .debug$S                   00400000     ucrtd:ucrtbased.dll
 0000:fffa5000       .debug$S                   00400000     ucrtd:ucrtbased.dll
 0000:fffa5000       .debug$S                   00400000     ucrtd:ucrtbased.dll
 0000:fffa5000       .debug$S                   00400000     ucrtd:ucrtbased.dll
 0000:fffa5000       .debug$S                   00400000     ucrtd:ucrtbased.dll
 0000:fffa5000       .debug$S                   00400000     ucrtd:ucrtbased.dll
 0000:fffa5000       .debug$S                   00400000     ucrtd:ucrtbased.dll
 0000:fffa5000       .debug$S                   00400000     ucrtd:ucrtbased.dll
 0000:fffa5000       .debug$S                   00400000     ucrtd:ucrtbased.dll
 0000:fffa5000       .debug$S                   00400000     ucrtd:ucrtbased.dll
 0000:fffa5000       .debug$S                   00400000     ucrtd:ucrtbased.dll
 0000:fffa5000       .debug$S                   00400000     ucrtd:ucrtbased.dll
 0000:fffa5000       .debug$S                   00400000     ucrtd:ucrtbased.dll
 0000:fffa5000       .debug$S                   00400000     kernel32:KERNEL32.dll
 0000:fffa5000       .debug$S                   00400000     kernel32:KERNEL32.dll
 0000:fffa5000       .debug$S                   00400000     kernel32:KERNEL32.dll
 0000:fffa5000       .debug$S                   00400000     kernel32:KERNEL32.dll
 0000:fffa5000       .debug$S                   00400000     kernel32:KERNEL32.dll
 0000:fffa5000       .debug$S                   00400000     kernel32:KERNEL32.dll
 0000:fffa5000       .debug$S                   00400000     kernel32:KERNEL32.dll
 0000:fffa5000       .debug$S                   00400000     kernel32:KERNEL32.dll
 0000:fffa5000       .debug$S                   00400000     kernel32:KERNEL32.dll
 0000:fffa5000       .debug$S                   00400000     kernel32:KERNEL32.dll
 0000:fffa5000       .debug$S                   00400000     kernel32:KERNEL32.dll
 0000:fffa5000       .debug$S                   00400000     kernel32:KERNEL32.dll
 0000:fffa5000       .debug$S                   00400000     kernel32:KERNEL32.dll
 0000:fffa5000       .debug$S                   00400000     kernel32:KERNEL32.dll
 0000:fffa5000       .debug$S                   00400000     kernel32:KERNEL32.dll
 0000:fffa5000       .debug$S                   00400000     kernel32:KERNEL32.dll
 0000:fffa5000       .debug$S                   00400000     kernel32:KERNEL32.dll
 0000:fffa7000       __guard_fids___except_handler4 00400000     MSVCRTD:chandler4gs.obj
 0000:00000000       _volmd                     00400000     MSVCRTD:cpu_disp.obj
 0000:fffa7000       __guard_fids_?pre_c_initialization@@YAHXZ 00400000     MSVCRTD:exe_main.obj
 0000:fffa7000       __guard_fids__             00400000     MSVCRTD:exe_main.obj
 0000:00000000       _volmd                     00400000     MSVCRTD:gs_report.obj
 0000:fffa7000       __guard_fids__             00400000     MSVCRTD:guard_support.obj
 0000:fffa7000       __guard_fids__             00400000     MSVCRTD:guard_support.obj
 0000:fffa7000       __guard_fids___guard_icall_checks_enforced 00400000     MSVCRTD:guard_support.obj
 0000:00000000       _volmd                     00400000     MSVCRTD:guard_support.obj
 0000:00000000       _volmd                     00400000     MSVCRTD:guard_support.obj
 0000:fffa7000       __guard_fids__             00400000     MSVCRTD:std_type_info_static.obj
 0000:fffa7000       __guard_fids__             00400000     MSVCRTD:throw_bad_alloc.obj
 0000:fffa7000       __guard_fids__             00400000     MSVCRTD:throw_bad_alloc.obj
 0000:fffa7000       __guard_fids__             00400000     MSVCRTD:throw_bad_alloc.obj
 0000:fffa7000       __guard_fids__             00400000     MSVCRTD:throw_bad_alloc.obj
 0000:fffa7000       __guard_fids__             00400000     MSVCRTD:throw_bad_alloc.obj
 0000:fffa7000       __guard_fids__             00400000     MSVCRTD:throw_bad_alloc.obj
 0000:fffa7000       __guard_fids__             00400000     MSVCRTD:throw_bad_alloc.obj
 0000:fffa7000       __guard_fids__             00400000     MSVCRTD:throw_bad_alloc.obj
 0000:fffa7000       __guard_fids____scrt_set_unhandled_exception_filter 00400000     MSVCRTD:utility_desktop.obj
 0000:fffa7000       __guard_fids_??__F_Fac_tidy_reg@std@@YAXXZ 00400000     msvcprtd:locale0_implib.obj
 0000:fffa7000       __guard_fids__             00400000     msvcprtd:locale0_implib.obj
 0000:00000000       _volmd                     00400000     msvcprtd:locale0_implib.obj
 0000:00000000       _volmd                     00400000     msvcprtd:vector_algorithms.obj
 0000:00000000       _volmd                     00400000     msvcprtd:vector_algorithms.obj
 0000:00000000       _volmd                     00400000     msvcprtd:vector_algorithms.obj
 0000:00000000       _volmd                     00400000     msvcprtd:vector_algorithms.obj
 0000:00000000       _volmd                     00400000     msvcprtd:vector_algorithms.obj
 0000:00000000       _volmd                     00400000     msvcprtd:vector_algorithms.obj
 0000:00000000       _volmd                     00400000     msvcprtd:vector_algorithms.obj
 0000:00000000       _volmd                     00400000     msvcprtd:vector_algorithms.obj
 0000:00000000       _volmd                     00400000     msvcprtd:vector_algorithms.obj
 0000:00000000       _volmd                     00400000     msvcprtd:vector_algorithms.obj
 0000:00000000       _volmd                     00400000     msvcprtd:vector_algorithms.obj
 0000:00000000       _volmd                     00400000     msvcprtd:vector_algorithms.obj
 0000:fffa5000       .debug$S                   00400000     msvcprtd:MSVCP140D.dll
 0000:fffa5000       .debug$S                   00400000     msvcprtd:MSVCP140D.dll
 0000:fffa5000       .debug$S                   00400000     msvcprtd:MSVCP140D.dll
 0000:fffa5000       .debug$S                   00400000     msvcprtd:MSVCP140D.dll
 0000:fffa5000       .debug$S                   00400000     msvcprtd:MSVCP140D.dll
 0000:fffa5000       .debug$S                   00400000     msvcprtd:MSVCP140D.dll
 0000:fffa5000       .debug$S                   00400000     msvcprtd:MSVCP140D.dll
 0000:fffa5000       .debug$S                   00400000     msvcprtd:MSVCP140D.dll
 0000:fffa5000       .debug$S                   00400000     msvcprtd:MSVCP140D.dll
 0000:fffa5000       .debug$S                   00400000     msvcprtd:MSVCP140D.dll
 0000:fffa5000       .debug$S                   00400000     msvcprtd:MSVCP140D.dll
 0000:fffa5000       .debug$S                   00400000     msvcprtd:MSVCP140D.dll
 0000:fffa5000       .debug$S                   00400000     msvcprtd:MSVCP140D.dll
 0000:fffa5000       .debug$S                   00400000     msvcprtd:MSVCP140D.dll
 0000:fffa5000       .debug$S                   00400000     msvcprtd:MSVCP140D.dll
 0000:fffa5000       .debug$S                   00400000     msvcprtd:MSVCP140D.dll
 0000:fffa5000       .debug$S                   00400000     msvcprtd:MSVCP140D.dll
 0000:fffa5000       .debug$S                   00400000     msvcprtd:MSVCP140D.dll
 0000:fffa5000       .debug$S                   00400000     msvcprtd:MSVCP140D.dll
 0000:fffa5000       .debug$S                   00400000     msvcprtd:MSVCP140D.dll
 0000:fffa5000       .debug$S                   00400000     msvcprtd:MSVCP140D.dll
 0000:fffa5000       .debug$S                   00400000     msvcprtd:MSVCP140D.dll
 0000:fffa5000       .debug$S                   00400000     msvcprtd:MSVCP140D.dll
 0000:fffa5000       .debug$S                   00400000     msvcprtd:MSVCP140D.dll
 0000:fffa5000       .debug$S                   00400000     msvcprtd:MSVCP140D.dll
 0000:fffa5000       .debug$S                   00400000     msvcprtd:MSVCP140D.dll
 0000:fffa5000       .debug$S                   00400000     msvcprtd:MSVCP140D.dll
 0000:fffa5000       .debug$S                   00400000     msvcprtd:MSVCP140D.dll
 0000:fffa5000       .debug$S                   00400000     msvcprtd:MSVCP140D.dll
 0000:fffa5000       .debug$S                   00400000     msvcprtd:MSVCP140D.dll
 0000:fffa5000       .debug$S                   00400000     msvcprtd:MSVCP140D.dll
 0000:fffa5000       .debug$S                   00400000     msvcprtd:MSVCP140D.dll
 0000:fffa5000       .debug$S                   00400000     msvcprtd:MSVCP140D.dll
 0000:fffa5000       .debug$S                   00400000     msvcprtd:MSVCP140D.dll
 0000:fffa5000       .debug$S                   00400000     msvcprtd:MSVCP140D.dll
 0000:fffa5000       .debug$S                   00400000     msvcprtd:MSVCP140D.dll
 0000:fffa5000       .debug$S                   00400000     msvcprtd:MSVCP140D.dll
 0000:fffa5000       .debug$S                   00400000     msvcprtd:MSVCP140D.dll
 0000:fffa5000       .debug$S                   00400000     msvcprtd:MSVCP140D.dll
 0000:fffa5000       .debug$S                   00400000     msvcprtd:MSVCP140D.dll
 0000:fffa5000       .debug$S                   00400000     msvcprtd:MSVCP140D.dll
 0000:fffa5000       .debug$S                   00400000     msvcprtd:MSVCP140D.dll
 0000:fffa5000       .debug$S                   00400000     msvcprtd:MSVCP140D.dll
 0000:fffa5000       .debug$S                   00400000     msvcprtd:MSVCP140D.dll
 0000:fffa5000       .debug$S                   00400000     msvcprtd:MSVCP140D.dll
 0000:fffa5000       .debug$S                   00400000     msvcprtd:MSVCP140D.dll
 0000:fffa5000       .debug$S                   00400000     msvcprtd:MSVCP140D.dll
 0000:fffa5000       .debug$S                   00400000     msvcprtd:MSVCP140D.dll
 0000:fffa5000       .debug$S                   00400000     msvcprtd:MSVCP140D.dll
 0000:fffa5000       .debug$S                   00400000     msvcprtd:MSVCP140D.dll
 0000:fffa5000       .debug$S                   00400000     msvcprtd:MSVCP140D.dll
 0000:fffa5000       .debug$S                   00400000     msvcprtd:MSVCP140D.dll
 0000:fffa5000       .debug$S                   00400000     msvcprtd:MSVCP140D.dll
 0000:fffa5000       .debug$S                   00400000     msvcprtd:MSVCP140D.dll
 0000:fffa5000       .debug$S                   00400000     msvcprtd:MSVCP140D.dll
 0000:fffa5000       .debug$S                   00400000     msvcprtd:MSVCP140D.dll
 0000:fffa5000       .debug$S                   00400000     msvcprtd:MSVCP140D.dll
 0000:fffa5000       .debug$S                   00400000     msvcprtd:MSVCP140D.dll
 0000:fffa5000       .debug$S                   00400000     msvcprtd:MSVCP140D.dll
 0000:fffa5000       .debug$S                   00400000     msvcprtd:MSVCP140D.dll
 0000:fffa5000       .debug$S                   00400000     msvcprtd:MSVCP140D.dll
 0000:fffa5000       .debug$S                   00400000     msvcprtd:MSVCP140D.dll
 0000:fffa5000       .debug$S                   00400000     msvcprtd:MSVCP140D.dll
 0000:fffa5000       .debug$S                   00400000     msvcprtd:MSVCP140D.dll
 0000:fffa5000       .debug$S                   00400000     msvcprtd:MSVCP140D.dll
 0000:fffa5000       .debug$S                   00400000     msvcprtd:MSVCP140D.dll
 0000:fffa5000       .debug$S                   00400000     msvcprtd:MSVCP140D.dll
 0000:fffa5000       .debug$S                   00400000     msvcprtd:MSVCP140D.dll
 0000:fffa5000       .debug$S                   00400000     msvcprtd:MSVCP140D.dll
 0000:fffa5000       .debug$S                   00400000     vcruntimed:VCRUNTIME140D.dll
 0000:fffa5000       .debug$S                   00400000     vcruntimed:VCRUNTIME140D.dll
 0000:fffa5000       .debug$S                   00400000     vcruntimed:VCRUNTIME140D.dll
 0000:fffa5000       .debug$S                   00400000     vcruntimed:VCRUNTIME140D.dll
 0000:fffa5000       .debug$S                   00400000     vcruntimed:VCRUNTIME140D.dll
 0000:fffa5000       .debug$S                   00400000     vcruntimed:VCRUNTIME140D.dll
 0000:fffa5000       .debug$S                   00400000     vcruntimed:VCRUNTIME140D.dll
 0000:fffa5000       .debug$S                   00400000     vcruntimed:VCRUNTIME140D.dll
 0000:fffa5000       .debug$S                   00400000     vcruntimed:VCRUNTIME140D.dll
 0000:fffa5000       .debug$S                   00400000     vcruntimed:VCRUNTIME140D.dll
 0000:fffa5000       .debug$S                   00400000     vcruntimed:VCRUNTIME140D.dll
 0000:fffa5000       .debug$S                   00400000     vcruntimed:VCRUNTIME140D.dll
 0000:fffa5000       .debug$S                   00400000     vcruntimed:VCRUNTIME140D.dll
 0000:fffa5000       .debug$S                   00400000     vcruntimed:VCRUNTIME140D.dll
 0000:fffa7004       __guard_fids__             00400004     MSVCRTD:exe_main.obj
 0002:fffbe008       __ehfuncinfo$??$?0U?$pair@V?$basic_string@DU?$char_traits@D@std@@V?$allocator@D@2@@std@@V?$shared_ptr@VRawImageData@@@2@@std@@@?$_Tree_temp_node@V?$allocator@U?$_Tree_node@U?$pair@$$CBV?$basic_string@DU?$char_traits@D@std@@V?$allocator@D@2@@std@@V?$shared_ptr@VRawImageData@@@2@@std@@PAX@std@@@std@@@std@@QAE@AAV?$allocator@U?$_Tree_node@U?$pair@$$CBV?$basic_string@DU?$char_traits@D@std@@V?$allocator@D@2@@std@@V?$shared_ptr@VRawImageData@@@2@@std@@PAX@std@@@1@PAU?$_Tree_node@U?$pair@$$CBV?$basic_string@DU?$char_traits@D@std@@V?$allocator@D@2@@std@@V?$shared_ptr@VRawImageData@@@2@@std@@PAX@1@$$QAU?$pair@V?$basic_string@DU?$char_traits@D@std@@V?$allocator@D@2@@std@@V?$shared_ptr@VRawImageData@@@2@@1@@Z 00400008     Attack.obj
 0002:fffbe008       __ehfuncinfo$??$?0U?$pair@V?$basic_string@DU?$char_traits@D@std@@V?$allocator@D@2@@std@@V?$weak_ptr@VRawImageData@@@2@@std@@@?$_Tree_temp_node@V?$allocator@U?$_Tree_node@U?$pair@$$CBV?$basic_string@DU?$char_traits@D@std@@V?$allocator@D@2@@std@@V?$weak_ptr@VRawImageData@@@2@@std@@PAX@std@@@std@@@std@@QAE@AAV?$allocator@U?$_Tree_node@U?$pair@$$CBV?$basic_string@DU?$char_traits@D@std@@V?$allocator@D@2@@std@@V?$weak_ptr@VRawImageData@@@2@@std@@PAX@std@@@1@PAU?$_Tree_node@U?$pair@$$CBV?$basic_string@DU?$char_traits@D@std@@V?$allocator@D@2@@std@@V?$weak_ptr@VRawImageData@@@2@@std@@PAX@1@$$QAU?$pair@V?$basic_string@DU?$char_traits@D@std@@V?$allocator@D@2@@std@@V?$weak_ptr@VRawImageData@@@2@@1@@Z 00400008     Attack.obj
 0002:fffbe008       __ehfuncinfo$??$_Construct@$01PBD@?$basic_string@DU?$char_traits@D@std@@V?$allocator@D@2@@std@@AAEXQBDI@Z 00400008     Attack.obj
 0002:fffbe008       __ehfuncinfo$??0?$_Tree_temp_node_alloc@V?$allocator@U?$_Tree_node@U?$pair@$$CBV?$basic_string@DU?$char_traits@D@std@@V?$allocator@D@2@@std@@V?$shared_ptr@VRawImageData@@@2@@std@@PAX@std@@@std@@@std@@QAE@AAV?$allocator@U?$_Tree_node@U?$pair@$$CBV?$basic_string@DU?$char_traits@D@std@@V?$allocator@D@2@@std@@V?$shared_ptr@VRawImageData@@@2@@std@@PAX@std@@@1@@Z 00400008     Attack.obj
 0002:fffbe008       __ehfuncinfo$??0?$_Tree_temp_node_alloc@V?$allocator@U?$_Tree_node@U?$pair@$$CBV?$basic_string@DU?$char_traits@D@std@@V?$allocator@D@2@@std@@V?$weak_ptr@VRawImageData@@@2@@std@@PAX@std@@@std@@@std@@QAE@AAV?$allocator@U?$_Tree_node@U?$pair@$$CBV?$basic_string@DU?$char_traits@D@std@@V?$allocator@D@2@@std@@V?$weak_ptr@VRawImageData@@@2@@std@@PAX@std@@@1@@Z 00400008     Attack.obj
 0002:fffbe008       __ehfuncinfo$??0?$basic_string@DU?$char_traits@D@std@@V?$allocator@D@2@@std@@QAE@ABV01@@Z 00400008     Attack.obj
 0002:fffbe008       __ehfuncinfo$??0ImageManager@@QAE@XZ 00400008     Attack.obj
 0002:fffbe008       __ehfuncinfo$??0RawImageData@@QAE@V?$basic_string@DU?$char_traits@D@std@@V?$allocator@D@2@@std@@@Z 00400008     Attack.obj
 0002:fffbe008       __ehfuncinfo$??0sentry@?$basic_ostream@DU?$char_traits@D@std@@@std@@QAE@AAV12@@Z 00400008     Attack.obj
 0002:fffbe008       __ehfuncinfo$?_Alloc_sentinel_and_proxy@?$_Tree@V?$_Tmap_traits@V?$basic_string@DU?$char_traits@D@std@@V?$allocator@D@2@@std@@V?$shared_ptr@VRawImageData@@@2@U?$less@V?$basic_string@DU?$char_traits@D@std@@V?$allocator@D@2@@std@@@2@V?$allocator@U?$pair@$$CBV?$basic_string@DU?$char_traits@D@std@@V?$allocator@D@2@@std@@V?$shared_ptr@VRawImageData@@@2@@std@@@2@$0A@@std@@@std@@IAEXXZ 00400008     Attack.obj
 0002:fffbe008       __ehfuncinfo$?_Alloc_sentinel_and_proxy@?$_Tree@V?$_Tmap_traits@V?$basic_string@DU?$char_traits@D@std@@V?$allocator@D@2@@std@@V?$weak_ptr@VRawImageData@@@2@U?$less@V?$basic_string@DU?$char_traits@D@std@@V?$allocator@D@2@@std@@@2@V?$allocator@U?$pair@$$CBV?$basic_string@DU?$char_traits@D@std@@V?$allocator@D@2@@std@@V?$weak_ptr@VRawImageData@@@2@@std@@@2@$0A@@std@@@std@@IAEXXZ 00400008     Attack.obj
 0002:fffbe008       __ehfuncinfo$?_Orphan_range_locked@?$vector@PAVDisplayableObject@@V?$allocator@PAVDisplayableObject@@@std@@@std@@ABEXPAPAVDisplayableObject@@0@Z 00400008     Attack.obj
 0002:fffbe008       __ehfuncinfo$?get@ImageManager@@SAPAV1@XZ 00400008     Attack.obj
 0002:fffbe008       __ehfuncinfo$?getImagebyURL@ImageManager@@QAE?AVSimpleImage@@V?$basic_string@DU?$char_traits@D@std@@V?$allocator@D@2@@std@@_N1@Z 00400008     Attack.obj
 0002:fffbe008       __ehfuncinfo$?loadImage@RawImageData@@QAE_NV?$basic_string@DU?$char_traits@D@std@@V?$allocator@D@2@@std@@HHHHH_N@Z 00400008     Attack.obj
 0001:fffff008       __unwindfunclet$??$?0VRawImageData@@$0A@@?$shared_ptr@VRawImageData@@@std@@QAE@PAVRawImageData@@@Z$1 00400008 f   Attack.obj
 0001:fffff008       __unwindfunclet$?getImagePtrbyURL@ImageManager@@QAE?AV?$shared_ptr@VRawImageData@@@std@@V?$basic_string@DU?$char_traits@D@std@@V?$allocator@D@2@@3@_N1@Z$1 00400008 f   Attack.obj
 0001:fffff008       __unwindfunclet$?loadAsNew@ImageManager@@QAE?AV?$shared_ptr@VRawImageData@@@std@@V?$basic_string@DU?$char_traits@D@std@@V?$allocator@D@2@@3@@Z$1 00400008 f   Attack.obj
 0001:fffff008       __unwindfunclet$?loadImage@ImageManager@@SA?AVSimpleImage@@V?$basic_string@DU?$char_traits@D@std@@V?$allocator@D@2@@std@@_N@Z$1 00400008 f   Attack.obj
 0002:fffbe008       __ehfuncinfo$??$_Uninitialized_value_construct_n@V?$allocator@PAVDisplayableObject@@@std@@@std@@YAPAPAVDisplayableObject@@PAPAV1@IAAV?$allocator@PAVDisplayableObject@@@0@@Z 00400008     BaseEngine.obj
 0002:fffbe008       __ehfuncinfo$??0sentry@?$basic_ostream@DU?$char_traits@D@std@@@std@@QAE@AAV12@@Z 00400008     BouncingBall.obj
 0002:fffbe008       __ehfuncinfo$??$_Uninitialized_move@PAPAVDisplayableObject@@V?$allocator@PAVDisplayableObject@@@std@@@std@@YAPAPAVDisplayableObject@@QAPAV1@0PAPAV1@AAV?$allocator@PAVDisplayableObject@@@0@@Z 00400008     BouncingBallMain.obj
 0002:fffbe008       __ehfuncinfo$??$_Uninitialized_value_construct_n@V?$allocator@PAVDisplayableObject@@@std@@@std@@YAPAPAVDisplayableObject@@PAPAV1@IAAV?$allocator@PAVDisplayableObject@@@0@@Z 00400008     BouncingBallMain.obj
 0002:fffbe008       __ehfuncinfo$??0sentry@?$basic_ostream@DU?$char_traits@D@std@@@std@@QAE@AAV12@@Z 00400008     BouncingBallMain.obj
 0002:fffbe008       __ehfuncinfo$?_Orphan_range_locked@?$vector@PAVDisplayableObject@@V?$allocator@PAVDisplayableObject@@@std@@@std@@ABEXPAPAVDisplayableObject@@0@Z 00400008     BouncingBallMain.obj
 0002:fffbe008       __ehfuncinfo$??0sentry@?$basic_ostream@DU?$char_traits@D@std@@@std@@QAE@AAV12@@Z 00400008     DisplayableObject.obj
 0002:fffbe008       __ehfuncinfo$??$?0U?$pair@V?$basic_string@DU?$char_traits@D@std@@V?$allocator@D@2@@std@@V?$shared_ptr@VRawImageData@@@2@@std@@@?$_Tree_temp_node@V?$allocator@U?$_Tree_node@U?$pair@$$CBV?$basic_string@DU?$char_traits@D@std@@V?$allocator@D@2@@std@@V?$shared_ptr@VRawImageData@@@2@@std@@PAX@std@@@std@@@std@@QAE@AAV?$allocator@U?$_Tree_node@U?$pair@$$CBV?$basic_string@DU?$char_traits@D@std@@V?$allocator@D@2@@std@@V?$shared_ptr@VRawImageData@@@2@@std@@PAX@std@@@1@PAU?$_Tree_node@U?$pair@$$CBV?$basic_string@DU?$char_traits@D@std@@V?$allocator@D@2@@std@@V?$shared_ptr@VRawImageData@@@2@@std@@PAX@1@$$QAU?$pair@V?$basic_string@DU?$char_traits@D@std@@V?$allocator@D@2@@std@@V?$shared_ptr@VRawImageData@@@2@@1@@Z 00400008     DraggingDemo.obj
 0002:fffbe008       __ehfuncinfo$??$?0U?$pair@V?$basic_string@DU?$char_traits@D@std@@V?$allocator@D@2@@std@@V?$weak_ptr@VRawImageData@@@2@@std@@@?$_Tree_temp_node@V?$allocator@U?$_Tree_node@U?$pair@$$CBV?$basic_string@DU?$char_traits@D@std@@V?$allocator@D@2@@std@@V?$weak_ptr@VRawImageData@@@2@@std@@PAX@std@@@std@@@std@@QAE@AAV?$allocator@U?$_Tree_node@U?$pair@$$CBV?$basic_string@DU?$char_traits@D@std@@V?$allocator@D@2@@std@@V?$weak_ptr@VRawImageData@@@2@@std@@PAX@std@@@1@PAU?$_Tree_node@U?$pair@$$CBV?$basic_string@DU?$char_traits@D@std@@V?$allocator@D@2@@std@@V?$weak_ptr@VRawImageData@@@2@@std@@PAX@1@$$QAU?$pair@V?$basic_string@DU?$char_traits@D@std@@V?$allocator@D@2@@std@@V?$weak_ptr@VRawImageData@@@2@@1@@Z 00400008     DraggingDemo.obj
 0002:fffbe008       __ehfuncinfo$??$_Construct@$00PBD@?$basic_string@DU?$char_traits@D@std@@V?$allocator@D@2@@std@@AAEXQBDI@Z 00400008     DraggingDemo.obj
 0002:fffbe008       __ehfuncinfo$??$_Construct@$01PBD@?$basic_string@DU?$char_traits@D@std@@V?$allocator@D@2@@std@@AAEXQBDI@Z 00400008     DraggingDemo.obj
 0002:fffbe008       __ehfuncinfo$??0?$_Tree_temp_node_alloc@V?$allocator@U?$_Tree_node@U?$pair@$$CBV?$basic_string@DU?$char_traits@D@std@@V?$allocator@D@2@@std@@V?$shared_ptr@VRawImageData@@@2@@std@@PAX@std@@@std@@@std@@QAE@AAV?$allocator@U?$_Tree_node@U?$pair@$$CBV?$basic_string@DU?$char_traits@D@std@@V?$allocator@D@2@@std@@V?$shared_ptr@VRawImageData@@@2@@std@@PAX@std@@@1@@Z 00400008     DraggingDemo.obj
 0002:fffbe008       __ehfuncinfo$??0?$_Tree_temp_node_alloc@V?$allocator@U?$_Tree_node@U?$pair@$$CBV?$basic_string@DU?$char_traits@D@std@@V?$allocator@D@2@@std@@V?$weak_ptr@VRawImageData@@@2@@std@@PAX@std@@@std@@@std@@QAE@AAV?$allocator@U?$_Tree_node@U?$pair@$$CBV?$basic_string@DU?$char_traits@D@std@@V?$allocator@D@2@@std@@V?$weak_ptr@VRawImageData@@@2@@std@@PAX@std@@@1@@Z 00400008     DraggingDemo.obj
 0002:fffbe008       __ehfuncinfo$??0?$basic_string@DU?$char_traits@D@std@@V?$allocator@D@2@@std@@QAE@ABV01@@Z 00400008     DraggingDemo.obj
 0002:fffbe008       __ehfuncinfo$??0?$basic_string@DU?$char_traits@D@std@@V?$allocator@D@2@@std@@QAE@QBD@Z 00400008     DraggingDemo.obj
 0002:fffbe008       __ehfuncinfo$??0ImageManager@@QAE@XZ 00400008     DraggingDemo.obj
 0002:fffbe008       __ehfuncinfo$??0RawImageData@@QAE@V?$basic_string@DU?$char_traits@D@std@@V?$allocator@D@2@@std@@@Z 00400008     DraggingDemo.obj
 0002:fffbe008       __ehfuncinfo$??0sentry@?$basic_ostream@DU?$char_traits@D@std@@@std@@QAE@AAV12@@Z 00400008     DraggingDemo.obj
 0002:fffbe008       __ehfuncinfo$?_Alloc_sentinel_and_proxy@?$_Tree@V?$_Tmap_traits@V?$basic_string@DU?$char_traits@D@std@@V?$allocator@D@2@@std@@V?$shared_ptr@VRawImageData@@@2@U?$less@V?$basic_string@DU?$char_traits@D@std@@V?$allocator@D@2@@std@@@2@V?$allocator@U?$pair@$$CBV?$basic_string@DU?$char_traits@D@std@@V?$allocator@D@2@@std@@V?$shared_ptr@VRawImageData@@@2@@std@@@2@$0A@@std@@@std@@IAEXXZ 00400008     DraggingDemo.obj
 0002:fffbe008       __ehfuncinfo$?_Alloc_sentinel_and_proxy@?$_Tree@V?$_Tmap_traits@V?$basic_string@DU?$char_traits@D@std@@V?$allocator@D@2@@std@@V?$weak_ptr@VRawImageData@@@2@U?$less@V?$basic_string@DU?$char_traits@D@std@@V?$allocator@D@2@@std@@@2@V?$allocator@U?$pair@$$CBV?$basic_string@DU?$char_traits@D@std@@V?$allocator@D@2@@std@@V?$weak_ptr@VRawImageData@@@2@@std@@@2@$0A@@std@@@std@@IAEXXZ 00400008     DraggingDemo.obj
 0002:fffbe008       __ehfuncinfo$?get@ImageManager@@SAPAV1@XZ 00400008     DraggingDemo.obj
 0002:fffbe008       __ehfuncinfo$?getImagebyURL@ImageManager@@QAE?AVSimpleImage@@V?$basic_string@DU?$char_traits@D@std@@V?$allocator@D@2@@std@@_N1@Z 00400008     DraggingDemo.obj
 0002:fffbe008       __ehfuncinfo$?loadImage@RawImageData@@QAE_NV?$basic_string@DU?$char_traits@D@std@@V?$allocator@D@2@@std@@HHHHH_N@Z 00400008     DraggingDemo.obj
 0001:fffff008       __unwindfunclet$??$?0VRawImageData@@$0A@@?$shared_ptr@VRawImageData@@@std@@QAE@PAVRawImageData@@@Z$1 00400008 f   DraggingDemo.obj
 0001:fffff008       __unwindfunclet$?getImagePtrbyURL@ImageManager@@QAE?AV?$shared_ptr@VRawImageData@@@std@@V?$basic_string@DU?$char_traits@D@std@@V?$allocator@D@2@@3@_N1@Z$1 00400008 f   DraggingDemo.obj
 0001:fffff008       __unwindfunclet$?loadAsNew@ImageManager@@QAE?AV?$shared_ptr@VRawImageData@@@std@@V?$basic_string@DU?$char_traits@D@std@@V?$allocator@D@2@@3@@Z$1 00400008 f   DraggingDemo.obj
 0002:fffbe008       __ehfuncinfo$??0sentry@?$basic_ostream@DU?$char_traits@D@std@@@std@@QAE@AAV12@@Z 00400008     DrawingSurface.obj
 0002:fffbe008       __ehfuncinfo$??$?0U?$pair@V?$basic_string@DU?$char_traits@D@std@@V?$allocator@D@2@@std@@V?$shared_ptr@VRawImageData@@@2@@std@@@?$_Tree_temp_node@V?$allocator@U?$_Tree_node@U?$pair@$$CBV?$basic_string@DU?$char_traits@D@std@@V?$allocator@D@2@@std@@V?$shared_ptr@VRawImageData@@@2@@std@@PAX@std@@@std@@@std@@QAE@AAV?$allocator@U?$_Tree_node@U?$pair@$$CBV?$basic_string@DU?$char_traits@D@std@@V?$allocator@D@2@@std@@V?$shared_ptr@VRawImageData@@@2@@std@@PAX@std@@@1@PAU?$_Tree_node@U?$pair@$$CBV?$basic_string@DU?$char_traits@D@std@@V?$allocator@D@2@@std@@V?$shared_ptr@VRawImageData@@@2@@std@@PAX@1@$$QAU?$pair@V?$basic_string@DU?$char_traits@D@std@@V?$allocator@D@2@@std@@V?$shared_ptr@VRawImageData@@@2@@1@@Z 00400008     Enemy.obj
 0002:fffbe008       __ehfuncinfo$??$?0U?$pair@V?$basic_string@DU?$char_traits@D@std@@V?$allocator@D@2@@std@@V?$weak_ptr@VRawImageData@@@2@@std@@@?$_Tree_temp_node@V?$allocator@U?$_Tree_node@U?$pair@$$CBV?$basic_string@DU?$char_traits@D@std@@V?$allocator@D@2@@std@@V?$weak_ptr@VRawImageData@@@2@@std@@PAX@std@@@std@@@std@@QAE@AAV?$allocator@U?$_Tree_node@U?$pair@$$CBV?$basic_string@DU?$char_traits@D@std@@V?$allocator@D@2@@std@@V?$weak_ptr@VRawImageData@@@2@@std@@PAX@std@@@1@PAU?$_Tree_node@U?$pair@$$CBV?$basic_string@DU?$char_traits@D@std@@V?$allocator@D@2@@std@@V?$weak_ptr@VRawImageData@@@2@@std@@PAX@1@$$QAU?$pair@V?$basic_string@DU?$char_traits@D@std@@V?$allocator@D@2@@std@@V?$weak_ptr@VRawImageData@@@2@@1@@Z 00400008     Enemy.obj
 0002:fffbe008       __ehfuncinfo$??$_Construct@$00PBD@?$basic_string@DU?$char_traits@D@std@@V?$allocator@D@2@@std@@AAEXQBDI@Z 00400008     Enemy.obj
 0002:fffbe008       __ehfuncinfo$??$_Construct@$01PBD@?$basic_string@DU?$char_traits@D@std@@V?$allocator@D@2@@std@@AAEXQBDI@Z 00400008     Enemy.obj
 0002:fffbe008       __ehfuncinfo$??$_Uninitialized_move@PAPAVDisplayableObject@@V?$allocator@PAVDisplayableObject@@@std@@@std@@YAPAPAVDisplayableObject@@QAPAV1@0PAPAV1@AAV?$allocator@PAVDisplayableObject@@@0@@Z 00400008     Enemy.obj
 0002:fffbe008       __ehfuncinfo$??0?$_Tree_temp_node_alloc@V?$allocator@U?$_Tree_node@U?$pair@$$CBV?$basic_string@DU?$char_traits@D@std@@V?$allocator@D@2@@std@@V?$shared_ptr@VRawImageData@@@2@@std@@PAX@std@@@std@@@std@@QAE@AAV?$allocator@U?$_Tree_node@U?$pair@$$CBV?$basic_string@DU?$char_traits@D@std@@V?$allocator@D@2@@std@@V?$shared_ptr@VRawImageData@@@2@@std@@PAX@std@@@1@@Z 00400008     Enemy.obj
 0002:fffbe008       __ehfuncinfo$??0?$_Tree_temp_node_alloc@V?$allocator@U?$_Tree_node@U?$pair@$$CBV?$basic_string@DU?$char_traits@D@std@@V?$allocator@D@2@@std@@V?$weak_ptr@VRawImageData@@@2@@std@@PAX@std@@@std@@@std@@QAE@AAV?$allocator@U?$_Tree_node@U?$pair@$$CBV?$basic_string@DU?$char_traits@D@std@@V?$allocator@D@2@@std@@V?$weak_ptr@VRawImageData@@@2@@std@@PAX@std@@@1@@Z 00400008     Enemy.obj
 0002:fffbe008       __ehfuncinfo$??0?$basic_string@DU?$char_traits@D@std@@V?$allocator@D@2@@std@@QAE@ABV01@@Z 00400008     Enemy.obj
 0002:fffbe008       __ehfuncinfo$??0?$basic_string@DU?$char_traits@D@std@@V?$allocator@D@2@@std@@QAE@QBD@Z 00400008     Enemy.obj
 0002:fffbe008       __ehfuncinfo$??0ImageManager@@QAE@XZ 00400008     Enemy.obj
 0002:fffbe008       __ehfuncinfo$??0RawImageData@@QAE@V?$basic_string@DU?$char_traits@D@std@@V?$allocator@D@2@@std@@@Z 00400008     Enemy.obj
 0002:fffbe008       __ehfuncinfo$??0sentry@?$basic_ostream@DU?$char_traits@D@std@@@std@@QAE@AAV12@@Z 00400008     Enemy.obj
 0002:fffbe008       __ehfuncinfo$?_Alloc_sentinel_and_proxy@?$_Tree@V?$_Tmap_traits@V?$basic_string@DU?$char_traits@D@std@@V?$allocator@D@2@@std@@V?$shared_ptr@VRawImageData@@@2@U?$less@V?$basic_string@DU?$char_traits@D@std@@V?$allocator@D@2@@std@@@2@V?$allocator@U?$pair@$$CBV?$basic_string@DU?$char_traits@D@std@@V?$allocator@D@2@@std@@V?$shared_ptr@VRawImageData@@@2@@std@@@2@$0A@@std@@@std@@IAEXXZ 00400008     Enemy.obj
 0002:fffbe008       __ehfuncinfo$?_Alloc_sentinel_and_proxy@?$_Tree@V?$_Tmap_traits@V?$basic_string@DU?$char_traits@D@std@@V?$allocator@D@2@@std@@V?$weak_ptr@VRawImageData@@@2@U?$less@V?$basic_string@DU?$char_traits@D@std@@V?$allocator@D@2@@std@@@2@V?$allocator@U?$pair@$$CBV?$basic_string@DU?$char_traits@D@std@@V?$allocator@D@2@@std@@V?$weak_ptr@VRawImageData@@@2@@std@@@2@$0A@@std@@@std@@IAEXXZ 00400008     Enemy.obj
 0002:fffbe008       __ehfuncinfo$?_Orphan_range_locked@?$vector@PAVDisplayableObject@@V?$allocator@PAVDisplayableObject@@@std@@@std@@ABEXPAPAVDisplayableObject@@0@Z 00400008     Enemy.obj
 0002:fffbe008       __ehfuncinfo$?get@ImageManager@@SAPAV1@XZ 00400008     Enemy.obj
 0002:fffbe008       __ehfuncinfo$?getImagebyURL@ImageManager@@QAE?AVSimpleImage@@V?$basic_string@DU?$char_traits@D@std@@V?$allocator@D@2@@std@@_N1@Z 00400008     Enemy.obj
 0002:fffbe008       __ehfuncinfo$?loadImage@RawImageData@@QAE_NV?$basic_string@DU?$char_traits@D@std@@V?$allocator@D@2@@std@@HHHHH_N@Z 00400008     Enemy.obj
 0001:fffff008       __unwindfunclet$??$?0VRawImageData@@$0A@@?$shared_ptr@VRawImageData@@@std@@QAE@PAVRawImageData@@@Z$1 00400008 f   Enemy.obj
 0001:fffff008       __unwindfunclet$?getImagePtrbyURL@ImageManager@@QAE?AV?$shared_ptr@VRawImageData@@@std@@V?$basic_string@DU?$char_traits@D@std@@V?$allocator@D@2@@3@_N1@Z$1 00400008 f   Enemy.obj
 0001:fffff008       __unwindfunclet$?loadAsNew@ImageManager@@QAE?AV?$shared_ptr@VRawImageData@@@std@@V?$basic_string@DU?$char_traits@D@std@@V?$allocator@D@2@@3@@Z$1 00400008 f   Enemy.obj
 0001:fffff008       __unwindfunclet$?loadImage@ImageManager@@SA?AVSimpleImage@@V?$basic_string@DU?$char_traits@D@std@@V?$allocator@D@2@@std@@_N@Z$1 00400008 f   Enemy.obj
 0002:fffbe008       __ehfuncinfo$??0sentry@?$basic_ostream@DU?$char_traits@D@std@@@std@@QAE@AAV12@@Z 00400008     FlashingDemo.obj
 0002:fffbe008       __ehfuncinfo$??$?0U?$pair@V?$basic_string@DU?$char_traits@D@std@@V?$allocator@D@2@@std@@V?$shared_ptr@VRawImageData@@@2@@std@@@?$_Tree_temp_node@V?$allocator@U?$_Tree_node@U?$pair@$$CBV?$basic_string@DU?$char_traits@D@std@@V?$allocator@D@2@@std@@V?$shared_ptr@VRawImageData@@@2@@std@@PAX@std@@@std@@@std@@QAE@AAV?$allocator@U?$_Tree_node@U?$pair@$$CBV?$basic_string@DU?$char_traits@D@std@@V?$allocator@D@2@@std@@V?$shared_ptr@VRawImageData@@@2@@std@@PAX@std@@@1@PAU?$_Tree_node@U?$pair@$$CBV?$basic_string@DU?$char_traits@D@std@@V?$allocator@D@2@@std@@V?$shared_ptr@VRawImageData@@@2@@std@@PAX@1@$$QAU?$pair@V?$basic_string@DU?$char_traits@D@std@@V?$allocator@D@2@@std@@V?$shared_ptr@VRawImageData@@@2@@1@@Z 00400008     ImageMappingDemo.obj
 0002:fffbe008       __ehfuncinfo$??$?0U?$pair@V?$basic_string@DU?$char_traits@D@std@@V?$allocator@D@2@@std@@V?$weak_ptr@VRawImageData@@@2@@std@@@?$_Tree_temp_node@V?$allocator@U?$_Tree_node@U?$pair@$$CBV?$basic_string@DU?$char_traits@D@std@@V?$allocator@D@2@@std@@V?$weak_ptr@VRawImageData@@@2@@std@@PAX@std@@@std@@@std@@QAE@AAV?$allocator@U?$_Tree_node@U?$pair@$$CBV?$basic_string@DU?$char_traits@D@std@@V?$allocator@D@2@@std@@V?$weak_ptr@VRawImageData@@@2@@std@@PAX@std@@@1@PAU?$_Tree_node@U?$pair@$$CBV?$basic_string@DU?$char_traits@D@std@@V?$allocator@D@2@@std@@V?$weak_ptr@VRawImageData@@@2@@std@@PAX@1@$$QAU?$pair@V?$basic_string@DU?$char_traits@D@std@@V?$allocator@D@2@@std@@V?$weak_ptr@VRawImageData@@@2@@1@@Z 00400008     ImageMappingDemo.obj
 0002:fffbe008       __ehfuncinfo$??$_Construct@$00PBD@?$basic_string@DU?$char_traits@D@std@@V?$allocator@D@2@@std@@AAEXQBDI@Z 00400008     ImageMappingDemo.obj
 0002:fffbe008       __ehfuncinfo$??$_Construct@$01PBD@?$basic_string@DU?$char_traits@D@std@@V?$allocator@D@2@@std@@AAEXQBDI@Z 00400008     ImageMappingDemo.obj
 0002:fffbe008       __ehfuncinfo$??$_Uninitialized_move@PAPAVDisplayableObject@@V?$allocator@PAVDisplayableObject@@@std@@@std@@YAPAPAVDisplayableObject@@QAPAV1@0PAPAV1@AAV?$allocator@PAVDisplayableObject@@@0@@Z 00400008     ImageMappingDemo.obj
 0002:fffbe008       __ehfuncinfo$??$_Uninitialized_value_construct_n@V?$allocator@PAVDisplayableObject@@@std@@@std@@YAPAPAVDisplayableObject@@PAPAV1@IAAV?$allocator@PAVDisplayableObject@@@0@@Z 00400008     ImageMappingDemo.obj
 0002:fffbe008       __ehfuncinfo$??0?$_Tree_temp_node_alloc@V?$allocator@U?$_Tree_node@U?$pair@$$CBV?$basic_string@DU?$char_traits@D@std@@V?$allocator@D@2@@std@@V?$shared_ptr@VRawImageData@@@2@@std@@PAX@std@@@std@@@std@@QAE@AAV?$allocator@U?$_Tree_node@U?$pair@$$CBV?$basic_string@DU?$char_traits@D@std@@V?$allocator@D@2@@std@@V?$shared_ptr@VRawImageData@@@2@@std@@PAX@std@@@1@@Z 00400008     ImageMappingDemo.obj
 0002:fffbe008       __ehfuncinfo$??0?$_Tree_temp_node_alloc@V?$allocator@U?$_Tree_node@U?$pair@$$CBV?$basic_string@DU?$char_traits@D@std@@V?$allocator@D@2@@std@@V?$weak_ptr@VRawImageData@@@2@@std@@PAX@std@@@std@@@std@@QAE@AAV?$allocator@U?$_Tree_node@U?$pair@$$CBV?$basic_string@DU?$char_traits@D@std@@V?$allocator@D@2@@std@@V?$weak_ptr@VRawImageData@@@2@@std@@PAX@std@@@1@@Z 00400008     ImageMappingDemo.obj
 0002:fffbe008       __ehfuncinfo$??0?$basic_string@DU?$char_traits@D@std@@V?$allocator@D@2@@std@@QAE@ABV01@@Z 00400008     ImageMappingDemo.obj
 0002:fffbe008       __ehfuncinfo$??0?$basic_string@DU?$char_traits@D@std@@V?$allocator@D@2@@std@@QAE@QBD@Z 00400008     ImageMappingDemo.obj
 0002:fffbe008       __ehfuncinfo$??0ImageManager@@QAE@XZ 00400008     ImageMappingDemo.obj
 0002:fffbe008       __ehfuncinfo$??0RawImageData@@QAE@V?$basic_string@DU?$char_traits@D@std@@V?$allocator@D@2@@std@@@Z 00400008     ImageMappingDemo.obj
 0002:fffbe008       __ehfuncinfo$??0sentry@?$basic_ostream@DU?$char_traits@D@std@@@std@@QAE@AAV12@@Z 00400008     ImageMappingDemo.obj
 0002:fffbe008       __ehfuncinfo$?_Alloc_sentinel_and_proxy@?$_Tree@V?$_Tmap_traits@V?$basic_string@DU?$char_traits@D@std@@V?$allocator@D@2@@std@@V?$shared_ptr@VRawImageData@@@2@U?$less@V?$basic_string@DU?$char_traits@D@std@@V?$allocator@D@2@@std@@@2@V?$allocator@U?$pair@$$CBV?$basic_string@DU?$char_traits@D@std@@V?$allocator@D@2@@std@@V?$shared_ptr@VRawImageData@@@2@@std@@@2@$0A@@std@@@std@@IAEXXZ 00400008     ImageMappingDemo.obj
 0002:fffbe008       __ehfuncinfo$?_Alloc_sentinel_and_proxy@?$_Tree@V?$_Tmap_traits@V?$basic_string@DU?$char_traits@D@std@@V?$allocator@D@2@@std@@V?$weak_ptr@VRawImageData@@@2@U?$less@V?$basic_string@DU?$char_traits@D@std@@V?$allocator@D@2@@std@@@2@V?$allocator@U?$pair@$$CBV?$basic_string@DU?$char_traits@D@std@@V?$allocator@D@2@@std@@V?$weak_ptr@VRawImageData@@@2@@std@@@2@$0A@@std@@@std@@IAEXXZ 00400008     ImageMappingDemo.obj
 0002:fffbe008       __ehfuncinfo$?_Orphan_range_locked@?$vector@PAVDisplayableObject@@V?$allocator@PAVDisplayableObject@@@std@@@std@@ABEXPAPAVDisplayableObject@@0@Z 00400008     ImageMappingDemo.obj
 0002:fffbe008       __ehfuncinfo$?get@ImageManager@@SAPAV1@XZ 00400008     ImageMappingDemo.obj
 0002:fffbe008       __ehfuncinfo$?getImagebyURL@ImageManager@@QAE?AVSimpleImage@@V?$basic_string@DU?$char_traits@D@std@@V?$allocator@D@2@@std@@_N1@Z 00400008     ImageMappingDemo.obj
 0002:fffbe008       __ehfuncinfo$?loadImage@RawImageData@@QAE_NV?$basic_string@DU?$char_traits@D@std@@V?$allocator@D@2@@std@@HHHHH_N@Z 00400008     ImageMappingDemo.obj
 0001:fffff008       __unwindfunclet$??$?0VRawImageData@@$0A@@?$shared_ptr@VRawImageData@@@std@@QAE@PAVRawImageData@@@Z$1 00400008 f   ImageMappingDemo.obj
 0001:fffff008       __unwindfunclet$??0DragableImageObject@@QAE@HHPAVBaseEngine@@V?$basic_string@DU?$char_traits@D@std@@V?$allocator@D@2@@std@@_N2@Z$1 00400008 f   ImageMappingDemo.obj
 0001:fffff008       __unwindfunclet$?getImagePtrbyURL@ImageManager@@QAE?AV?$shared_ptr@VRawImageData@@@std@@V?$basic_string@DU?$char_traits@D@std@@V?$allocator@D@2@@3@_N1@Z$1 00400008 f   ImageMappingDemo.obj
 0001:fffff008       __unwindfunclet$?loadAsNew@ImageManager@@QAE?AV?$shared_ptr@VRawImageData@@@std@@V?$basic_string@DU?$char_traits@D@std@@V?$allocator@D@2@@3@@Z$1 00400008 f   ImageMappingDemo.obj
 0002:fffbe008       __ehfuncinfo$??$?0U?$pair@V?$basic_string@DU?$char_traits@D@std@@V?$allocator@D@2@@std@@V?$shared_ptr@VRawImageData@@@2@@std@@@?$_Tree_temp_node@V?$allocator@U?$_Tree_node@U?$pair@$$CBV?$basic_string@DU?$char_traits@D@std@@V?$allocator@D@2@@std@@V?$shared_ptr@VRawImageData@@@2@@std@@PAX@std@@@std@@@std@@QAE@AAV?$allocator@U?$_Tree_node@U?$pair@$$CBV?$basic_string@DU?$char_traits@D@std@@V?$allocator@D@2@@std@@V?$shared_ptr@VRawImageData@@@2@@std@@PAX@std@@@1@PAU?$_Tree_node@U?$pair@$$CBV?$basic_string@DU?$char_traits@D@std@@V?$allocator@D@2@@std@@V?$shared_ptr@VRawImageData@@@2@@std@@PAX@1@$$QAU?$pair@V?$basic_string@DU?$char_traits@D@std@@V?$allocator@D@2@@std@@V?$shared_ptr@VRawImageData@@@2@@1@@Z 00400008     LoseState.obj
 0002:fffbe008       __ehfuncinfo$??$?0U?$pair@V?$basic_string@DU?$char_traits@D@std@@V?$allocator@D@2@@std@@V?$weak_ptr@VRawImageData@@@2@@std@@@?$_Tree_temp_node@V?$allocator@U?$_Tree_node@U?$pair@$$CBV?$basic_string@DU?$char_traits@D@std@@V?$allocator@D@2@@std@@V?$weak_ptr@VRawImageData@@@2@@std@@PAX@std@@@std@@@std@@QAE@AAV?$allocator@U?$_Tree_node@U?$pair@$$CBV?$basic_string@DU?$char_traits@D@std@@V?$allocator@D@2@@std@@V?$weak_ptr@VRawImageData@@@2@@std@@PAX@std@@@1@PAU?$_Tree_node@U?$pair@$$CBV?$basic_string@DU?$char_traits@D@std@@V?$allocator@D@2@@std@@V?$weak_ptr@VRawImageData@@@2@@std@@PAX@1@$$QAU?$pair@V?$basic_string@DU?$char_traits@D@std@@V?$allocator@D@2@@std@@V?$weak_ptr@VRawImageData@@@2@@1@@Z 00400008     LoseState.obj
 0002:fffbe008       __ehfuncinfo$??$_Construct@$00PBD@?$basic_string@DU?$char_traits@D@std@@V?$allocator@D@2@@std@@AAEXQBDI@Z 00400008     LoseState.obj
 0002:fffbe008       __ehfuncinfo$??$_Construct@$01PBD@?$basic_string@DU?$char_traits@D@std@@V?$allocator@D@2@@std@@AAEXQBDI@Z 00400008     LoseState.obj
 0002:fffbe008       __ehfuncinfo$??0?$_Tree_temp_node_alloc@V?$allocator@U?$_Tree_node@U?$pair@$$CBV?$basic_string@DU?$char_traits@D@std@@V?$allocator@D@2@@std@@V?$shared_ptr@VRawImageData@@@2@@std@@PAX@std@@@std@@@std@@QAE@AAV?$allocator@U?$_Tree_node@U?$pair@$$CBV?$basic_string@DU?$char_traits@D@std@@V?$allocator@D@2@@std@@V?$shared_ptr@VRawImageData@@@2@@std@@PAX@std@@@1@@Z 00400008     LoseState.obj
 0002:fffbe008       __ehfuncinfo$??0?$_Tree_temp_node_alloc@V?$allocator@U?$_Tree_node@U?$pair@$$CBV?$basic_string@DU?$char_traits@D@std@@V?$allocator@D@2@@std@@V?$weak_ptr@VRawImageData@@@2@@std@@PAX@std@@@std@@@std@@QAE@AAV?$allocator@U?$_Tree_node@U?$pair@$$CBV?$basic_string@DU?$char_traits@D@std@@V?$allocator@D@2@@std@@V?$weak_ptr@VRawImageData@@@2@@std@@PAX@std@@@1@@Z 00400008     LoseState.obj
 0002:fffbe008       __ehfuncinfo$??0?$basic_string@DU?$char_traits@D@std@@V?$allocator@D@2@@std@@QAE@ABV01@@Z 00400008     LoseState.obj
 0002:fffbe008       __ehfuncinfo$??0?$basic_string@DU?$char_traits@D@std@@V?$allocator@D@2@@std@@QAE@QBD@Z 00400008     LoseState.obj
 0002:fffbe008       __ehfuncinfo$??0ImageManager@@QAE@XZ 00400008     LoseState.obj
 0002:fffbe008       __ehfuncinfo$??0RawImageData@@QAE@V?$basic_string@DU?$char_traits@D@std@@V?$allocator@D@2@@std@@@Z 00400008     LoseState.obj
 0002:fffbe008       __ehfuncinfo$??0sentry@?$basic_ostream@DU?$char_traits@D@std@@@std@@QAE@AAV12@@Z 00400008     LoseState.obj
 0002:fffbe008       __ehfuncinfo$?_Alloc_sentinel_and_proxy@?$_Tree@V?$_Tmap_traits@V?$basic_string@DU?$char_traits@D@std@@V?$allocator@D@2@@std@@V?$shared_ptr@VRawImageData@@@2@U?$less@V?$basic_string@DU?$char_traits@D@std@@V?$allocator@D@2@@std@@@2@V?$allocator@U?$pair@$$CBV?$basic_string@DU?$char_traits@D@std@@V?$allocator@D@2@@std@@V?$shared_ptr@VRawImageData@@@2@@std@@@2@$0A@@std@@@std@@IAEXXZ 00400008     LoseState.obj
 0002:fffbe008       __ehfuncinfo$?_Alloc_sentinel_and_proxy@?$_Tree@V?$_Tmap_traits@V?$basic_string@DU?$char_traits@D@std@@V?$allocator@D@2@@std@@V?$weak_ptr@VRawImageData@@@2@U?$less@V?$basic_string@DU?$char_traits@D@std@@V?$allocator@D@2@@std@@@2@V?$allocator@U?$pair@$$CBV?$basic_string@DU?$char_traits@D@std@@V?$allocator@D@2@@std@@V?$weak_ptr@VRawImageData@@@2@@std@@@2@$0A@@std@@@std@@IAEXXZ 00400008     LoseState.obj
 0002:fffbe008       __ehfuncinfo$?get@ImageManager@@SAPAV1@XZ 00400008     LoseState.obj
 0002:fffbe008       __ehfuncinfo$?getImagebyURL@ImageManager@@QAE?AVSimpleImage@@V?$basic_string@DU?$char_traits@D@std@@V?$allocator@D@2@@std@@_N1@Z 00400008     LoseState.obj
 0002:fffbe008       __ehfuncinfo$?loadImage@RawImageData@@QAE_NV?$basic_string@DU?$char_traits@D@std@@V?$allocator@D@2@@std@@HHHHH_N@Z 00400008     LoseState.obj
 0001:fffff008       __unwindfunclet$??$?0VRawImageData@@$0A@@?$shared_ptr@VRawImageData@@@std@@QAE@PAVRawImageData@@@Z$1 00400008 f   LoseState.obj
 0001:fffff008       __unwindfunclet$?getImagePtrbyURL@ImageManager@@QAE?AV?$shared_ptr@VRawImageData@@@std@@V?$basic_string@DU?$char_traits@D@std@@V?$allocator@D@2@@3@_N1@Z$1 00400008 f   LoseState.obj
 0001:fffff008       __unwindfunclet$?loadAsNew@ImageManager@@QAE?AV?$shared_ptr@VRawImageData@@@std@@V?$basic_string@DU?$char_traits@D@std@@V?$allocator@D@2@@3@@Z$1 00400008 f   LoseState.obj
 0001:fffff008       __unwindfunclet$?loadImage@ImageManager@@SA?AVSimpleImage@@V?$basic_string@DU?$char_traits@D@std@@V?$allocator@D@2@@std@@_N@Z$1 00400008 f   LoseState.obj
 0002:fffbe008       __ehfuncinfo$??$_Uninitialized_move@PAPAVDisplayableObject@@V?$allocator@PAVDisplayableObject@@@std@@@std@@YAPAPAVDisplayableObject@@QAPAV1@0PAPAV1@AAV?$allocator@PAVDisplayableObject@@@0@@Z 00400008     MazeDemoMain.obj
 0002:fffbe008       __ehfuncinfo$??$_Uninitialized_value_construct_n@V?$allocator@PAVDisplayableObject@@@std@@@std@@YAPAPAVDisplayableObject@@PAPAV1@IAAV?$allocator@PAVDisplayableObject@@@0@@Z 00400008     MazeDemoMain.obj
 0002:fffbe008       __ehfuncinfo$?_Orphan_range_locked@?$vector@PAVDisplayableObject@@V?$allocator@PAVDisplayableObject@@@std@@@std@@ABEXPAPAVDisplayableObject@@0@Z 00400008     MazeDemoMain.obj
 0002:fffbe008       __ehfuncinfo$?setAllObjectsVisible@DisplayableObjectContainer@@QBEX_N@Z 00400008     MazeDemoMain.obj
 0002:fffbe008       __ehfuncinfo$??$?0U?$pair@V?$basic_string@DU?$char_traits@D@std@@V?$allocator@D@2@@std@@V?$shared_ptr@VRawImageData@@@2@@std@@@?$_Tree_temp_node@V?$allocator@U?$_Tree_node@U?$pair@$$CBV?$basic_string@DU?$char_traits@D@std@@V?$allocator@D@2@@std@@V?$shared_ptr@VRawImageData@@@2@@std@@PAX@std@@@std@@@std@@QAE@AAV?$allocator@U?$_Tree_node@U?$pair@$$CBV?$basic_string@DU?$char_traits@D@std@@V?$allocator@D@2@@std@@V?$shared_ptr@VRawImageData@@@2@@std@@PAX@std@@@1@PAU?$_Tree_node@U?$pair@$$CBV?$basic_string@DU?$char_traits@D@std@@V?$allocator@D@2@@std@@V?$shared_ptr@VRawImageData@@@2@@std@@PAX@1@$$QAU?$pair@V?$basic_string@DU?$char_traits@D@std@@V?$allocator@D@2@@std@@V?$shared_ptr@VRawImageData@@@2@@1@@Z 00400008     NumberTiles.obj
 0002:fffbe008       __ehfuncinfo$??$?0U?$pair@V?$basic_string@DU?$char_traits@D@std@@V?$allocator@D@2@@std@@V?$weak_ptr@VRawImageData@@@2@@std@@@?$_Tree_temp_node@V?$allocator@U?$_Tree_node@U?$pair@$$CBV?$basic_string@DU?$char_traits@D@std@@V?$allocator@D@2@@std@@V?$weak_ptr@VRawImageData@@@2@@std@@PAX@std@@@std@@@std@@QAE@AAV?$allocator@U?$_Tree_node@U?$pair@$$CBV?$basic_string@DU?$char_traits@D@std@@V?$allocator@D@2@@std@@V?$weak_ptr@VRawImageData@@@2@@std@@PAX@std@@@1@PAU?$_Tree_node@U?$pair@$$CBV?$basic_string@DU?$char_traits@D@std@@V?$allocator@D@2@@std@@V?$weak_ptr@VRawImageData@@@2@@std@@PAX@1@$$QAU?$pair@V?$basic_string@DU?$char_traits@D@std@@V?$allocator@D@2@@std@@V?$weak_ptr@VRawImageData@@@2@@1@@Z 00400008     NumberTiles.obj
 0002:fffbe008       __ehfuncinfo$??$_Construct@$00PBD@?$basic_string@DU?$char_traits@D@std@@V?$allocator@D@2@@std@@AAEXQBDI@Z 00400008     NumberTiles.obj
 0002:fffbe008       __ehfuncinfo$??$_Construct@$01PBD@?$basic_string@DU?$char_traits@D@std@@V?$allocator@D@2@@std@@AAEXQBDI@Z 00400008     NumberTiles.obj
 0002:fffbe008       __ehfuncinfo$??0?$_Tree_temp_node_alloc@V?$allocator@U?$_Tree_node@U?$pair@$$CBV?$basic_string@DU?$char_traits@D@std@@V?$allocator@D@2@@std@@V?$shared_ptr@VRawImageData@@@2@@std@@PAX@std@@@std@@@std@@QAE@AAV?$allocator@U?$_Tree_node@U?$pair@$$CBV?$basic_string@DU?$char_traits@D@std@@V?$allocator@D@2@@std@@V?$shared_ptr@VRawImageData@@@2@@std@@PAX@std@@@1@@Z 00400008     NumberTiles.obj
 0002:fffbe008       __ehfuncinfo$??0?$_Tree_temp_node_alloc@V?$allocator@U?$_Tree_node@U?$pair@$$CBV?$basic_string@DU?$char_traits@D@std@@V?$allocator@D@2@@std@@V?$weak_ptr@VRawImageData@@@2@@std@@PAX@std@@@std@@@std@@QAE@AAV?$allocator@U?$_Tree_node@U?$pair@$$CBV?$basic_string@DU?$char_traits@D@std@@V?$allocator@D@2@@std@@V?$weak_ptr@VRawImageData@@@2@@std@@PAX@std@@@1@@Z 00400008     NumberTiles.obj
 0002:fffbe008       __ehfuncinfo$??0?$basic_string@DU?$char_traits@D@std@@V?$allocator@D@2@@std@@QAE@ABV01@@Z 00400008     NumberTiles.obj
 0002:fffbe008       __ehfuncinfo$??0?$basic_string@DU?$char_traits@D@std@@V?$allocator@D@2@@std@@QAE@QBD@Z 00400008     NumberTiles.obj
 0002:fffbe008       __ehfuncinfo$??0ImageManager@@QAE@XZ 00400008     NumberTiles.obj
 0002:fffbe008       __ehfuncinfo$??0RawImageData@@QAE@V?$basic_string@DU?$char_traits@D@std@@V?$allocator@D@2@@std@@@Z 00400008     NumberTiles.obj
 0002:fffbe008       __ehfuncinfo$??0sentry@?$basic_ostream@DU?$char_traits@D@std@@@std@@QAE@AAV12@@Z 00400008     NumberTiles.obj
 0002:fffbe008       __ehfuncinfo$?_Alloc_sentinel_and_proxy@?$_Tree@V?$_Tmap_traits@V?$basic_string@DU?$char_traits@D@std@@V?$allocator@D@2@@std@@V?$shared_ptr@VRawImageData@@@2@U?$less@V?$basic_string@DU?$char_traits@D@std@@V?$allocator@D@2@@std@@@2@V?$allocator@U?$pair@$$CBV?$basic_string@DU?$char_traits@D@std@@V?$allocator@D@2@@std@@V?$shared_ptr@VRawImageData@@@2@@std@@@2@$0A@@std@@@std@@IAEXXZ 00400008     NumberTiles.obj
 0002:fffbe008       __ehfuncinfo$?_Alloc_sentinel_and_proxy@?$_Tree@V?$_Tmap_traits@V?$basic_string@DU?$char_traits@D@std@@V?$allocator@D@2@@std@@V?$weak_ptr@VRawImageData@@@2@U?$less@V?$basic_string@DU?$char_traits@D@std@@V?$allocator@D@2@@std@@@2@V?$allocator@U?$pair@$$CBV?$basic_string@DU?$char_traits@D@std@@V?$allocator@D@2@@std@@V?$weak_ptr@VRawImageData@@@2@@std@@@2@$0A@@std@@@std@@IAEXXZ 00400008     NumberTiles.obj
 0002:fffbe008       __ehfuncinfo$?get@ImageManager@@SAPAV1@XZ 00400008     NumberTiles.obj
 0002:fffbe008       __ehfuncinfo$?getImagebyURL@ImageManager@@QAE?AVSimpleImage@@V?$basic_string@DU?$char_traits@D@std@@V?$allocator@D@2@@std@@_N1@Z 00400008     NumberTiles.obj
 0002:fffbe008       __ehfuncinfo$?loadImage@RawImageData@@QAE_NV?$basic_string@DU?$char_traits@D@std@@V?$allocator@D@2@@std@@HHHHH_N@Z 00400008     NumberTiles.obj
 0001:fffff008       __unwindfunclet$??$?0VRawImageData@@$0A@@?$shared_ptr@VRawImageData@@@std@@QAE@PAVRawImageData@@@Z$1 00400008 f   NumberTiles.obj
 0001:fffff008       __unwindfunclet$?getImagePtrbyURL@ImageManager@@QAE?AV?$shared_ptr@VRawImageData@@@std@@V?$basic_string@DU?$char_traits@D@std@@V?$allocator@D@2@@3@_N1@Z$1 00400008 f   NumberTiles.obj
 0001:fffff008       __unwindfunclet$?loadAsNew@ImageManager@@QAE?AV?$shared_ptr@VRawImageData@@@std@@V?$basic_string@DU?$char_traits@D@std@@V?$allocator@D@2@@3@@Z$1 00400008 f   NumberTiles.obj
 0001:fffff008       __unwindfunclet$?loadImage@ImageManager@@SA?AVSimpleImage@@V?$basic_string@DU?$char_traits@D@std@@V?$allocator@D@2@@std@@_N@Z$1 00400008 f   NumberTiles.obj
 0002:fffbe008       __ehfuncinfo$??$?0U?$pair@V?$basic_string@DU?$char_traits@D@std@@V?$allocator@D@2@@std@@V?$shared_ptr@VRawImageData@@@2@@std@@@?$_Tree_temp_node@V?$allocator@U?$_Tree_node@U?$pair@$$CBV?$basic_string@DU?$char_traits@D@std@@V?$allocator@D@2@@std@@V?$shared_ptr@VRawImageData@@@2@@std@@PAX@std@@@std@@@std@@QAE@AAV?$allocator@U?$_Tree_node@U?$pair@$$CBV?$basic_string@DU?$char_traits@D@std@@V?$allocator@D@2@@std@@V?$shared_ptr@VRawImageData@@@2@@std@@PAX@std@@@1@PAU?$_Tree_node@U?$pair@$$CBV?$basic_string@DU?$char_traits@D@std@@V?$allocator@D@2@@std@@V?$shared_ptr@VRawImageData@@@2@@std@@PAX@1@$$QAU?$pair@V?$basic_string@DU?$char_traits@D@std@@V?$allocator@D@2@@std@@V?$shared_ptr@VRawImageData@@@2@@1@@Z 00400008     Player.obj
 0002:fffbe008       __ehfuncinfo$??$?0U?$pair@V?$basic_string@DU?$char_traits@D@std@@V?$allocator@D@2@@std@@V?$weak_ptr@VRawImageData@@@2@@std@@@?$_Tree_temp_node@V?$allocator@U?$_Tree_node@U?$pair@$$CBV?$basic_string@DU?$char_traits@D@std@@V?$allocator@D@2@@std@@V?$weak_ptr@VRawImageData@@@2@@std@@PAX@std@@@std@@@std@@QAE@AAV?$allocator@U?$_Tree_node@U?$pair@$$CBV?$basic_string@DU?$char_traits@D@std@@V?$allocator@D@2@@std@@V?$weak_ptr@VRawImageData@@@2@@std@@PAX@std@@@1@PAU?$_Tree_node@U?$pair@$$CBV?$basic_string@DU?$char_traits@D@std@@V?$allocator@D@2@@std@@V?$weak_ptr@VRawImageData@@@2@@std@@PAX@1@$$QAU?$pair@V?$basic_string@DU?$char_traits@D@std@@V?$allocator@D@2@@std@@V?$weak_ptr@VRawImageData@@@2@@1@@Z 00400008     Player.obj
 0002:fffbe008       __ehfuncinfo$??$_Construct@$01PBD@?$basic_string@DU?$char_traits@D@std@@V?$allocator@D@2@@std@@AAEXQBDI@Z 00400008     Player.obj
 0002:fffbe008       __ehfuncinfo$??0?$_Tree_temp_node_alloc@V?$allocator@U?$_Tree_node@U?$pair@$$CBV?$basic_string@DU?$char_traits@D@std@@V?$allocator@D@2@@std@@V?$shared_ptr@VRawImageData@@@2@@std@@PAX@std@@@std@@@std@@QAE@AAV?$allocator@U?$_Tree_node@U?$pair@$$CBV?$basic_string@DU?$char_traits@D@std@@V?$allocator@D@2@@std@@V?$shared_ptr@VRawImageData@@@2@@std@@PAX@std@@@1@@Z 00400008     Player.obj
 0002:fffbe008       __ehfuncinfo$??0?$_Tree_temp_node_alloc@V?$allocator@U?$_Tree_node@U?$pair@$$CBV?$basic_string@DU?$char_traits@D@std@@V?$allocator@D@2@@std@@V?$weak_ptr@VRawImageData@@@2@@std@@PAX@std@@@std@@@std@@QAE@AAV?$allocator@U?$_Tree_node@U?$pair@$$CBV?$basic_string@DU?$char_traits@D@std@@V?$allocator@D@2@@std@@V?$weak_ptr@VRawImageData@@@2@@std@@PAX@std@@@1@@Z 00400008     Player.obj
 0002:fffbe008       __ehfuncinfo$??0?$basic_string@DU?$char_traits@D@std@@V?$allocator@D@2@@std@@QAE@ABV01@@Z 00400008     Player.obj
 0002:fffbe008       __ehfuncinfo$??0ImageManager@@QAE@XZ 00400008     Player.obj
 0002:fffbe008       __ehfuncinfo$??0RawImageData@@QAE@V?$basic_string@DU?$char_traits@D@std@@V?$allocator@D@2@@std@@@Z 00400008     Player.obj
 0002:fffbe008       __ehfuncinfo$??0sentry@?$basic_ostream@DU?$char_traits@D@std@@@std@@QAE@AAV12@@Z 00400008     Player.obj
 0002:fffbe008       __ehfuncinfo$?_Alloc_sentinel_and_proxy@?$_Tree@V?$_Tmap_traits@V?$basic_string@DU?$char_traits@D@std@@V?$allocator@D@2@@std@@V?$shared_ptr@VRawImageData@@@2@U?$less@V?$basic_string@DU?$char_traits@D@std@@V?$allocator@D@2@@std@@@2@V?$allocator@U?$pair@$$CBV?$basic_string@DU?$char_traits@D@std@@V?$allocator@D@2@@std@@V?$shared_ptr@VRawImageData@@@2@@std@@@2@$0A@@std@@@std@@IAEXXZ 00400008     Player.obj
 0002:fffbe008       __ehfuncinfo$?_Alloc_sentinel_and_proxy@?$_Tree@V?$_Tmap_traits@V?$basic_string@DU?$char_traits@D@std@@V?$allocator@D@2@@std@@V?$weak_ptr@VRawImageData@@@2@U?$less@V?$basic_string@DU?$char_traits@D@std@@V?$allocator@D@2@@std@@@2@V?$allocator@U?$pair@$$CBV?$basic_string@DU?$char_traits@D@std@@V?$allocator@D@2@@std@@V?$weak_ptr@VRawImageData@@@2@@std@@@2@$0A@@std@@@std@@IAEXXZ 00400008     Player.obj
 0002:fffbe008       __ehfuncinfo$?get@ImageManager@@SAPAV1@XZ 00400008     Player.obj
 0002:fffbe008       __ehfuncinfo$?getImagebyURL@ImageManager@@QAE?AVSimpleImage@@V?$basic_string@DU?$char_traits@D@std@@V?$allocator@D@2@@std@@_N1@Z 00400008     Player.obj
 0002:fffbe008       __ehfuncinfo$?loadImage@RawImageData@@QAE_NV?$basic_string@DU?$char_traits@D@std@@V?$allocator@D@2@@std@@HHHHH_N@Z 00400008     Player.obj
 0001:fffff008       __unwindfunclet$??$?0VRawImageData@@$0A@@?$shared_ptr@VRawImageData@@@std@@QAE@PAVRawImageData@@@Z$1 00400008 f   Player.obj
 0001:fffff008       __unwindfunclet$?getImagePtrbyURL@ImageManager@@QAE?AV?$shared_ptr@VRawImageData@@@std@@V?$basic_string@DU?$char_traits@D@std@@V?$allocator@D@2@@3@_N1@Z$1 00400008 f   Player.obj
 0001:fffff008       __unwindfunclet$?loadAsNew@ImageManager@@QAE?AV?$shared_ptr@VRawImageData@@@std@@V?$basic_string@DU?$char_traits@D@std@@V?$allocator@D@2@@3@@Z$1 00400008 f   Player.obj
 0001:fffff008       __unwindfunclet$?loadImage@ImageManager@@SA?AVSimpleImage@@V?$basic_string@DU?$char_traits@D@std@@V?$allocator@D@2@@std@@_N@Z$1 00400008 f   Player.obj
 0002:fffbe008       __ehfuncinfo$??$_Construct@$00PBD@?$basic_string@DU?$char_traits@D@std@@V?$allocator@D@2@@std@@AAEXQBDI@Z 00400008     Psydp3Engine.obj
 0002:fffbe008       __ehfuncinfo$??0?$basic_string@DU?$char_traits@D@std@@V?$allocator@D@2@@std@@QAE@QBD@Z 00400008     Psydp3Engine.obj
 0002:fffbe008       __ehfuncinfo$??$?0U?$pair@V?$basic_string@DU?$char_traits@D@std@@V?$allocator@D@2@@std@@V?$shared_ptr@VRawImageData@@@2@@std@@@?$_Tree_temp_node@V?$allocator@U?$_Tree_node@U?$pair@$$CBV?$basic_string@DU?$char_traits@D@std@@V?$allocator@D@2@@std@@V?$shared_ptr@VRawImageData@@@2@@std@@PAX@std@@@std@@@std@@QAE@AAV?$allocator@U?$_Tree_node@U?$pair@$$CBV?$basic_string@DU?$char_traits@D@std@@V?$allocator@D@2@@std@@V?$shared_ptr@VRawImageData@@@2@@std@@PAX@std@@@1@PAU?$_Tree_node@U?$pair@$$CBV?$basic_string@DU?$char_traits@D@std@@V?$allocator@D@2@@std@@V?$shared_ptr@VRawImageData@@@2@@std@@PAX@1@$$QAU?$pair@V?$basic_string@DU?$char_traits@D@std@@V?$allocator@D@2@@std@@V?$shared_ptr@VRawImageData@@@2@@1@@Z 00400008     RunningState.obj
 0002:fffbe008       __ehfuncinfo$??$?0U?$pair@V?$basic_string@DU?$char_traits@D@std@@V?$allocator@D@2@@std@@V?$weak_ptr@VRawImageData@@@2@@std@@@?$_Tree_temp_node@V?$allocator@U?$_Tree_node@U?$pair@$$CBV?$basic_string@DU?$char_traits@D@std@@V?$allocator@D@2@@std@@V?$weak_ptr@VRawImageData@@@2@@std@@PAX@std@@@std@@@std@@QAE@AAV?$allocator@U?$_Tree_node@U?$pair@$$CBV?$basic_string@DU?$char_traits@D@std@@V?$allocator@D@2@@std@@V?$weak_ptr@VRawImageData@@@2@@std@@PAX@std@@@1@PAU?$_Tree_node@U?$pair@$$CBV?$basic_string@DU?$char_traits@D@std@@V?$allocator@D@2@@std@@V?$weak_ptr@VRawImageData@@@2@@std@@PAX@1@$$QAU?$pair@V?$basic_string@DU?$char_traits@D@std@@V?$allocator@D@2@@std@@V?$weak_ptr@VRawImageData@@@2@@1@@Z 00400008     RunningState.obj
 0002:fffbe008       __ehfuncinfo$??$_Construct@$00PBD@?$basic_string@DU?$char_traits@D@std@@V?$allocator@D@2@@std@@AAEXQBDI@Z 00400008     RunningState.obj
 0002:fffbe008       __ehfuncinfo$??$_Construct@$01PBD@?$basic_string@DU?$char_traits@D@std@@V?$allocator@D@2@@std@@AAEXQBDI@Z 00400008     RunningState.obj
 0002:fffbe008       __ehfuncinfo$??$_Uninitialized_move@PAPAVDisplayableObject@@V?$allocator@PAVDisplayableObject@@@std@@@std@@YAPAPAVDisplayableObject@@QAPAV1@0PAPAV1@AAV?$allocator@PAVDisplayableObject@@@0@@Z 00400008     RunningState.obj
 0002:fffbe008       __ehfuncinfo$??$_Uninitialized_value_construct_n@V?$allocator@PAVDisplayableObject@@@std@@@std@@YAPAPAVDisplayableObject@@PAPAV1@IAAV?$allocator@PAVDisplayableObject@@@0@@Z 00400008     RunningState.obj
 0002:fffbe008       __ehfuncinfo$??0?$_Tree_temp_node_alloc@V?$allocator@U?$_Tree_node@U?$pair@$$CBV?$basic_string@DU?$char_traits@D@std@@V?$allocator@D@2@@std@@V?$shared_ptr@VRawImageData@@@2@@std@@PAX@std@@@std@@@std@@QAE@AAV?$allocator@U?$_Tree_node@U?$pair@$$CBV?$basic_string@DU?$char_traits@D@std@@V?$allocator@D@2@@std@@V?$shared_ptr@VRawImageData@@@2@@std@@PAX@std@@@1@@Z 00400008     RunningState.obj
 0002:fffbe008       __ehfuncinfo$??0?$_Tree_temp_node_alloc@V?$allocator@U?$_Tree_node@U?$pair@$$CBV?$basic_string@DU?$char_traits@D@std@@V?$allocator@D@2@@std@@V?$weak_ptr@VRawImageData@@@2@@std@@PAX@std@@@std@@@std@@QAE@AAV?$allocator@U?$_Tree_node@U?$pair@$$CBV?$basic_string@DU?$char_traits@D@std@@V?$allocator@D@2@@std@@V?$weak_ptr@VRawImageData@@@2@@std@@PAX@std@@@1@@Z 00400008     RunningState.obj
 0002:fffbe008       __ehfuncinfo$??0?$basic_string@DU?$char_traits@D@std@@V?$allocator@D@2@@std@@QAE@ABV01@@Z 00400008     RunningState.obj
 0002:fffbe008       __ehfuncinfo$??0?$basic_string@DU?$char_traits@D@std@@V?$allocator@D@2@@std@@QAE@QBD@Z 00400008     RunningState.obj
 0002:fffbe008       __ehfuncinfo$??0GameObject@@QAE@HHPAVBaseEngine@@HH_N@Z 00400008     RunningState.obj
 0002:fffbe008       __ehfuncinfo$??0ImageManager@@QAE@XZ 00400008     RunningState.obj
 0002:fffbe008       __ehfuncinfo$??0RawImageData@@QAE@V?$basic_string@DU?$char_traits@D@std@@V?$allocator@D@2@@std@@@Z 00400008     RunningState.obj
 0002:fffbe008       __ehfuncinfo$??0sentry@?$basic_ostream@DU?$char_traits@D@std@@@std@@QAE@AAV12@@Z 00400008     RunningState.obj
 0002:fffbe008       __ehfuncinfo$?_Alloc_sentinel_and_proxy@?$_Tree@V?$_Tmap_traits@V?$basic_string@DU?$char_traits@D@std@@V?$allocator@D@2@@std@@V?$shared_ptr@VRawImageData@@@2@U?$less@V?$basic_string@DU?$char_traits@D@std@@V?$allocator@D@2@@std@@@2@V?$allocator@U?$pair@$$CBV?$basic_string@DU?$char_traits@D@std@@V?$allocator@D@2@@std@@V?$shared_ptr@VRawImageData@@@2@@std@@@2@$0A@@std@@@std@@IAEXXZ 00400008     RunningState.obj
 0002:fffbe008       __ehfuncinfo$?_Alloc_sentinel_and_proxy@?$_Tree@V?$_Tmap_traits@V?$basic_string@DU?$char_traits@D@std@@V?$allocator@D@2@@std@@V?$weak_ptr@VRawImageData@@@2@U?$less@V?$basic_string@DU?$char_traits@D@std@@V?$allocator@D@2@@std@@@2@V?$allocator@U?$pair@$$CBV?$basic_string@DU?$char_traits@D@std@@V?$allocator@D@2@@std@@V?$weak_ptr@VRawImageData@@@2@@std@@@2@$0A@@std@@@std@@IAEXXZ 00400008     RunningState.obj
 0002:fffbe008       __ehfuncinfo$?_Orphan_range_locked@?$vector@PAVDisplayableObject@@V?$allocator@PAVDisplayableObject@@@std@@@std@@ABEXPAPAVDisplayableObject@@0@Z 00400008     RunningState.obj
 0002:fffbe008       __ehfuncinfo$?get@ImageManager@@SAPAV1@XZ 00400008     RunningState.obj
 0002:fffbe008       __ehfuncinfo$?getImagebyURL@ImageManager@@QAE?AVSimpleImage@@V?$basic_string@DU?$char_traits@D@std@@V?$allocator@D@2@@std@@_N1@Z 00400008     RunningState.obj
 0002:fffbe008       __ehfuncinfo$?loadImage@RawImageData@@QAE_NV?$basic_string@DU?$char_traits@D@std@@V?$allocator@D@2@@std@@HHHHH_N@Z 00400008     RunningState.obj
 0001:fffff008       __unwindfunclet$??$?0VRawImageData@@$0A@@?$shared_ptr@VRawImageData@@@std@@QAE@PAVRawImageData@@@Z$1 00400008 f   RunningState.obj
 0001:fffff008       __unwindfunclet$?getImagePtrbyURL@ImageManager@@QAE?AV?$shared_ptr@VRawImageData@@@std@@V?$basic_string@DU?$char_traits@D@std@@V?$allocator@D@2@@3@_N1@Z$1 00400008 f   RunningState.obj
 0001:fffff008       __unwindfunclet$?loadAsNew@ImageManager@@QAE?AV?$shared_ptr@VRawImageData@@@std@@V?$basic_string@DU?$char_traits@D@std@@V?$allocator@D@2@@3@@Z$1 00400008 f   RunningState.obj
 0001:fffff008       __unwindfunclet$?loadImage@ImageManager@@SA?AVSimpleImage@@V?$basic_string@DU?$char_traits@D@std@@V?$allocator@D@2@@std@@_N@Z$1 00400008 f   RunningState.obj
 0002:fffbe008       __ehfuncinfo$??$_Uninitialized_move@PAPAVDisplayableObject@@V?$allocator@PAVDisplayableObject@@@std@@@std@@YAPAPAVDisplayableObject@@QAPAV1@0PAPAV1@AAV?$allocator@PAVDisplayableObject@@@0@@Z 00400008     SimpleDemo.obj
 0002:fffbe008       __ehfuncinfo$??$_Uninitialized_value_construct_n@V?$allocator@PAVDisplayableObject@@@std@@@std@@YAPAPAVDisplayableObject@@PAPAV1@IAAV?$allocator@PAVDisplayableObject@@@0@@Z 00400008     SimpleDemo.obj
 0002:fffbe008       __ehfuncinfo$??0sentry@?$basic_ostream@DU?$char_traits@D@std@@@std@@QAE@AAV12@@Z 00400008     SimpleDemo.obj
 0002:fffbe008       __ehfuncinfo$?_Orphan_range_locked@?$vector@PAVDisplayableObject@@V?$allocator@PAVDisplayableObject@@@std@@@std@@ABEXPAPAVDisplayableObject@@0@Z 00400008     SimpleDemo.obj
 0002:fffbe008       __ehfuncinfo$??0sentry@?$basic_ostream@DU?$char_traits@D@std@@@std@@QAE@AAV12@@Z 00400008     SimpleImage.obj
 0002:fffbe008       __ehfuncinfo$??0sentry@?$basic_ostream@DU?$char_traits@D@std@@@std@@QAE@AAV12@@Z 00400008     StarfieldDemo.obj
 0002:fffbe008       __ehfuncinfo$??$?0U?$pair@V?$basic_string@DU?$char_traits@D@std@@V?$allocator@D@2@@std@@V?$shared_ptr@VRawImageData@@@2@@std@@@?$_Tree_temp_node@V?$allocator@U?$_Tree_node@U?$pair@$$CBV?$basic_string@DU?$char_traits@D@std@@V?$allocator@D@2@@std@@V?$shared_ptr@VRawImageData@@@2@@std@@PAX@std@@@std@@@std@@QAE@AAV?$allocator@U?$_Tree_node@U?$pair@$$CBV?$basic_string@DU?$char_traits@D@std@@V?$allocator@D@2@@std@@V?$shared_ptr@VRawImageData@@@2@@std@@PAX@std@@@1@PAU?$_Tree_node@U?$pair@$$CBV?$basic_string@DU?$char_traits@D@std@@V?$allocator@D@2@@std@@V?$shared_ptr@VRawImageData@@@2@@std@@PAX@1@$$QAU?$pair@V?$basic_string@DU?$char_traits@D@std@@V?$allocator@D@2@@std@@V?$shared_ptr@VRawImageData@@@2@@1@@Z 00400008     StartupState.obj
 0002:fffbe008       __ehfuncinfo$??$?0U?$pair@V?$basic_string@DU?$char_traits@D@std@@V?$allocator@D@2@@std@@V?$weak_ptr@VRawImageData@@@2@@std@@@?$_Tree_temp_node@V?$allocator@U?$_Tree_node@U?$pair@$$CBV?$basic_string@DU?$char_traits@D@std@@V?$allocator@D@2@@std@@V?$weak_ptr@VRawImageData@@@2@@std@@PAX@std@@@std@@@std@@QAE@AAV?$allocator@U?$_Tree_node@U?$pair@$$CBV?$basic_string@DU?$char_traits@D@std@@V?$allocator@D@2@@std@@V?$weak_ptr@VRawImageData@@@2@@std@@PAX@std@@@1@PAU?$_Tree_node@U?$pair@$$CBV?$basic_string@DU?$char_traits@D@std@@V?$allocator@D@2@@std@@V?$weak_ptr@VRawImageData@@@2@@std@@PAX@1@$$QAU?$pair@V?$basic_string@DU?$char_traits@D@std@@V?$allocator@D@2@@std@@V?$weak_ptr@VRawImageData@@@2@@1@@Z 00400008     StartupState.obj
 0002:fffbe008       __ehfuncinfo$??$_Construct@$00PBD@?$basic_string@DU?$char_traits@D@std@@V?$allocator@D@2@@std@@AAEXQBDI@Z 00400008     StartupState.obj
 0002:fffbe008       __ehfuncinfo$??$_Construct@$01PBD@?$basic_string@DU?$char_traits@D@std@@V?$allocator@D@2@@std@@AAEXQBDI@Z 00400008     StartupState.obj
 0002:fffbe008       __ehfuncinfo$??$_Uninitialized_move@PAPAVDisplayableObject@@V?$allocator@PAVDisplayableObject@@@std@@@std@@YAPAPAVDisplayableObject@@QAPAV1@0PAPAV1@AAV?$allocator@PAVDisplayableObject@@@0@@Z 00400008     StartupState.obj
 0002:fffbe008       __ehfuncinfo$??$_Uninitialized_value_construct_n@V?$allocator@PAVDisplayableObject@@@std@@@std@@YAPAPAVDisplayableObject@@PAPAV1@IAAV?$allocator@PAVDisplayableObject@@@0@@Z 00400008     StartupState.obj
 0002:fffbe008       __ehfuncinfo$??0?$_Tree_temp_node_alloc@V?$allocator@U?$_Tree_node@U?$pair@$$CBV?$basic_string@DU?$char_traits@D@std@@V?$allocator@D@2@@std@@V?$shared_ptr@VRawImageData@@@2@@std@@PAX@std@@@std@@@std@@QAE@AAV?$allocator@U?$_Tree_node@U?$pair@$$CBV?$basic_string@DU?$char_traits@D@std@@V?$allocator@D@2@@std@@V?$shared_ptr@VRawImageData@@@2@@std@@PAX@std@@@1@@Z 00400008     StartupState.obj
 0002:fffbe008       __ehfuncinfo$??0?$_Tree_temp_node_alloc@V?$allocator@U?$_Tree_node@U?$pair@$$CBV?$basic_string@DU?$char_traits@D@std@@V?$allocator@D@2@@std@@V?$weak_ptr@VRawImageData@@@2@@std@@PAX@std@@@std@@@std@@QAE@AAV?$allocator@U?$_Tree_node@U?$pair@$$CBV?$basic_string@DU?$char_traits@D@std@@V?$allocator@D@2@@std@@V?$weak_ptr@VRawImageData@@@2@@std@@PAX@std@@@1@@Z 00400008     StartupState.obj
 0002:fffbe008       __ehfuncinfo$??0?$basic_filebuf@DU?$char_traits@D@std@@@std@@QAE@XZ 00400008     StartupState.obj
 0002:fffbe008       __ehfuncinfo$??0?$basic_string@DU?$char_traits@D@std@@V?$allocator@D@2@@std@@QAE@ABV01@@Z 00400008     StartupState.obj
 0002:fffbe008       __ehfuncinfo$??0?$basic_string@DU?$char_traits@D@std@@V?$allocator@D@2@@std@@QAE@QBD@Z 00400008     StartupState.obj
 0002:fffbe008       __ehfuncinfo$??0ImageManager@@QAE@XZ 00400008     StartupState.obj
 0002:fffbe008       __ehfuncinfo$??0RawImageData@@QAE@V?$basic_string@DU?$char_traits@D@std@@V?$allocator@D@2@@std@@@Z 00400008     StartupState.obj
 0002:fffbe008       __ehfuncinfo$??0sentry@?$basic_ostream@DU?$char_traits@D@std@@@std@@QAE@AAV12@@Z 00400008     StartupState.obj
 0002:fffbe008       __ehfuncinfo$?_Alloc_sentinel_and_proxy@?$_Tree@V?$_Tmap_traits@V?$basic_string@DU?$char_traits@D@std@@V?$allocator@D@2@@std@@V?$shared_ptr@VRawImageData@@@2@U?$less@V?$basic_string@DU?$char_traits@D@std@@V?$allocator@D@2@@std@@@2@V?$allocator@U?$pair@$$CBV?$basic_string@DU?$char_traits@D@std@@V?$allocator@D@2@@std@@V?$shared_ptr@VRawImageData@@@2@@std@@@2@$0A@@std@@@std@@IAEXXZ 00400008     StartupState.obj
 0002:fffbe008       __ehfuncinfo$?_Alloc_sentinel_and_proxy@?$_Tree@V?$_Tmap_traits@V?$basic_string@DU?$char_traits@D@std@@V?$allocator@D@2@@std@@V?$weak_ptr@VRawImageData@@@2@U?$less@V?$basic_string@DU?$char_traits@D@std@@V?$allocator@D@2@@std@@@2@V?$allocator@U?$pair@$$CBV?$basic_string@DU?$char_traits@D@std@@V?$allocator@D@2@@std@@V?$weak_ptr@VRawImageData@@@2@@std@@@2@$0A@@std@@@std@@IAEXXZ 00400008     StartupState.obj
 0002:fffbe008       __ehfuncinfo$?_Orphan_range_locked@?$vector@PAVDisplayableObject@@V?$allocator@PAVDisplayableObject@@@std@@@std@@ABEXPAPAVDisplayableObject@@0@Z 00400008     StartupState.obj
 0002:fffbe008       __ehfuncinfo$?get@ImageManager@@SAPAV1@XZ 00400008     StartupState.obj
 0002:fffbe008       __ehfuncinfo$?getImagebyURL@ImageManager@@QAE?AVSimpleImage@@V?$basic_string@DU?$char_traits@D@std@@V?$allocator@D@2@@std@@_N1@Z 00400008     StartupState.obj
 0002:fffbe008       __ehfuncinfo$?loadImage@RawImageData@@QAE_NV?$basic_string@DU?$char_traits@D@std@@V?$allocator@D@2@@std@@HHHHH_N@Z 00400008     StartupState.obj
 0002:fffbe008       __ehfuncinfo$?open@?$basic_filebuf@DU?$char_traits@D@std@@@std@@QAEPAV12@PBDHH@Z 00400008     StartupState.obj
 0002:fffbe008       __ehfuncinfo$?setAllObjectsVisible@DisplayableObjectContainer@@QBEX_N@Z 00400008     StartupState.obj
 0002:fffbe008       __ehfuncinfo$?uflow@?$basic_filebuf@DU?$char_traits@D@std@@@std@@MAEHXZ 00400008     StartupState.obj
 0001:fffff008       __unwindfunclet$??$?0VRawImageData@@$0A@@?$shared_ptr@VRawImageData@@@std@@QAE@PAVRawImageData@@@Z$1 00400008 f   StartupState.obj
 0001:fffff008       __unwindfunclet$?getImagePtrbyURL@ImageManager@@QAE?AV?$shared_ptr@VRawImageData@@@std@@V?$basic_string@DU?$char_traits@D@std@@V?$allocator@D@2@@3@_N1@Z$1 00400008 f   StartupState.obj
 0001:fffff008       __unwindfunclet$?loadAsNew@ImageManager@@QAE?AV?$shared_ptr@VRawImageData@@@std@@V?$basic_string@DU?$char_traits@D@std@@V?$allocator@D@2@@3@@Z$1 00400008 f   StartupState.obj
 0001:fffff008       __unwindfunclet$?loadImage@ImageManager@@SA?AVSimpleImage@@V?$basic_string@DU?$char_traits@D@std@@V?$allocator@D@2@@std@@_N@Z$1 00400008 f   StartupState.obj
 0002:fffbe008       __ehfuncinfo$??$?0U?$pair@V?$basic_string@DU?$char_traits@D@std@@V?$allocator@D@2@@std@@V?$shared_ptr@VRawImageData@@@2@@std@@@?$_Tree_temp_node@V?$allocator@U?$_Tree_node@U?$pair@$$CBV?$basic_string@DU?$char_traits@D@std@@V?$allocator@D@2@@std@@V?$shared_ptr@VRawImageData@@@2@@std@@PAX@std@@@std@@@std@@QAE@AAV?$allocator@U?$_Tree_node@U?$pair@$$CBV?$basic_string@DU?$char_traits@D@std@@V?$allocator@D@2@@std@@V?$shared_ptr@VRawImageData@@@2@@std@@PAX@std@@@1@PAU?$_Tree_node@U?$pair@$$CBV?$basic_string@DU?$char_traits@D@std@@V?$allocator@D@2@@std@@V?$shared_ptr@VRawImageData@@@2@@std@@PAX@1@$$QAU?$pair@V?$basic_string@DU?$char_traits@D@std@@V?$allocator@D@2@@std@@V?$shared_ptr@VRawImageData@@@2@@1@@Z 00400008     WinState.obj
 0002:fffbe008       __ehfuncinfo$??$?0U?$pair@V?$basic_string@DU?$char_traits@D@std@@V?$allocator@D@2@@std@@V?$weak_ptr@VRawImageData@@@2@@std@@@?$_Tree_temp_node@V?$allocator@U?$_Tree_node@U?$pair@$$CBV?$basic_string@DU?$char_traits@D@std@@V?$allocator@D@2@@std@@V?$weak_ptr@VRawImageData@@@2@@std@@PAX@std@@@std@@@std@@QAE@AAV?$allocator@U?$_Tree_node@U?$pair@$$CBV?$basic_string@DU?$char_traits@D@std@@V?$allocator@D@2@@std@@V?$weak_ptr@VRawImageData@@@2@@std@@PAX@std@@@1@PAU?$_Tree_node@U?$pair@$$CBV?$basic_string@DU?$char_traits@D@std@@V?$allocator@D@2@@std@@V?$weak_ptr@VRawImageData@@@2@@std@@PAX@1@$$QAU?$pair@V?$basic_string@DU?$char_traits@D@std@@V?$allocator@D@2@@std@@V?$weak_ptr@VRawImageData@@@2@@1@@Z 00400008     WinState.obj
 0002:fffbe008       __ehfuncinfo$??$_Construct@$00PBD@?$basic_string@DU?$char_traits@D@std@@V?$allocator@D@2@@std@@AAEXQBDI@Z 00400008     WinState.obj
 0002:fffbe008       __ehfuncinfo$??$_Construct@$01PBD@?$basic_string@DU?$char_traits@D@std@@V?$allocator@D@2@@std@@AAEXQBDI@Z 00400008     WinState.obj
 0002:fffbe008       __ehfuncinfo$??$_Uninitialized_move@PAPAVDisplayableObject@@V?$allocator@PAVDisplayableObject@@@std@@@std@@YAPAPAVDisplayableObject@@QAPAV1@0PAPAV1@AAV?$allocator@PAVDisplayableObject@@@0@@Z 00400008     WinState.obj
 0002:fffbe008       __ehfuncinfo$??$_Uninitialized_value_construct_n@V?$allocator@PAVDisplayableObject@@@std@@@std@@YAPAPAVDisplayableObject@@PAPAV1@IAAV?$allocator@PAVDisplayableObject@@@0@@Z 00400008     WinState.obj
 0002:fffbe008       __ehfuncinfo$??0?$_Tree_temp_node_alloc@V?$allocator@U?$_Tree_node@U?$pair@$$CBV?$basic_string@DU?$char_traits@D@std@@V?$allocator@D@2@@std@@V?$shared_ptr@VRawImageData@@@2@@std@@PAX@std@@@std@@@std@@QAE@AAV?$allocator@U?$_Tree_node@U?$pair@$$CBV?$basic_string@DU?$char_traits@D@std@@V?$allocator@D@2@@std@@V?$shared_ptr@VRawImageData@@@2@@std@@PAX@std@@@1@@Z 00400008     WinState.obj
 0002:fffbe008       __ehfuncinfo$??0?$_Tree_temp_node_alloc@V?$allocator@U?$_Tree_node@U?$pair@$$CBV?$basic_string@DU?$char_traits@D@std@@V?$allocator@D@2@@std@@V?$weak_ptr@VRawImageData@@@2@@std@@PAX@std@@@std@@@std@@QAE@AAV?$allocator@U?$_Tree_node@U?$pair@$$CBV?$basic_string@DU?$char_traits@D@std@@V?$allocator@D@2@@std@@V?$weak_ptr@VRawImageData@@@2@@std@@PAX@std@@@1@@Z 00400008     WinState.obj
 0002:fffbe008       __ehfuncinfo$??0?$basic_string@DU?$char_traits@D@std@@V?$allocator@D@2@@std@@QAE@ABV01@@Z 00400008     WinState.obj
 0002:fffbe008       __ehfuncinfo$??0?$basic_string@DU?$char_traits@D@std@@V?$allocator@D@2@@std@@QAE@QBD@Z 00400008     WinState.obj
 0002:fffbe008       __ehfuncinfo$??0ImageManager@@QAE@XZ 00400008     WinState.obj
 0002:fffbe008       __ehfuncinfo$??0RawImageData@@QAE@V?$basic_string@DU?$char_traits@D@std@@V?$allocator@D@2@@std@@@Z 00400008     WinState.obj
 0002:fffbe008       __ehfuncinfo$??0sentry@?$basic_ostream@DU?$char_traits@D@std@@@std@@QAE@AAV12@@Z 00400008     WinState.obj
 0002:fffbe008       __ehfuncinfo$?_Alloc_sentinel_and_proxy@?$_Tree@V?$_Tmap_traits@V?$basic_string@DU?$char_traits@D@std@@V?$allocator@D@2@@std@@V?$shared_ptr@VRawImageData@@@2@U?$less@V?$basic_string@DU?$char_traits@D@std@@V?$allocator@D@2@@std@@@2@V?$allocator@U?$pair@$$CBV?$basic_string@DU?$char_traits@D@std@@V?$allocator@D@2@@std@@V?$shared_ptr@VRawImageData@@@2@@std@@@2@$0A@@std@@@std@@IAEXXZ 00400008     WinState.obj
 0002:fffbe008       __ehfuncinfo$?_Alloc_sentinel_and_proxy@?$_Tree@V?$_Tmap_traits@V?$basic_string@DU?$char_traits@D@std@@V?$allocator@D@2@@std@@V?$weak_ptr@VRawImageData@@@2@U?$less@V?$basic_string@DU?$char_traits@D@std@@V?$allocator@D@2@@std@@@2@V?$allocator@U?$pair@$$CBV?$basic_string@DU?$char_traits@D@std@@V?$allocator@D@2@@std@@V?$weak_ptr@VRawImageData@@@2@@std@@@2@$0A@@std@@@std@@IAEXXZ 00400008     WinState.obj
 0002:fffbe008       __ehfuncinfo$?_Orphan_range_locked@?$vector@PAVDisplayableObject@@V?$allocator@PAVDisplayableObject@@@std@@@std@@ABEXPAPAVDisplayableObject@@0@Z 00400008     WinState.obj
 0002:fffbe008       __ehfuncinfo$?get@ImageManager@@SAPAV1@XZ 00400008     WinState.obj
 0002:fffbe008       __ehfuncinfo$?getImagebyURL@ImageManager@@QAE?AVSimpleImage@@V?$basic_string@DU?$char_traits@D@std@@V?$allocator@D@2@@std@@_N1@Z 00400008     WinState.obj
 0002:fffbe008       __ehfuncinfo$?loadImage@RawImageData@@QAE_NV?$basic_string@DU?$char_traits@D@std@@V?$allocator@D@2@@std@@HHHHH_N@Z 00400008     WinState.obj
 0002:fffbe008       __ehfuncinfo$?setAllObjectsVisible@DisplayableObjectContainer@@QBEX_N@Z 00400008     WinState.obj
 0001:fffff008       __unwindfunclet$??$?0VRawImageData@@$0A@@?$shared_ptr@VRawImageData@@@std@@QAE@PAVRawImageData@@@Z$1 00400008 f   WinState.obj
 0001:fffff008       __unwindfunclet$?getImagePtrbyURL@ImageManager@@QAE?AV?$shared_ptr@VRawImageData@@@std@@V?$basic_string@DU?$char_traits@D@std@@V?$allocator@D@2@@3@_N1@Z$1 00400008 f   WinState.obj
 0001:fffff008       __unwindfunclet$?loadAsNew@ImageManager@@QAE?AV?$shared_ptr@VRawImageData@@@std@@V?$basic_string@DU?$char_traits@D@std@@V?$allocator@D@2@@3@@Z$1 00400008 f   WinState.obj
 0001:fffff008       __unwindfunclet$?loadImage@ImageManager@@SA?AVSimpleImage@@V?$basic_string@DU?$char_traits@D@std@@V?$allocator@D@2@@std@@_N@Z$1 00400008 f   WinState.obj
 0002:fffbe008       __ehfuncinfo$??0sentry@?$basic_ostream@DU?$char_traits@D@std@@@std@@QAE@AAV12@@Z 00400008     ZoomPoints.obj
 0002:fffbe008       __ehfuncinfo$??$?0U?$pair@V?$basic_string@DU?$char_traits@D@std@@V?$allocator@D@2@@std@@V?$shared_ptr@VRawImageData@@@2@@std@@@?$_Tree_temp_node@V?$allocator@U?$_Tree_node@U?$pair@$$CBV?$basic_string@DU?$char_traits@D@std@@V?$allocator@D@2@@std@@V?$shared_ptr@VRawImageData@@@2@@std@@PAX@std@@@std@@@std@@QAE@AAV?$allocator@U?$_Tree_node@U?$pair@$$CBV?$basic_string@DU?$char_traits@D@std@@V?$allocator@D@2@@std@@V?$shared_ptr@VRawImageData@@@2@@std@@PAX@std@@@1@PAU?$_Tree_node@U?$pair@$$CBV?$basic_string@DU?$char_traits@D@std@@V?$allocator@D@2@@std@@V?$shared_ptr@VRawImageData@@@2@@std@@PAX@1@$$QAU?$pair@V?$basic_string@DU?$char_traits@D@std@@V?$allocator@D@2@@std@@V?$shared_ptr@VRawImageData@@@2@@1@@Z 00400008     ZoomingDemo.obj
 0002:fffbe008       __ehfuncinfo$??$?0U?$pair@V?$basic_string@DU?$char_traits@D@std@@V?$allocator@D@2@@std@@V?$weak_ptr@VRawImageData@@@2@@std@@@?$_Tree_temp_node@V?$allocator@U?$_Tree_node@U?$pair@$$CBV?$basic_string@DU?$char_traits@D@std@@V?$allocator@D@2@@std@@V?$weak_ptr@VRawImageData@@@2@@std@@PAX@std@@@std@@@std@@QAE@AAV?$allocator@U?$_Tree_node@U?$pair@$$CBV?$basic_string@DU?$char_traits@D@std@@V?$allocator@D@2@@std@@V?$weak_ptr@VRawImageData@@@2@@std@@PAX@std@@@1@PAU?$_Tree_node@U?$pair@$$CBV?$basic_string@DU?$char_traits@D@std@@V?$allocator@D@2@@std@@V?$weak_ptr@VRawImageData@@@2@@std@@PAX@1@$$QAU?$pair@V?$basic_string@DU?$char_traits@D@std@@V?$allocator@D@2@@std@@V?$weak_ptr@VRawImageData@@@2@@1@@Z 00400008     ZoomingDemo.obj
 0002:fffbe008       __ehfuncinfo$??$_Construct@$00PBD@?$basic_string@DU?$char_traits@D@std@@V?$allocator@D@2@@std@@AAEXQBDI@Z 00400008     ZoomingDemo.obj
 0002:fffbe008       __ehfuncinfo$??$_Construct@$01PBD@?$basic_string@DU?$char_traits@D@std@@V?$allocator@D@2@@std@@AAEXQBDI@Z 00400008     ZoomingDemo.obj
 0002:fffbe008       __ehfuncinfo$??$_Uninitialized_move@PAPAVDisplayableObject@@V?$allocator@PAVDisplayableObject@@@std@@@std@@YAPAPAVDisplayableObject@@QAPAV1@0PAPAV1@AAV?$allocator@PAVDisplayableObject@@@0@@Z 00400008     ZoomingDemo.obj
 0002:fffbe008       __ehfuncinfo$??$_Uninitialized_value_construct_n@V?$allocator@PAVDisplayableObject@@@std@@@std@@YAPAPAVDisplayableObject@@PAPAV1@IAAV?$allocator@PAVDisplayableObject@@@0@@Z 00400008     ZoomingDemo.obj
 0002:fffbe008       __ehfuncinfo$??0?$_Tree_temp_node_alloc@V?$allocator@U?$_Tree_node@U?$pair@$$CBV?$basic_string@DU?$char_traits@D@std@@V?$allocator@D@2@@std@@V?$shared_ptr@VRawImageData@@@2@@std@@PAX@std@@@std@@@std@@QAE@AAV?$allocator@U?$_Tree_node@U?$pair@$$CBV?$basic_string@DU?$char_traits@D@std@@V?$allocator@D@2@@std@@V?$shared_ptr@VRawImageData@@@2@@std@@PAX@std@@@1@@Z 00400008     ZoomingDemo.obj
 0002:fffbe008       __ehfuncinfo$??0?$_Tree_temp_node_alloc@V?$allocator@U?$_Tree_node@U?$pair@$$CBV?$basic_string@DU?$char_traits@D@std@@V?$allocator@D@2@@std@@V?$weak_ptr@VRawImageData@@@2@@std@@PAX@std@@@std@@@std@@QAE@AAV?$allocator@U?$_Tree_node@U?$pair@$$CBV?$basic_string@DU?$char_traits@D@std@@V?$allocator@D@2@@std@@V?$weak_ptr@VRawImageData@@@2@@std@@PAX@std@@@1@@Z 00400008     ZoomingDemo.obj
 0002:fffbe008       __ehfuncinfo$??0?$basic_string@DU?$char_traits@D@std@@V?$allocator@D@2@@std@@QAE@ABV01@@Z 00400008     ZoomingDemo.obj
 0002:fffbe008       __ehfuncinfo$??0?$basic_string@DU?$char_traits@D@std@@V?$allocator@D@2@@std@@QAE@QBD@Z 00400008     ZoomingDemo.obj
 0002:fffbe008       __ehfuncinfo$??0DragableObject@@QAE@HHPAVBaseEngine@@HH_N1@Z 00400008     ZoomingDemo.obj
 0002:fffbe008       __ehfuncinfo$??0ImageManager@@QAE@XZ 00400008     ZoomingDemo.obj
 0002:fffbe008       __ehfuncinfo$??0RawImageData@@QAE@V?$basic_string@DU?$char_traits@D@std@@V?$allocator@D@2@@std@@@Z 00400008     ZoomingDemo.obj
 0002:fffbe008       __ehfuncinfo$??0sentry@?$basic_ostream@DU?$char_traits@D@std@@@std@@QAE@AAV12@@Z 00400008     ZoomingDemo.obj
 0002:fffbe008       __ehfuncinfo$?_Alloc_sentinel_and_proxy@?$_Tree@V?$_Tmap_traits@V?$basic_string@DU?$char_traits@D@std@@V?$allocator@D@2@@std@@V?$shared_ptr@VRawImageData@@@2@U?$less@V?$basic_string@DU?$char_traits@D@std@@V?$allocator@D@2@@std@@@2@V?$allocator@U?$pair@$$CBV?$basic_string@DU?$char_traits@D@std@@V?$allocator@D@2@@std@@V?$shared_ptr@VRawImageData@@@2@@std@@@2@$0A@@std@@@std@@IAEXXZ 00400008     ZoomingDemo.obj
 0002:fffbe008       __ehfuncinfo$?_Alloc_sentinel_and_proxy@?$_Tree@V?$_Tmap_traits@V?$basic_string@DU?$char_traits@D@std@@V?$allocator@D@2@@std@@V?$weak_ptr@VRawImageData@@@2@U?$less@V?$basic_string@DU?$char_traits@D@std@@V?$allocator@D@2@@std@@@2@V?$allocator@U?$pair@$$CBV?$basic_string@DU?$char_traits@D@std@@V?$allocator@D@2@@std@@V?$weak_ptr@VRawImageData@@@2@@std@@@2@$0A@@std@@@std@@IAEXXZ 00400008     ZoomingDemo.obj
 0002:fffbe008       __ehfuncinfo$?_Orphan_range_locked@?$vector@PAVDisplayableObject@@V?$allocator@PAVDisplayableObject@@@std@@@std@@ABEXPAPAVDisplayableObject@@0@Z 00400008     ZoomingDemo.obj
 0002:fffbe008       __ehfuncinfo$?get@ImageManager@@SAPAV1@XZ 00400008     ZoomingDemo.obj
 0002:fffbe008       __ehfuncinfo$?getImagebyURL@ImageManager@@QAE?AVSimpleImage@@V?$basic_string@DU?$char_traits@D@std@@V?$allocator@D@2@@std@@_N1@Z 00400008     ZoomingDemo.obj
 0002:fffbe008       __ehfuncinfo$?loadImage@RawImageData@@QAE_NV?$basic_string@DU?$char_traits@D@std@@V?$allocator@D@2@@std@@HHHHH_N@Z 00400008     ZoomingDemo.obj
 0001:fffff008       __unwindfunclet$??$?0VRawImageData@@$0A@@?$shared_ptr@VRawImageData@@@std@@QAE@PAVRawImageData@@@Z$1 00400008 f   ZoomingDemo.obj
 0001:fffff008       __unwindfunclet$??0DragableImageObject@@QAE@HHPAVBaseEngine@@V?$basic_string@DU?$char_traits@D@std@@V?$allocator@D@2@@std@@_N2@Z$1 00400008 f   ZoomingDemo.obj
 0001:fffff008       __unwindfunclet$?getImagePtrbyURL@ImageManager@@QAE?AV?$shared_ptr@VRawImageData@@@std@@V?$basic_string@DU?$char_traits@D@std@@V?$allocator@D@2@@3@_N1@Z$1 00400008 f   ZoomingDemo.obj
 0001:fffff008       __unwindfunclet$?loadAsNew@ImageManager@@QAE?AV?$shared_ptr@VRawImageData@@@std@@V?$basic_string@DU?$char_traits@D@std@@V?$allocator@D@2@@3@@Z$1 00400008 f   ZoomingDemo.obj
 0000:fffa7008       __guard_fids__             00400008     MSVCRTD:exe_main.obj
 0001:fffff009       __unwindfunclet$??$use_facet@V?$codecvt@DDU_Mbstatet@@@std@@@std@@YAABV?$codecvt@DDU_Mbstatet@@@0@ABVlocale@0@@Z$1 00400009 f   StartupState.obj
 0000:0000000c       _volmd                     0040000c     BaseEngine.obj
 0000:0000000c       _volmd                     0040000c     BouncingBall.obj
 0000:0000000c       _volmd                     0040000c     Enemy.obj
 0000:0000000c       _volmd                     0040000c     LoseState.obj
 0000:0000000c       _volmd                     0040000c     MazeDemoMain.obj
 0000:0000000c       _volmd                     0040000c     Psydp3Engine.obj
 0000:0000000c       _volmd                     0040000c     RunningState.obj
 0000:0000000c       _volmd                     0040000c     SimpleDemo.obj
 0000:0000000c       _volmd                     0040000c     StartupState.obj
 0000:0000000c       _volmd                     0040000c     WinState.obj
 0000:0000000c       _volmd                     0040000c     ZoomingDemo.obj
 0001:fffff00d       __ehhandler$??$?0U?$pair@V?$basic_string@DU?$char_traits@D@std@@V?$allocator@D@2@@std@@V?$shared_ptr@VRawImageData@@@2@@std@@@?$_Tree_temp_node@V?$allocator@U?$_Tree_node@U?$pair@$$CBV?$basic_string@DU?$char_traits@D@std@@V?$allocator@D@2@@std@@V?$shared_ptr@VRawImageData@@@2@@std@@PAX@std@@@std@@@std@@QAE@AAV?$allocator@U?$_Tree_node@U?$pair@$$CBV?$basic_string@DU?$char_traits@D@std@@V?$allocator@D@2@@std@@V?$shared_ptr@VRawImageData@@@2@@std@@PAX@std@@@1@PAU?$_Tree_node@U?$pair@$$CBV?$basic_string@DU?$char_traits@D@std@@V?$allocator@D@2@@std@@V?$shared_ptr@VRawImageData@@@2@@std@@PAX@1@$$QAU?$pair@V?$basic_string@DU?$char_traits@D@std@@V?$allocator@D@2@@std@@V?$shared_ptr@VRawImageData@@@2@@1@@Z 0040000d f   Attack.obj
 0001:fffff00d       __ehhandler$??$?0U?$pair@V?$basic_string@DU?$char_traits@D@std@@V?$allocator@D@2@@std@@V?$weak_ptr@VRawImageData@@@2@@std@@@?$_Tree_temp_node@V?$allocator@U?$_Tree_node@U?$pair@$$CBV?$basic_string@DU?$char_traits@D@std@@V?$allocator@D@2@@std@@V?$weak_ptr@VRawImageData@@@2@@std@@PAX@std@@@std@@@std@@QAE@AAV?$allocator@U?$_Tree_node@U?$pair@$$CBV?$basic_string@DU?$char_traits@D@std@@V?$allocator@D@2@@std@@V?$weak_ptr@VRawImageData@@@2@@std@@PAX@std@@@1@PAU?$_Tree_node@U?$pair@$$CBV?$basic_string@DU?$char_traits@D@std@@V?$allocator@D@2@@std@@V?$weak_ptr@VRawImageData@@@2@@std@@PAX@1@$$QAU?$pair@V?$basic_string@DU?$char_traits@D@std@@V?$allocator@D@2@@std@@V?$weak_ptr@VRawImageData@@@2@@1@@Z 0040000d f   Attack.obj
 0001:fffff00d       __ehhandler$??$?6U?$char_traits@D@std@@@std@@YAAAV?$basic_ostream@DU?$char_traits@D@std@@@0@AAV10@PBD@Z 0040000d f   Attack.obj
 0001:fffff00d       __ehhandler$??$_Construct@$01PBD@?$basic_string@DU?$char_traits@D@std@@V?$allocator@D@2@@std@@AAEXQBDI@Z 0040000d f   Attack.obj
 0001:fffff00d       __ehhandler$??$_Insert_string@DU?$char_traits@D@std@@I@std@@YAAAV?$basic_ostream@DU?$char_traits@D@std@@@0@AAV10@QBDI@Z 0040000d f   Attack.obj
 0001:fffff00d       __ehhandler$??0?$_Tree_temp_node_alloc@V?$allocator@U?$_Tree_node@U?$pair@$$CBV?$basic_string@DU?$char_traits@D@std@@V?$allocator@D@2@@std@@V?$shared_ptr@VRawImageData@@@2@@std@@PAX@std@@@std@@@std@@QAE@AAV?$allocator@U?$_Tree_node@U?$pair@$$CBV?$basic_string@DU?$char_traits@D@std@@V?$allocator@D@2@@std@@V?$shared_ptr@VRawImageData@@@2@@std@@PAX@std@@@1@@Z 0040000d f   Attack.obj
 0001:fffff00d       __ehhandler$??0?$_Tree_temp_node_alloc@V?$allocator@U?$_Tree_node@U?$pair@$$CBV?$basic_string@DU?$char_traits@D@std@@V?$allocator@D@2@@std@@V?$weak_ptr@VRawImageData@@@2@@std@@PAX@std@@@std@@@std@@QAE@AAV?$allocator@U?$_Tree_node@U?$pair@$$CBV?$basic_string@DU?$char_traits@D@std@@V?$allocator@D@2@@std@@V?$weak_ptr@VRawImageData@@@2@@std@@PAX@std@@@1@@Z 0040000d f   Attack.obj
 0001:fffff00d       __ehhandler$??0?$basic_string@DU?$char_traits@D@std@@V?$allocator@D@2@@std@@QAE@ABV01@@Z 0040000d f   Attack.obj
 0001:fffff00d       __ehhandler$??0ImageManager@@QAE@XZ 0040000d f   Attack.obj
 0001:fffff00d       __ehhandler$??0RawImageData@@QAE@V?$basic_string@DU?$char_traits@D@std@@V?$allocator@D@2@@std@@@Z 0040000d f   Attack.obj
 0001:fffff00d       __ehhandler$??0sentry@?$basic_ostream@DU?$char_traits@D@std@@@std@@QAE@AAV12@@Z 0040000d f   Attack.obj
 0001:fffff00d       __ehhandler$?_Alloc_sentinel_and_proxy@?$_Tree@V?$_Tmap_traits@V?$basic_string@DU?$char_traits@D@std@@V?$allocator@D@2@@std@@V?$shared_ptr@VRawImageData@@@2@U?$less@V?$basic_string@DU?$char_traits@D@std@@V?$allocator@D@2@@std@@@2@V?$allocator@U?$pair@$$CBV?$basic_string@DU?$char_traits@D@std@@V?$allocator@D@2@@std@@V?$shared_ptr@VRawImageData@@@2@@std@@@2@$0A@@std@@@std@@IAEXXZ 0040000d f   Attack.obj
 0001:fffff00d       __ehhandler$?_Alloc_sentinel_and_proxy@?$_Tree@V?$_Tmap_traits@V?$basic_string@DU?$char_traits@D@std@@V?$allocator@D@2@@std@@V?$weak_ptr@VRawImageData@@@2@U?$less@V?$basic_string@DU?$char_traits@D@std@@V?$allocator@D@2@@std@@@2@V?$allocator@U?$pair@$$CBV?$basic_string@DU?$char_traits@D@std@@V?$allocator@D@2@@std@@V?$weak_ptr@VRawImageData@@@2@@std@@@2@$0A@@std@@@std@@IAEXXZ 0040000d f   Attack.obj
 0001:fffff00d       __ehhandler$?getImagebyURL@ImageManager@@QAE?AVSimpleImage@@V?$basic_string@DU?$char_traits@D@std@@V?$allocator@D@2@@std@@_N1@Z 0040000d f   Attack.obj
 0001:fffff00d       __ehhandler$?loadImage@RawImageData@@QAE_NV?$basic_string@DU?$char_traits@D@std@@V?$allocator@D@2@@std@@HHHHH_N@Z 0040000d f   Attack.obj
 0001:fffff00d       __ehhandler$??$_Uninitialized_value_construct_n@V?$allocator@PAVDisplayableObject@@@std@@@std@@YAPAPAVDisplayableObject@@PAPAV1@IAAV?$allocator@PAVDisplayableObject@@@0@@Z 0040000d f   BaseEngine.obj
 0001:fffff00d       __ehhandler$??$?6U?$char_traits@D@std@@@std@@YAAAV?$basic_ostream@DU?$char_traits@D@std@@@0@AAV10@PBD@Z 0040000d f   BouncingBall.obj
 0001:fffff00d       __ehhandler$??0sentry@?$basic_ostream@DU?$char_traits@D@std@@@std@@QAE@AAV12@@Z 0040000d f   BouncingBall.obj
 0001:fffff00d       __ehhandler$??$?6U?$char_traits@D@std@@@std@@YAAAV?$basic_ostream@DU?$char_traits@D@std@@@0@AAV10@PBD@Z 0040000d f   BouncingBallMain.obj
 0001:fffff00d       __ehhandler$??$_Uninitialized_move@PAPAVDisplayableObject@@V?$allocator@PAVDisplayableObject@@@std@@@std@@YAPAPAVDisplayableObject@@QAPAV1@0PAPAV1@AAV?$allocator@PAVDisplayableObject@@@0@@Z 0040000d f   BouncingBallMain.obj
 0001:fffff00d       __ehhandler$??$_Uninitialized_value_construct_n@V?$allocator@PAVDisplayableObject@@@std@@@std@@YAPAPAVDisplayableObject@@PAPAV1@IAAV?$allocator@PAVDisplayableObject@@@0@@Z 0040000d f   BouncingBallMain.obj
 0001:fffff00d       __ehhandler$??0sentry@?$basic_ostream@DU?$char_traits@D@std@@@std@@QAE@AAV12@@Z 0040000d f   BouncingBallMain.obj
 0001:fffff00d       __ehhandler$??$?6U?$char_traits@D@std@@@std@@YAAAV?$basic_ostream@DU?$char_traits@D@std@@@0@AAV10@PBD@Z 0040000d f   DisplayableObject.obj
 0001:fffff00d       __ehhandler$??0sentry@?$basic_ostream@DU?$char_traits@D@std@@@std@@QAE@AAV12@@Z 0040000d f   DisplayableObject.obj
 0001:fffff00d       __ehhandler$??$?0U?$pair@V?$basic_string@DU?$char_traits@D@std@@V?$allocator@D@2@@std@@V?$shared_ptr@VRawImageData@@@2@@std@@@?$_Tree_temp_node@V?$allocator@U?$_Tree_node@U?$pair@$$CBV?$basic_string@DU?$char_traits@D@std@@V?$allocator@D@2@@std@@V?$shared_ptr@VRawImageData@@@2@@std@@PAX@std@@@std@@@std@@QAE@AAV?$allocator@U?$_Tree_node@U?$pair@$$CBV?$basic_string@DU?$char_traits@D@std@@V?$allocator@D@2@@std@@V?$shared_ptr@VRawImageData@@@2@@std@@PAX@std@@@1@PAU?$_Tree_node@U?$pair@$$CBV?$basic_string@DU?$char_traits@D@std@@V?$allocator@D@2@@std@@V?$shared_ptr@VRawImageData@@@2@@std@@PAX@1@$$QAU?$pair@V?$basic_string@DU?$char_traits@D@std@@V?$allocator@D@2@@std@@V?$shared_ptr@VRawImageData@@@2@@1@@Z 0040000d f   DraggingDemo.obj
 0001:fffff00d       __ehhandler$??$?0U?$pair@V?$basic_string@DU?$char_traits@D@std@@V?$allocator@D@2@@std@@V?$weak_ptr@VRawImageData@@@2@@std@@@?$_Tree_temp_node@V?$allocator@U?$_Tree_node@U?$pair@$$CBV?$basic_string@DU?$char_traits@D@std@@V?$allocator@D@2@@std@@V?$weak_ptr@VRawImageData@@@2@@std@@PAX@std@@@std@@@std@@QAE@AAV?$allocator@U?$_Tree_node@U?$pair@$$CBV?$basic_string@DU?$char_traits@D@std@@V?$allocator@D@2@@std@@V?$weak_ptr@VRawImageData@@@2@@std@@PAX@std@@@1@PAU?$_Tree_node@U?$pair@$$CBV?$basic_string@DU?$char_traits@D@std@@V?$allocator@D@2@@std@@V?$weak_ptr@VRawImageData@@@2@@std@@PAX@1@$$QAU?$pair@V?$basic_string@DU?$char_traits@D@std@@V?$allocator@D@2@@std@@V?$weak_ptr@VRawImageData@@@2@@1@@Z 0040000d f   DraggingDemo.obj
 0001:fffff00d       __ehhandler$??$?6U?$char_traits@D@std@@@std@@YAAAV?$basic_ostream@DU?$char_traits@D@std@@@0@AAV10@PBD@Z 0040000d f   DraggingDemo.obj
 0001:fffff00d       __ehhandler$??$_Construct@$00PBD@?$basic_string@DU?$char_traits@D@std@@V?$allocator@D@2@@std@@AAEXQBDI@Z 0040000d f   DraggingDemo.obj
 0001:fffff00d       __ehhandler$??$_Construct@$01PBD@?$basic_string@DU?$char_traits@D@std@@V?$allocator@D@2@@std@@AAEXQBDI@Z 0040000d f   DraggingDemo.obj
 0001:fffff00d       __ehhandler$??$_Insert_string@DU?$char_traits@D@std@@I@std@@YAAAV?$basic_ostream@DU?$char_traits@D@std@@@0@AAV10@QBDI@Z 0040000d f   DraggingDemo.obj
 0001:fffff00d       __ehhandler$??0?$_Tree_temp_node_alloc@V?$allocator@U?$_Tree_node@U?$pair@$$CBV?$basic_string@DU?$char_traits@D@std@@V?$allocator@D@2@@std@@V?$shared_ptr@VRawImageData@@@2@@std@@PAX@std@@@std@@@std@@QAE@AAV?$allocator@U?$_Tree_node@U?$pair@$$CBV?$basic_string@DU?$char_traits@D@std@@V?$allocator@D@2@@std@@V?$shared_ptr@VRawImageData@@@2@@std@@PAX@std@@@1@@Z 0040000d f   DraggingDemo.obj
 0001:fffff00d       __ehhandler$??0?$_Tree_temp_node_alloc@V?$allocator@U?$_Tree_node@U?$pair@$$CBV?$basic_string@DU?$char_traits@D@std@@V?$allocator@D@2@@std@@V?$weak_ptr@VRawImageData@@@2@@std@@PAX@std@@@std@@@std@@QAE@AAV?$allocator@U?$_Tree_node@U?$pair@$$CBV?$basic_string@DU?$char_traits@D@std@@V?$allocator@D@2@@std@@V?$weak_ptr@VRawImageData@@@2@@std@@PAX@std@@@1@@Z 0040000d f   DraggingDemo.obj
 0001:fffff00d       __ehhandler$??0?$basic_string@DU?$char_traits@D@std@@V?$allocator@D@2@@std@@QAE@ABV01@@Z 0040000d f   DraggingDemo.obj
 0001:fffff00d       __ehhandler$??0?$basic_string@DU?$char_traits@D@std@@V?$allocator@D@2@@std@@QAE@QBD@Z 0040000d f   DraggingDemo.obj
 0001:fffff00d       __ehhandler$??0ImageManager@@QAE@XZ 0040000d f   DraggingDemo.obj
 0001:fffff00d       __ehhandler$??0RawImageData@@QAE@V?$basic_string@DU?$char_traits@D@std@@V?$allocator@D@2@@std@@@Z 0040000d f   DraggingDemo.obj
 0001:fffff00d       __ehhandler$??0sentry@?$basic_ostream@DU?$char_traits@D@std@@@std@@QAE@AAV12@@Z 0040000d f   DraggingDemo.obj
 0001:fffff00d       __ehhandler$?_Alloc_sentinel_and_proxy@?$_Tree@V?$_Tmap_traits@V?$basic_string@DU?$char_traits@D@std@@V?$allocator@D@2@@std@@V?$shared_ptr@VRawImageData@@@2@U?$less@V?$basic_string@DU?$char_traits@D@std@@V?$allocator@D@2@@std@@@2@V?$allocator@U?$pair@$$CBV?$basic_string@DU?$char_traits@D@std@@V?$allocator@D@2@@std@@V?$shared_ptr@VRawImageData@@@2@@std@@@2@$0A@@std@@@std@@IAEXXZ 0040000d f   DraggingDemo.obj
 0001:fffff00d       __ehhandler$?_Alloc_sentinel_and_proxy@?$_Tree@V?$_Tmap_traits@V?$basic_string@DU?$char_traits@D@std@@V?$allocator@D@2@@std@@V?$weak_ptr@VRawImageData@@@2@U?$less@V?$basic_string@DU?$char_traits@D@std@@V?$allocator@D@2@@std@@@2@V?$allocator@U?$pair@$$CBV?$basic_string@DU?$char_traits@D@std@@V?$allocator@D@2@@std@@V?$weak_ptr@VRawImageData@@@2@@std@@@2@$0A@@std@@@std@@IAEXXZ 0040000d f   DraggingDemo.obj
 0001:fffff00d       __ehhandler$?getImagebyURL@ImageManager@@QAE?AVSimpleImage@@V?$basic_string@DU?$char_traits@D@std@@V?$allocator@D@2@@std@@_N1@Z 0040000d f   DraggingDemo.obj
 0001:fffff00d       __ehhandler$?loadImage@RawImageData@@QAE_NV?$basic_string@DU?$char_traits@D@std@@V?$allocator@D@2@@std@@HHHHH_N@Z 0040000d f   DraggingDemo.obj
 0001:fffff00d       __ehhandler$??$?6U?$char_traits@D@std@@@std@@YAAAV?$basic_ostream@DU?$char_traits@D@std@@@0@AAV10@PBD@Z 0040000d f   DrawingSurface.obj
 0001:fffff00d       __ehhandler$??0sentry@?$basic_ostream@DU?$char_traits@D@std@@@std@@QAE@AAV12@@Z 0040000d f   DrawingSurface.obj
 0001:fffff00d       __ehhandler$??$?0U?$pair@V?$basic_string@DU?$char_traits@D@std@@V?$allocator@D@2@@std@@V?$shared_ptr@VRawImageData@@@2@@std@@@?$_Tree_temp_node@V?$allocator@U?$_Tree_node@U?$pair@$$CBV?$basic_string@DU?$char_traits@D@std@@V?$allocator@D@2@@std@@V?$shared_ptr@VRawImageData@@@2@@std@@PAX@std@@@std@@@std@@QAE@AAV?$allocator@U?$_Tree_node@U?$pair@$$CBV?$basic_string@DU?$char_traits@D@std@@V?$allocator@D@2@@std@@V?$shared_ptr@VRawImageData@@@2@@std@@PAX@std@@@1@PAU?$_Tree_node@U?$pair@$$CBV?$basic_string@DU?$char_traits@D@std@@V?$allocator@D@2@@std@@V?$shared_ptr@VRawImageData@@@2@@std@@PAX@1@$$QAU?$pair@V?$basic_string@DU?$char_traits@D@std@@V?$allocator@D@2@@std@@V?$shared_ptr@VRawImageData@@@2@@1@@Z 0040000d f   Enemy.obj
 0001:fffff00d       __ehhandler$??$?0U?$pair@V?$basic_string@DU?$char_traits@D@std@@V?$allocator@D@2@@std@@V?$weak_ptr@VRawImageData@@@2@@std@@@?$_Tree_temp_node@V?$allocator@U?$_Tree_node@U?$pair@$$CBV?$basic_string@DU?$char_traits@D@std@@V?$allocator@D@2@@std@@V?$weak_ptr@VRawImageData@@@2@@std@@PAX@std@@@std@@@std@@QAE@AAV?$allocator@U?$_Tree_node@U?$pair@$$CBV?$basic_string@DU?$char_traits@D@std@@V?$allocator@D@2@@std@@V?$weak_ptr@VRawImageData@@@2@@std@@PAX@std@@@1@PAU?$_Tree_node@U?$pair@$$CBV?$basic_string@DU?$char_traits@D@std@@V?$allocator@D@2@@std@@V?$weak_ptr@VRawImageData@@@2@@std@@PAX@1@$$QAU?$pair@V?$basic_string@DU?$char_traits@D@std@@V?$allocator@D@2@@std@@V?$weak_ptr@VRawImageData@@@2@@1@@Z 0040000d f   Enemy.obj
 0001:fffff00d       __ehhandler$??$?6U?$char_traits@D@std@@@std@@YAAAV?$basic_ostream@DU?$char_traits@D@std@@@0@AAV10@PBD@Z 0040000d f   Enemy.obj
 0001:fffff00d       __ehhandler$??$_Construct@$00PBD@?$basic_string@DU?$char_traits@D@std@@V?$allocator@D@2@@std@@AAEXQBDI@Z 0040000d f   Enemy.obj
 0001:fffff00d       __ehhandler$??$_Construct@$01PBD@?$basic_string@DU?$char_traits@D@std@@V?$allocator@D@2@@std@@AAEXQBDI@Z 0040000d f   Enemy.obj
 0001:fffff00d       __ehhandler$??$_Insert_string@DU?$char_traits@D@std@@I@std@@YAAAV?$basic_ostream@DU?$char_traits@D@std@@@0@AAV10@QBDI@Z 0040000d f   Enemy.obj
 0001:fffff00d       __ehhandler$??$_Uninitialized_move@PAPAVDisplayableObject@@V?$allocator@PAVDisplayableObject@@@std@@@std@@YAPAPAVDisplayableObject@@QAPAV1@0PAPAV1@AAV?$allocator@PAVDisplayableObject@@@0@@Z 0040000d f   Enemy.obj
 0001:fffff00d       __ehhandler$??0?$_Tree_temp_node_alloc@V?$allocator@U?$_Tree_node@U?$pair@$$CBV?$basic_string@DU?$char_traits@D@std@@V?$allocator@D@2@@std@@V?$shared_ptr@VRawImageData@@@2@@std@@PAX@std@@@std@@@std@@QAE@AAV?$allocator@U?$_Tree_node@U?$pair@$$CBV?$basic_string@DU?$char_traits@D@std@@V?$allocator@D@2@@std@@V?$shared_ptr@VRawImageData@@@2@@std@@PAX@std@@@1@@Z 0040000d f   Enemy.obj
 0001:fffff00d       __ehhandler$??0?$_Tree_temp_node_alloc@V?$allocator@U?$_Tree_node@U?$pair@$$CBV?$basic_string@DU?$char_traits@D@std@@V?$allocator@D@2@@std@@V?$weak_ptr@VRawImageData@@@2@@std@@PAX@std@@@std@@@std@@QAE@AAV?$allocator@U?$_Tree_node@U?$pair@$$CBV?$basic_string@DU?$char_traits@D@std@@V?$allocator@D@2@@std@@V?$weak_ptr@VRawImageData@@@2@@std@@PAX@std@@@1@@Z 0040000d f   Enemy.obj
 0001:fffff00d       __ehhandler$??0?$basic_string@DU?$char_traits@D@std@@V?$allocator@D@2@@std@@QAE@ABV01@@Z 0040000d f   Enemy.obj
 0001:fffff00d       __ehhandler$??0?$basic_string@DU?$char_traits@D@std@@V?$allocator@D@2@@std@@QAE@QBD@Z 0040000d f   Enemy.obj
 0001:fffff00d       __ehhandler$??0ImageManager@@QAE@XZ 0040000d f   Enemy.obj
 0001:fffff00d       __ehhandler$??0RawImageData@@QAE@V?$basic_string@DU?$char_traits@D@std@@V?$allocator@D@2@@std@@@Z 0040000d f   Enemy.obj
 0001:fffff00d       __ehhandler$??0sentry@?$basic_ostream@DU?$char_traits@D@std@@@std@@QAE@AAV12@@Z 0040000d f   Enemy.obj
 0001:fffff00d       __ehhandler$?_Alloc_sentinel_and_proxy@?$_Tree@V?$_Tmap_traits@V?$basic_string@DU?$char_traits@D@std@@V?$allocator@D@2@@std@@V?$shared_ptr@VRawImageData@@@2@U?$less@V?$basic_string@DU?$char_traits@D@std@@V?$allocator@D@2@@std@@@2@V?$allocator@U?$pair@$$CBV?$basic_string@DU?$char_traits@D@std@@V?$allocator@D@2@@std@@V?$shared_ptr@VRawImageData@@@2@@std@@@2@$0A@@std@@@std@@IAEXXZ 0040000d f   Enemy.obj
 0001:fffff00d       __ehhandler$?_Alloc_sentinel_and_proxy@?$_Tree@V?$_Tmap_traits@V?$basic_string@DU?$char_traits@D@std@@V?$allocator@D@2@@std@@V?$weak_ptr@VRawImageData@@@2@U?$less@V?$basic_string@DU?$char_traits@D@std@@V?$allocator@D@2@@std@@@2@V?$allocator@U?$pair@$$CBV?$basic_string@DU?$char_traits@D@std@@V?$allocator@D@2@@std@@V?$weak_ptr@VRawImageData@@@2@@std@@@2@$0A@@std@@@std@@IAEXXZ 0040000d f   Enemy.obj
 0001:fffff00d       __ehhandler$?getImagebyURL@ImageManager@@QAE?AVSimpleImage@@V?$basic_string@DU?$char_traits@D@std@@V?$allocator@D@2@@std@@_N1@Z 0040000d f   Enemy.obj
 0001:fffff00d       __ehhandler$?loadImage@RawImageData@@QAE_NV?$basic_string@DU?$char_traits@D@std@@V?$allocator@D@2@@std@@HHHHH_N@Z 0040000d f   Enemy.obj
 0001:fffff00d       __ehhandler$??$?6U?$char_traits@D@std@@@std@@YAAAV?$basic_ostream@DU?$char_traits@D@std@@@0@AAV10@PBD@Z 0040000d f   FlashingDemo.obj
 0001:fffff00d       __ehhandler$??0sentry@?$basic_ostream@DU?$char_traits@D@std@@@std@@QAE@AAV12@@Z 0040000d f   FlashingDemo.obj
 0001:fffff00d       __ehhandler$??$?0U?$pair@V?$basic_string@DU?$char_traits@D@std@@V?$allocator@D@2@@std@@V?$shared_ptr@VRawImageData@@@2@@std@@@?$_Tree_temp_node@V?$allocator@U?$_Tree_node@U?$pair@$$CBV?$basic_string@DU?$char_traits@D@std@@V?$allocator@D@2@@std@@V?$shared_ptr@VRawImageData@@@2@@std@@PAX@std@@@std@@@std@@QAE@AAV?$allocator@U?$_Tree_node@U?$pair@$$CBV?$basic_string@DU?$char_traits@D@std@@V?$allocator@D@2@@std@@V?$shared_ptr@VRawImageData@@@2@@std@@PAX@std@@@1@PAU?$_Tree_node@U?$pair@$$CBV?$basic_string@DU?$char_traits@D@std@@V?$allocator@D@2@@std@@V?$shared_ptr@VRawImageData@@@2@@std@@PAX@1@$$QAU?$pair@V?$basic_string@DU?$char_traits@D@std@@V?$allocator@D@2@@std@@V?$shared_ptr@VRawImageData@@@2@@1@@Z 0040000d f   ImageMappingDemo.obj
 0001:fffff00d       __ehhandler$??$?0U?$pair@V?$basic_string@DU?$char_traits@D@std@@V?$allocator@D@2@@std@@V?$weak_ptr@VRawImageData@@@2@@std@@@?$_Tree_temp_node@V?$allocator@U?$_Tree_node@U?$pair@$$CBV?$basic_string@DU?$char_traits@D@std@@V?$allocator@D@2@@std@@V?$weak_ptr@VRawImageData@@@2@@std@@PAX@std@@@std@@@std@@QAE@AAV?$allocator@U?$_Tree_node@U?$pair@$$CBV?$basic_string@DU?$char_traits@D@std@@V?$allocator@D@2@@std@@V?$weak_ptr@VRawImageData@@@2@@std@@PAX@std@@@1@PAU?$_Tree_node@U?$pair@$$CBV?$basic_string@DU?$char_traits@D@std@@V?$allocator@D@2@@std@@V?$weak_ptr@VRawImageData@@@2@@std@@PAX@1@$$QAU?$pair@V?$basic_string@DU?$char_traits@D@std@@V?$allocator@D@2@@std@@V?$weak_ptr@VRawImageData@@@2@@1@@Z 0040000d f   ImageMappingDemo.obj
 0001:fffff00d       __ehhandler$??$?6U?$char_traits@D@std@@@std@@YAAAV?$basic_ostream@DU?$char_traits@D@std@@@0@AAV10@PBD@Z 0040000d f   ImageMappingDemo.obj
 0001:fffff00d       __ehhandler$??$_Construct@$00PBD@?$basic_string@DU?$char_traits@D@std@@V?$allocator@D@2@@std@@AAEXQBDI@Z 0040000d f   ImageMappingDemo.obj
 0001:fffff00d       __ehhandler$??$_Construct@$01PBD@?$basic_string@DU?$char_traits@D@std@@V?$allocator@D@2@@std@@AAEXQBDI@Z 0040000d f   ImageMappingDemo.obj
 0001:fffff00d       __ehhandler$??$_Insert_string@DU?$char_traits@D@std@@I@std@@YAAAV?$basic_ostream@DU?$char_traits@D@std@@@0@AAV10@QBDI@Z 0040000d f   ImageMappingDemo.obj
 0001:fffff00d       __ehhandler$??$_Uninitialized_move@PAPAVDisplayableObject@@V?$allocator@PAVDisplayableObject@@@std@@@std@@YAPAPAVDisplayableObject@@QAPAV1@0PAPAV1@AAV?$allocator@PAVDisplayableObject@@@0@@Z 0040000d f   ImageMappingDemo.obj
 0001:fffff00d       __ehhandler$??$_Uninitialized_value_construct_n@V?$allocator@PAVDisplayableObject@@@std@@@std@@YAPAPAVDisplayableObject@@PAPAV1@IAAV?$allocator@PAVDisplayableObject@@@0@@Z 0040000d f   ImageMappingDemo.obj
 0001:fffff00d       __ehhandler$??0?$_Tree_temp_node_alloc@V?$allocator@U?$_Tree_node@U?$pair@$$CBV?$basic_string@DU?$char_traits@D@std@@V?$allocator@D@2@@std@@V?$shared_ptr@VRawImageData@@@2@@std@@PAX@std@@@std@@@std@@QAE@AAV?$allocator@U?$_Tree_node@U?$pair@$$CBV?$basic_string@DU?$char_traits@D@std@@V?$allocator@D@2@@std@@V?$shared_ptr@VRawImageData@@@2@@std@@PAX@std@@@1@@Z 0040000d f   ImageMappingDemo.obj
 0001:fffff00d       __ehhandler$??0?$_Tree_temp_node_alloc@V?$allocator@U?$_Tree_node@U?$pair@$$CBV?$basic_string@DU?$char_traits@D@std@@V?$allocator@D@2@@std@@V?$weak_ptr@VRawImageData@@@2@@std@@PAX@std@@@std@@@std@@QAE@AAV?$allocator@U?$_Tree_node@U?$pair@$$CBV?$basic_string@DU?$char_traits@D@std@@V?$allocator@D@2@@std@@V?$weak_ptr@VRawImageData@@@2@@std@@PAX@std@@@1@@Z 0040000d f   ImageMappingDemo.obj
 0001:fffff00d       __ehhandler$??0?$basic_string@DU?$char_traits@D@std@@V?$allocator@D@2@@std@@QAE@ABV01@@Z 0040000d f   ImageMappingDemo.obj
 0001:fffff00d       __ehhandler$??0?$basic_string@DU?$char_traits@D@std@@V?$allocator@D@2@@std@@QAE@QBD@Z 0040000d f   ImageMappingDemo.obj
 0001:fffff00d       __ehhandler$??0ImageManager@@QAE@XZ 0040000d f   ImageMappingDemo.obj
 0001:fffff00d       __ehhandler$??0RawImageData@@QAE@V?$basic_string@DU?$char_traits@D@std@@V?$allocator@D@2@@std@@@Z 0040000d f   ImageMappingDemo.obj
 0001:fffff00d       __ehhandler$??0sentry@?$basic_ostream@DU?$char_traits@D@std@@@std@@QAE@AAV12@@Z 0040000d f   ImageMappingDemo.obj
 0001:fffff00d       __ehhandler$?_Alloc_sentinel_and_proxy@?$_Tree@V?$_Tmap_traits@V?$basic_string@DU?$char_traits@D@std@@V?$allocator@D@2@@std@@V?$shared_ptr@VRawImageData@@@2@U?$less@V?$basic_string@DU?$char_traits@D@std@@V?$allocator@D@2@@std@@@2@V?$allocator@U?$pair@$$CBV?$basic_string@DU?$char_traits@D@std@@V?$allocator@D@2@@std@@V?$shared_ptr@VRawImageData@@@2@@std@@@2@$0A@@std@@@std@@IAEXXZ 0040000d f   ImageMappingDemo.obj
 0001:fffff00d       __ehhandler$?_Alloc_sentinel_and_proxy@?$_Tree@V?$_Tmap_traits@V?$basic_string@DU?$char_traits@D@std@@V?$allocator@D@2@@std@@V?$weak_ptr@VRawImageData@@@2@U?$less@V?$basic_string@DU?$char_traits@D@std@@V?$allocator@D@2@@std@@@2@V?$allocator@U?$pair@$$CBV?$basic_string@DU?$char_traits@D@std@@V?$allocator@D@2@@std@@V?$weak_ptr@VRawImageData@@@2@@std@@@2@$0A@@std@@@std@@IAEXXZ 0040000d f   ImageMappingDemo.obj
 0001:fffff00d       __ehhandler$?getImagebyURL@ImageManager@@QAE?AVSimpleImage@@V?$basic_string@DU?$char_traits@D@std@@V?$allocator@D@2@@std@@_N1@Z 0040000d f   ImageMappingDemo.obj
 0001:fffff00d       __ehhandler$?loadImage@RawImageData@@QAE_NV?$basic_string@DU?$char_traits@D@std@@V?$allocator@D@2@@std@@HHHHH_N@Z 0040000d f   ImageMappingDemo.obj
 0001:fffff00d       __ehhandler$??$?0U?$pair@V?$basic_string@DU?$char_traits@D@std@@V?$allocator@D@2@@std@@V?$shared_ptr@VRawImageData@@@2@@std@@@?$_Tree_temp_node@V?$allocator@U?$_Tree_node@U?$pair@$$CBV?$basic_string@DU?$char_traits@D@std@@V?$allocator@D@2@@std@@V?$shared_ptr@VRawImageData@@@2@@std@@PAX@std@@@std@@@std@@QAE@AAV?$allocator@U?$_Tree_node@U?$pair@$$CBV?$basic_string@DU?$char_traits@D@std@@V?$allocator@D@2@@std@@V?$shared_ptr@VRawImageData@@@2@@std@@PAX@std@@@1@PAU?$_Tree_node@U?$pair@$$CBV?$basic_string@DU?$char_traits@D@std@@V?$allocator@D@2@@std@@V?$shared_ptr@VRawImageData@@@2@@std@@PAX@1@$$QAU?$pair@V?$basic_string@DU?$char_traits@D@std@@V?$allocator@D@2@@std@@V?$shared_ptr@VRawImageData@@@2@@1@@Z 0040000d f   LoseState.obj
 0001:fffff00d       __ehhandler$??$?0U?$pair@V?$basic_string@DU?$char_traits@D@std@@V?$allocator@D@2@@std@@V?$weak_ptr@VRawImageData@@@2@@std@@@?$_Tree_temp_node@V?$allocator@U?$_Tree_node@U?$pair@$$CBV?$basic_string@DU?$char_traits@D@std@@V?$allocator@D@2@@std@@V?$weak_ptr@VRawImageData@@@2@@std@@PAX@std@@@std@@@std@@QAE@AAV?$allocator@U?$_Tree_node@U?$pair@$$CBV?$basic_string@DU?$char_traits@D@std@@V?$allocator@D@2@@std@@V?$weak_ptr@VRawImageData@@@2@@std@@PAX@std@@@1@PAU?$_Tree_node@U?$pair@$$CBV?$basic_string@DU?$char_traits@D@std@@V?$allocator@D@2@@std@@V?$weak_ptr@VRawImageData@@@2@@std@@PAX@1@$$QAU?$pair@V?$basic_string@DU?$char_traits@D@std@@V?$allocator@D@2@@std@@V?$weak_ptr@VRawImageData@@@2@@1@@Z 0040000d f   LoseState.obj
 0001:fffff00d       __ehhandler$??$?6U?$char_traits@D@std@@@std@@YAAAV?$basic_ostream@DU?$char_traits@D@std@@@0@AAV10@PBD@Z 0040000d f   LoseState.obj
 0001:fffff00d       __ehhandler$??$_Construct@$00PBD@?$basic_string@DU?$char_traits@D@std@@V?$allocator@D@2@@std@@AAEXQBDI@Z 0040000d f   LoseState.obj
 0001:fffff00d       __ehhandler$??$_Construct@$01PBD@?$basic_string@DU?$char_traits@D@std@@V?$allocator@D@2@@std@@AAEXQBDI@Z 0040000d f   LoseState.obj
 0001:fffff00d       __ehhandler$??$_Insert_string@DU?$char_traits@D@std@@I@std@@YAAAV?$basic_ostream@DU?$char_traits@D@std@@@0@AAV10@QBDI@Z 0040000d f   LoseState.obj
 0001:fffff00d       __ehhandler$??0?$_Tree_temp_node_alloc@V?$allocator@U?$_Tree_node@U?$pair@$$CBV?$basic_string@DU?$char_traits@D@std@@V?$allocator@D@2@@std@@V?$shared_ptr@VRawImageData@@@2@@std@@PAX@std@@@std@@@std@@QAE@AAV?$allocator@U?$_Tree_node@U?$pair@$$CBV?$basic_string@DU?$char_traits@D@std@@V?$allocator@D@2@@std@@V?$shared_ptr@VRawImageData@@@2@@std@@PAX@std@@@1@@Z 0040000d f   LoseState.obj
 0001:fffff00d       __ehhandler$??0?$_Tree_temp_node_alloc@V?$allocator@U?$_Tree_node@U?$pair@$$CBV?$basic_string@DU?$char_traits@D@std@@V?$allocator@D@2@@std@@V?$weak_ptr@VRawImageData@@@2@@std@@PAX@std@@@std@@@std@@QAE@AAV?$allocator@U?$_Tree_node@U?$pair@$$CBV?$basic_string@DU?$char_traits@D@std@@V?$allocator@D@2@@std@@V?$weak_ptr@VRawImageData@@@2@@std@@PAX@std@@@1@@Z 0040000d f   LoseState.obj
 0001:fffff00d       __ehhandler$??0?$basic_string@DU?$char_traits@D@std@@V?$allocator@D@2@@std@@QAE@ABV01@@Z 0040000d f   LoseState.obj
 0001:fffff00d       __ehhandler$??0?$basic_string@DU?$char_traits@D@std@@V?$allocator@D@2@@std@@QAE@QBD@Z 0040000d f   LoseState.obj
 0001:fffff00d       __ehhandler$??0ImageManager@@QAE@XZ 0040000d f   LoseState.obj
 0001:fffff00d       __ehhandler$??0RawImageData@@QAE@V?$basic_string@DU?$char_traits@D@std@@V?$allocator@D@2@@std@@@Z 0040000d f   LoseState.obj
 0001:fffff00d       __ehhandler$??0sentry@?$basic_ostream@DU?$char_traits@D@std@@@std@@QAE@AAV12@@Z 0040000d f   LoseState.obj
 0001:fffff00d       __ehhandler$?_Alloc_sentinel_and_proxy@?$_Tree@V?$_Tmap_traits@V?$basic_string@DU?$char_traits@D@std@@V?$allocator@D@2@@std@@V?$shared_ptr@VRawImageData@@@2@U?$less@V?$basic_string@DU?$char_traits@D@std@@V?$allocator@D@2@@std@@@2@V?$allocator@U?$pair@$$CBV?$basic_string@DU?$char_traits@D@std@@V?$allocator@D@2@@std@@V?$shared_ptr@VRawImageData@@@2@@std@@@2@$0A@@std@@@std@@IAEXXZ 0040000d f   LoseState.obj
 0001:fffff00d       __ehhandler$?_Alloc_sentinel_and_proxy@?$_Tree@V?$_Tmap_traits@V?$basic_string@DU?$char_traits@D@std@@V?$allocator@D@2@@std@@V?$weak_ptr@VRawImageData@@@2@U?$less@V?$basic_string@DU?$char_traits@D@std@@V?$allocator@D@2@@std@@@2@V?$allocator@U?$pair@$$CBV?$basic_string@DU?$char_traits@D@std@@V?$allocator@D@2@@std@@V?$weak_ptr@VRawImageData@@@2@@std@@@2@$0A@@std@@@std@@IAEXXZ 0040000d f   LoseState.obj
 0001:fffff00d       __ehhandler$?getImagebyURL@ImageManager@@QAE?AVSimpleImage@@V?$basic_string@DU?$char_traits@D@std@@V?$allocator@D@2@@std@@_N1@Z 0040000d f   LoseState.obj
 0001:fffff00d       __ehhandler$?loadImage@RawImageData@@QAE_NV?$basic_string@DU?$char_traits@D@std@@V?$allocator@D@2@@std@@HHHHH_N@Z 0040000d f   LoseState.obj
 0001:fffff00d       __ehhandler$??$_Uninitialized_move@PAPAVDisplayableObject@@V?$allocator@PAVDisplayableObject@@@std@@@std@@YAPAPAVDisplayableObject@@QAPAV1@0PAPAV1@AAV?$allocator@PAVDisplayableObject@@@0@@Z 0040000d f   MazeDemoMain.obj
 0001:fffff00d       __ehhandler$??$_Uninitialized_value_construct_n@V?$allocator@PAVDisplayableObject@@@std@@@std@@YAPAPAVDisplayableObject@@PAPAV1@IAAV?$allocator@PAVDisplayableObject@@@0@@Z 0040000d f   MazeDemoMain.obj
 0001:fffff00d       __ehhandler$?setAllObjectsVisible@DisplayableObjectContainer@@QBEX_N@Z 0040000d f   MazeDemoMain.obj
 0001:fffff00d       __ehhandler$??$?0U?$pair@V?$basic_string@DU?$char_traits@D@std@@V?$allocator@D@2@@std@@V?$shared_ptr@VRawImageData@@@2@@std@@@?$_Tree_temp_node@V?$allocator@U?$_Tree_node@U?$pair@$$CBV?$basic_string@DU?$char_traits@D@std@@V?$allocator@D@2@@std@@V?$shared_ptr@VRawImageData@@@2@@std@@PAX@std@@@std@@@std@@QAE@AAV?$allocator@U?$_Tree_node@U?$pair@$$CBV?$basic_string@DU?$char_traits@D@std@@V?$allocator@D@2@@std@@V?$shared_ptr@VRawImageData@@@2@@std@@PAX@std@@@1@PAU?$_Tree_node@U?$pair@$$CBV?$basic_string@DU?$char_traits@D@std@@V?$allocator@D@2@@std@@V?$shared_ptr@VRawImageData@@@2@@std@@PAX@1@$$QAU?$pair@V?$basic_string@DU?$char_traits@D@std@@V?$allocator@D@2@@std@@V?$shared_ptr@VRawImageData@@@2@@1@@Z 0040000d f   NumberTiles.obj
 0001:fffff00d       __ehhandler$??$?0U?$pair@V?$basic_string@DU?$char_traits@D@std@@V?$allocator@D@2@@std@@V?$weak_ptr@VRawImageData@@@2@@std@@@?$_Tree_temp_node@V?$allocator@U?$_Tree_node@U?$pair@$$CBV?$basic_string@DU?$char_traits@D@std@@V?$allocator@D@2@@std@@V?$weak_ptr@VRawImageData@@@2@@std@@PAX@std@@@std@@@std@@QAE@AAV?$allocator@U?$_Tree_node@U?$pair@$$CBV?$basic_string@DU?$char_traits@D@std@@V?$allocator@D@2@@std@@V?$weak_ptr@VRawImageData@@@2@@std@@PAX@std@@@1@PAU?$_Tree_node@U?$pair@$$CBV?$basic_string@DU?$char_traits@D@std@@V?$allocator@D@2@@std@@V?$weak_ptr@VRawImageData@@@2@@std@@PAX@1@$$QAU?$pair@V?$basic_string@DU?$char_traits@D@std@@V?$allocator@D@2@@std@@V?$weak_ptr@VRawImageData@@@2@@1@@Z 0040000d f   NumberTiles.obj
 0001:fffff00d       __ehhandler$??$?6U?$char_traits@D@std@@@std@@YAAAV?$basic_ostream@DU?$char_traits@D@std@@@0@AAV10@PBD@Z 0040000d f   NumberTiles.obj
 0001:fffff00d       __ehhandler$??$_Construct@$00PBD@?$basic_string@DU?$char_traits@D@std@@V?$allocator@D@2@@std@@AAEXQBDI@Z 0040000d f   NumberTiles.obj
 0001:fffff00d       __ehhandler$??$_Construct@$01PBD@?$basic_string@DU?$char_traits@D@std@@V?$allocator@D@2@@std@@AAEXQBDI@Z 0040000d f   NumberTiles.obj
 0001:fffff00d       __ehhandler$??$_Insert_string@DU?$char_traits@D@std@@I@std@@YAAAV?$basic_ostream@DU?$char_traits@D@std@@@0@AAV10@QBDI@Z 0040000d f   NumberTiles.obj
 0001:fffff00d       __ehhandler$??0?$_Tree_temp_node_alloc@V?$allocator@U?$_Tree_node@U?$pair@$$CBV?$basic_string@DU?$char_traits@D@std@@V?$allocator@D@2@@std@@V?$shared_ptr@VRawImageData@@@2@@std@@PAX@std@@@std@@@std@@QAE@AAV?$allocator@U?$_Tree_node@U?$pair@$$CBV?$basic_string@DU?$char_traits@D@std@@V?$allocator@D@2@@std@@V?$shared_ptr@VRawImageData@@@2@@std@@PAX@std@@@1@@Z 0040000d f   NumberTiles.obj
 0001:fffff00d       __ehhandler$??0?$_Tree_temp_node_alloc@V?$allocator@U?$_Tree_node@U?$pair@$$CBV?$basic_string@DU?$char_traits@D@std@@V?$allocator@D@2@@std@@V?$weak_ptr@VRawImageData@@@2@@std@@PAX@std@@@std@@@std@@QAE@AAV?$allocator@U?$_Tree_node@U?$pair@$$CBV?$basic_string@DU?$char_traits@D@std@@V?$allocator@D@2@@std@@V?$weak_ptr@VRawImageData@@@2@@std@@PAX@std@@@1@@Z 0040000d f   NumberTiles.obj
 0001:fffff00d       __ehhandler$??0?$basic_string@DU?$char_traits@D@std@@V?$allocator@D@2@@std@@QAE@ABV01@@Z 0040000d f   NumberTiles.obj
 0001:fffff00d       __ehhandler$??0?$basic_string@DU?$char_traits@D@std@@V?$allocator@D@2@@std@@QAE@QBD@Z 0040000d f   NumberTiles.obj
 0001:fffff00d       __ehhandler$??0ImageManager@@QAE@XZ 0040000d f   NumberTiles.obj
 0001:fffff00d       __ehhandler$??0RawImageData@@QAE@V?$basic_string@DU?$char_traits@D@std@@V?$allocator@D@2@@std@@@Z 0040000d f   NumberTiles.obj
 0001:fffff00d       __ehhandler$??0sentry@?$basic_ostream@DU?$char_traits@D@std@@@std@@QAE@AAV12@@Z 0040000d f   NumberTiles.obj
 0001:fffff00d       __ehhandler$?_Alloc_sentinel_and_proxy@?$_Tree@V?$_Tmap_traits@V?$basic_string@DU?$char_traits@D@std@@V?$allocator@D@2@@std@@V?$shared_ptr@VRawImageData@@@2@U?$less@V?$basic_string@DU?$char_traits@D@std@@V?$allocator@D@2@@std@@@2@V?$allocator@U?$pair@$$CBV?$basic_string@DU?$char_traits@D@std@@V?$allocator@D@2@@std@@V?$shared_ptr@VRawImageData@@@2@@std@@@2@$0A@@std@@@std@@IAEXXZ 0040000d f   NumberTiles.obj
 0001:fffff00d       __ehhandler$?_Alloc_sentinel_and_proxy@?$_Tree@V?$_Tmap_traits@V?$basic_string@DU?$char_traits@D@std@@V?$allocator@D@2@@std@@V?$weak_ptr@VRawImageData@@@2@U?$less@V?$basic_string@DU?$char_traits@D@std@@V?$allocator@D@2@@std@@@2@V?$allocator@U?$pair@$$CBV?$basic_string@DU?$char_traits@D@std@@V?$allocator@D@2@@std@@V?$weak_ptr@VRawImageData@@@2@@std@@@2@$0A@@std@@@std@@IAEXXZ 0040000d f   NumberTiles.obj
 0001:fffff00d       __ehhandler$?getImagebyURL@ImageManager@@QAE?AVSimpleImage@@V?$basic_string@DU?$char_traits@D@std@@V?$allocator@D@2@@std@@_N1@Z 0040000d f   NumberTiles.obj
 0001:fffff00d       __ehhandler$?loadImage@RawImageData@@QAE_NV?$basic_string@DU?$char_traits@D@std@@V?$allocator@D@2@@std@@HHHHH_N@Z 0040000d f   NumberTiles.obj
 0001:fffff00d       __ehhandler$??$?0U?$pair@V?$basic_string@DU?$char_traits@D@std@@V?$allocator@D@2@@std@@V?$shared_ptr@VRawImageData@@@2@@std@@@?$_Tree_temp_node@V?$allocator@U?$_Tree_node@U?$pair@$$CBV?$basic_string@DU?$char_traits@D@std@@V?$allocator@D@2@@std@@V?$shared_ptr@VRawImageData@@@2@@std@@PAX@std@@@std@@@std@@QAE@AAV?$allocator@U?$_Tree_node@U?$pair@$$CBV?$basic_string@DU?$char_traits@D@std@@V?$allocator@D@2@@std@@V?$shared_ptr@VRawImageData@@@2@@std@@PAX@std@@@1@PAU?$_Tree_node@U?$pair@$$CBV?$basic_string@DU?$char_traits@D@std@@V?$allocator@D@2@@std@@V?$shared_ptr@VRawImageData@@@2@@std@@PAX@1@$$QAU?$pair@V?$basic_string@DU?$char_traits@D@std@@V?$allocator@D@2@@std@@V?$shared_ptr@VRawImageData@@@2@@1@@Z 0040000d f   Player.obj
 0001:fffff00d       __ehhandler$??$?0U?$pair@V?$basic_string@DU?$char_traits@D@std@@V?$allocator@D@2@@std@@V?$weak_ptr@VRawImageData@@@2@@std@@@?$_Tree_temp_node@V?$allocator@U?$_Tree_node@U?$pair@$$CBV?$basic_string@DU?$char_traits@D@std@@V?$allocator@D@2@@std@@V?$weak_ptr@VRawImageData@@@2@@std@@PAX@std@@@std@@@std@@QAE@AAV?$allocator@U?$_Tree_node@U?$pair@$$CBV?$basic_string@DU?$char_traits@D@std@@V?$allocator@D@2@@std@@V?$weak_ptr@VRawImageData@@@2@@std@@PAX@std@@@1@PAU?$_Tree_node@U?$pair@$$CBV?$basic_string@DU?$char_traits@D@std@@V?$allocator@D@2@@std@@V?$weak_ptr@VRawImageData@@@2@@std@@PAX@1@$$QAU?$pair@V?$basic_string@DU?$char_traits@D@std@@V?$allocator@D@2@@std@@V?$weak_ptr@VRawImageData@@@2@@1@@Z 0040000d f   Player.obj
 0001:fffff00d       __ehhandler$??$?6U?$char_traits@D@std@@@std@@YAAAV?$basic_ostream@DU?$char_traits@D@std@@@0@AAV10@PBD@Z 0040000d f   Player.obj
 0001:fffff00d       __ehhandler$??$_Construct@$01PBD@?$basic_string@DU?$char_traits@D@std@@V?$allocator@D@2@@std@@AAEXQBDI@Z 0040000d f   Player.obj
 0001:fffff00d       __ehhandler$??$_Insert_string@DU?$char_traits@D@std@@I@std@@YAAAV?$basic_ostream@DU?$char_traits@D@std@@@0@AAV10@QBDI@Z 0040000d f   Player.obj
 0001:fffff00d       __ehhandler$??0?$_Tree_temp_node_alloc@V?$allocator@U?$_Tree_node@U?$pair@$$CBV?$basic_string@DU?$char_traits@D@std@@V?$allocator@D@2@@std@@V?$shared_ptr@VRawImageData@@@2@@std@@PAX@std@@@std@@@std@@QAE@AAV?$allocator@U?$_Tree_node@U?$pair@$$CBV?$basic_string@DU?$char_traits@D@std@@V?$allocator@D@2@@std@@V?$shared_ptr@VRawImageData@@@2@@std@@PAX@std@@@1@@Z 0040000d f   Player.obj
 0001:fffff00d       __ehhandler$??0?$_Tree_temp_node_alloc@V?$allocator@U?$_Tree_node@U?$pair@$$CBV?$basic_string@DU?$char_traits@D@std@@V?$allocator@D@2@@std@@V?$weak_ptr@VRawImageData@@@2@@std@@PAX@std@@@std@@@std@@QAE@AAV?$allocator@U?$_Tree_node@U?$pair@$$CBV?$basic_string@DU?$char_traits@D@std@@V?$allocator@D@2@@std@@V?$weak_ptr@VRawImageData@@@2@@std@@PAX@std@@@1@@Z 0040000d f   Player.obj
 0001:fffff00d       __ehhandler$??0?$basic_string@DU?$char_traits@D@std@@V?$allocator@D@2@@std@@QAE@ABV01@@Z 0040000d f   Player.obj
 0001:fffff00d       __ehhandler$??0ImageManager@@QAE@XZ 0040000d f   Player.obj
 0001:fffff00d       __ehhandler$??0RawImageData@@QAE@V?$basic_string@DU?$char_traits@D@std@@V?$allocator@D@2@@std@@@Z 0040000d f   Player.obj
 0001:fffff00d       __ehhandler$??0sentry@?$basic_ostream@DU?$char_traits@D@std@@@std@@QAE@AAV12@@Z 0040000d f   Player.obj
 0001:fffff00d       __ehhandler$?_Alloc_sentinel_and_proxy@?$_Tree@V?$_Tmap_traits@V?$basic_string@DU?$char_traits@D@std@@V?$allocator@D@2@@std@@V?$shared_ptr@VRawImageData@@@2@U?$less@V?$basic_string@DU?$char_traits@D@std@@V?$allocator@D@2@@std@@@2@V?$allocator@U?$pair@$$CBV?$basic_string@DU?$char_traits@D@std@@V?$allocator@D@2@@std@@V?$shared_ptr@VRawImageData@@@2@@std@@@2@$0A@@std@@@std@@IAEXXZ 0040000d f   Player.obj
 0001:fffff00d       __ehhandler$?_Alloc_sentinel_and_proxy@?$_Tree@V?$_Tmap_traits@V?$basic_string@DU?$char_traits@D@std@@V?$allocator@D@2@@std@@V?$weak_ptr@VRawImageData@@@2@U?$less@V?$basic_string@DU?$char_traits@D@std@@V?$allocator@D@2@@std@@@2@V?$allocator@U?$pair@$$CBV?$basic_string@DU?$char_traits@D@std@@V?$allocator@D@2@@std@@V?$weak_ptr@VRawImageData@@@2@@std@@@2@$0A@@std@@@std@@IAEXXZ 0040000d f   Player.obj
 0001:fffff00d       __ehhandler$?getImagebyURL@ImageManager@@QAE?AVSimpleImage@@V?$basic_string@DU?$char_traits@D@std@@V?$allocator@D@2@@std@@_N1@Z 0040000d f   Player.obj
 0001:fffff00d       __ehhandler$?loadImage@RawImageData@@QAE_NV?$basic_string@DU?$char_traits@D@std@@V?$allocator@D@2@@std@@HHHHH_N@Z 0040000d f   Player.obj
 0001:fffff00d       __ehhandler$??$_Construct@$00PBD@?$basic_string@DU?$char_traits@D@std@@V?$allocator@D@2@@std@@AAEXQBDI@Z 0040000d f   Psydp3Engine.obj
 0001:fffff00d       __ehhandler$??0?$basic_string@DU?$char_traits@D@std@@V?$allocator@D@2@@std@@QAE@QBD@Z 0040000d f   Psydp3Engine.obj
 0001:fffff00d       __ehhandler$??$?0U?$pair@V?$basic_string@DU?$char_traits@D@std@@V?$allocator@D@2@@std@@V?$shared_ptr@VRawImageData@@@2@@std@@@?$_Tree_temp_node@V?$allocator@U?$_Tree_node@U?$pair@$$CBV?$basic_string@DU?$char_traits@D@std@@V?$allocator@D@2@@std@@V?$shared_ptr@VRawImageData@@@2@@std@@PAX@std@@@std@@@std@@QAE@AAV?$allocator@U?$_Tree_node@U?$pair@$$CBV?$basic_string@DU?$char_traits@D@std@@V?$allocator@D@2@@std@@V?$shared_ptr@VRawImageData@@@2@@std@@PAX@std@@@1@PAU?$_Tree_node@U?$pair@$$CBV?$basic_string@DU?$char_traits@D@std@@V?$allocator@D@2@@std@@V?$shared_ptr@VRawImageData@@@2@@std@@PAX@1@$$QAU?$pair@V?$basic_string@DU?$char_traits@D@std@@V?$allocator@D@2@@std@@V?$shared_ptr@VRawImageData@@@2@@1@@Z 0040000d f   RunningState.obj
 0001:fffff00d       __ehhandler$??$?0U?$pair@V?$basic_string@DU?$char_traits@D@std@@V?$allocator@D@2@@std@@V?$weak_ptr@VRawImageData@@@2@@std@@@?$_Tree_temp_node@V?$allocator@U?$_Tree_node@U?$pair@$$CBV?$basic_string@DU?$char_traits@D@std@@V?$allocator@D@2@@std@@V?$weak_ptr@VRawImageData@@@2@@std@@PAX@std@@@std@@@std@@QAE@AAV?$allocator@U?$_Tree_node@U?$pair@$$CBV?$basic_string@DU?$char_traits@D@std@@V?$allocator@D@2@@std@@V?$weak_ptr@VRawImageData@@@2@@std@@PAX@std@@@1@PAU?$_Tree_node@U?$pair@$$CBV?$basic_string@DU?$char_traits@D@std@@V?$allocator@D@2@@std@@V?$weak_ptr@VRawImageData@@@2@@std@@PAX@1@$$QAU?$pair@V?$basic_string@DU?$char_traits@D@std@@V?$allocator@D@2@@std@@V?$weak_ptr@VRawImageData@@@2@@1@@Z 0040000d f   RunningState.obj
 0001:fffff00d       __ehhandler$??$?6U?$char_traits@D@std@@@std@@YAAAV?$basic_ostream@DU?$char_traits@D@std@@@0@AAV10@PBD@Z 0040000d f   RunningState.obj
 0001:fffff00d       __ehhandler$??$_Construct@$00PBD@?$basic_string@DU?$char_traits@D@std@@V?$allocator@D@2@@std@@AAEXQBDI@Z 0040000d f   RunningState.obj
 0001:fffff00d       __ehhandler$??$_Construct@$01PBD@?$basic_string@DU?$char_traits@D@std@@V?$allocator@D@2@@std@@AAEXQBDI@Z 0040000d f   RunningState.obj
 0001:fffff00d       __ehhandler$??$_Insert_string@DU?$char_traits@D@std@@I@std@@YAAAV?$basic_ostream@DU?$char_traits@D@std@@@0@AAV10@QBDI@Z 0040000d f   RunningState.obj
 0001:fffff00d       __ehhandler$??$_Uninitialized_move@PAPAVDisplayableObject@@V?$allocator@PAVDisplayableObject@@@std@@@std@@YAPAPAVDisplayableObject@@QAPAV1@0PAPAV1@AAV?$allocator@PAVDisplayableObject@@@0@@Z 0040000d f   RunningState.obj
 0001:fffff00d       __ehhandler$??$_Uninitialized_value_construct_n@V?$allocator@PAVDisplayableObject@@@std@@@std@@YAPAPAVDisplayableObject@@PAPAV1@IAAV?$allocator@PAVDisplayableObject@@@0@@Z 0040000d f   RunningState.obj
 0001:fffff00d       __ehhandler$??0?$_Tree_temp_node_alloc@V?$allocator@U?$_Tree_node@U?$pair@$$CBV?$basic_string@DU?$char_traits@D@std@@V?$allocator@D@2@@std@@V?$shared_ptr@VRawImageData@@@2@@std@@PAX@std@@@std@@@std@@QAE@AAV?$allocator@U?$_Tree_node@U?$pair@$$CBV?$basic_string@DU?$char_traits@D@std@@V?$allocator@D@2@@std@@V?$shared_ptr@VRawImageData@@@2@@std@@PAX@std@@@1@@Z 0040000d f   RunningState.obj
 0001:fffff00d       __ehhandler$??0?$_Tree_temp_node_alloc@V?$allocator@U?$_Tree_node@U?$pair@$$CBV?$basic_string@DU?$char_traits@D@std@@V?$allocator@D@2@@std@@V?$weak_ptr@VRawImageData@@@2@@std@@PAX@std@@@std@@@std@@QAE@AAV?$allocator@U?$_Tree_node@U?$pair@$$CBV?$basic_string@DU?$char_traits@D@std@@V?$allocator@D@2@@std@@V?$weak_ptr@VRawImageData@@@2@@std@@PAX@std@@@1@@Z 0040000d f   RunningState.obj
 0001:fffff00d       __ehhandler$??0?$basic_string@DU?$char_traits@D@std@@V?$allocator@D@2@@std@@QAE@ABV01@@Z 0040000d f   RunningState.obj
 0001:fffff00d       __ehhandler$??0?$basic_string@DU?$char_traits@D@std@@V?$allocator@D@2@@std@@QAE@QBD@Z 0040000d f   RunningState.obj
 0001:fffff00d       __ehhandler$??0GameObject@@QAE@HHPAVBaseEngine@@HH_N@Z 0040000d f   RunningState.obj
 0001:fffff00d       __ehhandler$??0ImageManager@@QAE@XZ 0040000d f   RunningState.obj
 0001:fffff00d       __ehhandler$??0RawImageData@@QAE@V?$basic_string@DU?$char_traits@D@std@@V?$allocator@D@2@@std@@@Z 0040000d f   RunningState.obj
 0001:fffff00d       __ehhandler$??0sentry@?$basic_ostream@DU?$char_traits@D@std@@@std@@QAE@AAV12@@Z 0040000d f   RunningState.obj
 0001:fffff00d       __ehhandler$?_Alloc_sentinel_and_proxy@?$_Tree@V?$_Tmap_traits@V?$basic_string@DU?$char_traits@D@std@@V?$allocator@D@2@@std@@V?$shared_ptr@VRawImageData@@@2@U?$less@V?$basic_string@DU?$char_traits@D@std@@V?$allocator@D@2@@std@@@2@V?$allocator@U?$pair@$$CBV?$basic_string@DU?$char_traits@D@std@@V?$allocator@D@2@@std@@V?$shared_ptr@VRawImageData@@@2@@std@@@2@$0A@@std@@@std@@IAEXXZ 0040000d f   RunningState.obj
 0001:fffff00d       __ehhandler$?_Alloc_sentinel_and_proxy@?$_Tree@V?$_Tmap_traits@V?$basic_string@DU?$char_traits@D@std@@V?$allocator@D@2@@std@@V?$weak_ptr@VRawImageData@@@2@U?$less@V?$basic_string@DU?$char_traits@D@std@@V?$allocator@D@2@@std@@@2@V?$allocator@U?$pair@$$CBV?$basic_string@DU?$char_traits@D@std@@V?$allocator@D@2@@std@@V?$weak_ptr@VRawImageData@@@2@@std@@@2@$0A@@std@@@std@@IAEXXZ 0040000d f   RunningState.obj
 0001:fffff00d       __ehhandler$?getImagebyURL@ImageManager@@QAE?AVSimpleImage@@V?$basic_string@DU?$char_traits@D@std@@V?$allocator@D@2@@std@@_N1@Z 0040000d f   RunningState.obj
 0001:fffff00d       __ehhandler$?loadImage@RawImageData@@QAE_NV?$basic_string@DU?$char_traits@D@std@@V?$allocator@D@2@@std@@HHHHH_N@Z 0040000d f   RunningState.obj
 0001:fffff00d       __ehhandler$??$?6U?$char_traits@D@std@@@std@@YAAAV?$basic_ostream@DU?$char_traits@D@std@@@0@AAV10@PBD@Z 0040000d f   SimpleDemo.obj
 0001:fffff00d       __ehhandler$??$_Uninitialized_move@PAPAVDisplayableObject@@V?$allocator@PAVDisplayableObject@@@std@@@std@@YAPAPAVDisplayableObject@@QAPAV1@0PAPAV1@AAV?$allocator@PAVDisplayableObject@@@0@@Z 0040000d f   SimpleDemo.obj
 0001:fffff00d       __ehhandler$??$_Uninitialized_value_construct_n@V?$allocator@PAVDisplayableObject@@@std@@@std@@YAPAPAVDisplayableObject@@PAPAV1@IAAV?$allocator@PAVDisplayableObject@@@0@@Z 0040000d f   SimpleDemo.obj
 0001:fffff00d       __ehhandler$??0sentry@?$basic_ostream@DU?$char_traits@D@std@@@std@@QAE@AAV12@@Z 0040000d f   SimpleDemo.obj
 0001:fffff00d       __ehhandler$??$?6U?$char_traits@D@std@@@std@@YAAAV?$basic_ostream@DU?$char_traits@D@std@@@0@AAV10@PBD@Z 0040000d f   SimpleImage.obj
 0001:fffff00d       __ehhandler$??0sentry@?$basic_ostream@DU?$char_traits@D@std@@@std@@QAE@AAV12@@Z 0040000d f   SimpleImage.obj
 0001:fffff00d       __ehhandler$??$?6U?$char_traits@D@std@@@std@@YAAAV?$basic_ostream@DU?$char_traits@D@std@@@0@AAV10@PBD@Z 0040000d f   StarfieldDemo.obj
 0001:fffff00d       __ehhandler$??0sentry@?$basic_ostream@DU?$char_traits@D@std@@@std@@QAE@AAV12@@Z 0040000d f   StarfieldDemo.obj
 0001:fffff00d       __ehhandler$??$?0U?$pair@V?$basic_string@DU?$char_traits@D@std@@V?$allocator@D@2@@std@@V?$shared_ptr@VRawImageData@@@2@@std@@@?$_Tree_temp_node@V?$allocator@U?$_Tree_node@U?$pair@$$CBV?$basic_string@DU?$char_traits@D@std@@V?$allocator@D@2@@std@@V?$shared_ptr@VRawImageData@@@2@@std@@PAX@std@@@std@@@std@@QAE@AAV?$allocator@U?$_Tree_node@U?$pair@$$CBV?$basic_string@DU?$char_traits@D@std@@V?$allocator@D@2@@std@@V?$shared_ptr@VRawImageData@@@2@@std@@PAX@std@@@1@PAU?$_Tree_node@U?$pair@$$CBV?$basic_string@DU?$char_traits@D@std@@V?$allocator@D@2@@std@@V?$shared_ptr@VRawImageData@@@2@@std@@PAX@1@$$QAU?$pair@V?$basic_string@DU?$char_traits@D@std@@V?$allocator@D@2@@std@@V?$shared_ptr@VRawImageData@@@2@@1@@Z 0040000d f   StartupState.obj
 0001:fffff00d       __ehhandler$??$?0U?$pair@V?$basic_string@DU?$char_traits@D@std@@V?$allocator@D@2@@std@@V?$weak_ptr@VRawImageData@@@2@@std@@@?$_Tree_temp_node@V?$allocator@U?$_Tree_node@U?$pair@$$CBV?$basic_string@DU?$char_traits@D@std@@V?$allocator@D@2@@std@@V?$weak_ptr@VRawImageData@@@2@@std@@PAX@std@@@std@@@std@@QAE@AAV?$allocator@U?$_Tree_node@U?$pair@$$CBV?$basic_string@DU?$char_traits@D@std@@V?$allocator@D@2@@std@@V?$weak_ptr@VRawImageData@@@2@@std@@PAX@std@@@1@PAU?$_Tree_node@U?$pair@$$CBV?$basic_string@DU?$char_traits@D@std@@V?$allocator@D@2@@std@@V?$weak_ptr@VRawImageData@@@2@@std@@PAX@1@$$QAU?$pair@V?$basic_string@DU?$char_traits@D@std@@V?$allocator@D@2@@std@@V?$weak_ptr@VRawImageData@@@2@@1@@Z 0040000d f   StartupState.obj
 0001:fffff00d       __ehhandler$??$?6U?$char_traits@D@std@@@std@@YAAAV?$basic_ostream@DU?$char_traits@D@std@@@0@AAV10@PBD@Z 0040000d f   StartupState.obj
 0001:fffff00d       __ehhandler$??$_Construct@$00PBD@?$basic_string@DU?$char_traits@D@std@@V?$allocator@D@2@@std@@AAEXQBDI@Z 0040000d f   StartupState.obj
 0001:fffff00d       __ehhandler$??$_Construct@$01PBD@?$basic_string@DU?$char_traits@D@std@@V?$allocator@D@2@@std@@AAEXQBDI@Z 0040000d f   StartupState.obj
 0001:fffff00d       __ehhandler$??$_Insert_string@DU?$char_traits@D@std@@I@std@@YAAAV?$basic_ostream@DU?$char_traits@D@std@@@0@AAV10@QBDI@Z 0040000d f   StartupState.obj
 0001:fffff00d       __ehhandler$??$_Uninitialized_move@PAPAVDisplayableObject@@V?$allocator@PAVDisplayableObject@@@std@@@std@@YAPAPAVDisplayableObject@@QAPAV1@0PAPAV1@AAV?$allocator@PAVDisplayableObject@@@0@@Z 0040000d f   StartupState.obj
 0001:fffff00d       __ehhandler$??$_Uninitialized_value_construct_n@V?$allocator@PAVDisplayableObject@@@std@@@std@@YAPAPAVDisplayableObject@@PAPAV1@IAAV?$allocator@PAVDisplayableObject@@@0@@Z 0040000d f   StartupState.obj
 0001:fffff00d       __ehhandler$??0?$_Tree_temp_node_alloc@V?$allocator@U?$_Tree_node@U?$pair@$$CBV?$basic_string@DU?$char_traits@D@std@@V?$allocator@D@2@@std@@V?$shared_ptr@VRawImageData@@@2@@std@@PAX@std@@@std@@@std@@QAE@AAV?$allocator@U?$_Tree_node@U?$pair@$$CBV?$basic_string@DU?$char_traits@D@std@@V?$allocator@D@2@@std@@V?$shared_ptr@VRawImageData@@@2@@std@@PAX@std@@@1@@Z 0040000d f   StartupState.obj
 0001:fffff00d       __ehhandler$??0?$_Tree_temp_node_alloc@V?$allocator@U?$_Tree_node@U?$pair@$$CBV?$basic_string@DU?$char_traits@D@std@@V?$allocator@D@2@@std@@V?$weak_ptr@VRawImageData@@@2@@std@@PAX@std@@@std@@@std@@QAE@AAV?$allocator@U?$_Tree_node@U?$pair@$$CBV?$basic_string@DU?$char_traits@D@std@@V?$allocator@D@2@@std@@V?$weak_ptr@VRawImageData@@@2@@std@@PAX@std@@@1@@Z 0040000d f   StartupState.obj
 0001:fffff00d       __ehhandler$??0?$basic_string@DU?$char_traits@D@std@@V?$allocator@D@2@@std@@QAE@ABV01@@Z 0040000d f   StartupState.obj
 0001:fffff00d       __ehhandler$??0?$basic_string@DU?$char_traits@D@std@@V?$allocator@D@2@@std@@QAE@QBD@Z 0040000d f   StartupState.obj
 0001:fffff00d       __ehhandler$??0ImageManager@@QAE@XZ 0040000d f   StartupState.obj
 0001:fffff00d       __ehhandler$??0RawImageData@@QAE@V?$basic_string@DU?$char_traits@D@std@@V?$allocator@D@2@@std@@@Z 0040000d f   StartupState.obj
 0001:fffff00d       __ehhandler$??0sentry@?$basic_ostream@DU?$char_traits@D@std@@@std@@QAE@AAV12@@Z 0040000d f   StartupState.obj
 0001:fffff00d       __ehhandler$?_Alloc_sentinel_and_proxy@?$_Tree@V?$_Tmap_traits@V?$basic_string@DU?$char_traits@D@std@@V?$allocator@D@2@@std@@V?$shared_ptr@VRawImageData@@@2@U?$less@V?$basic_string@DU?$char_traits@D@std@@V?$allocator@D@2@@std@@@2@V?$allocator@U?$pair@$$CBV?$basic_string@DU?$char_traits@D@std@@V?$allocator@D@2@@std@@V?$shared_ptr@VRawImageData@@@2@@std@@@2@$0A@@std@@@std@@IAEXXZ 0040000d f   StartupState.obj
 0001:fffff00d       __ehhandler$?_Alloc_sentinel_and_proxy@?$_Tree@V?$_Tmap_traits@V?$basic_string@DU?$char_traits@D@std@@V?$allocator@D@2@@std@@V?$weak_ptr@VRawImageData@@@2@U?$less@V?$basic_string@DU?$char_traits@D@std@@V?$allocator@D@2@@std@@@2@V?$allocator@U?$pair@$$CBV?$basic_string@DU?$char_traits@D@std@@V?$allocator@D@2@@std@@V?$weak_ptr@VRawImageData@@@2@@std@@@2@$0A@@std@@@std@@IAEXXZ 0040000d f   StartupState.obj
 0001:fffff00d       __ehhandler$?getImagebyURL@ImageManager@@QAE?AVSimpleImage@@V?$basic_string@DU?$char_traits@D@std@@V?$allocator@D@2@@std@@_N1@Z 0040000d f   StartupState.obj
 0001:fffff00d       __ehhandler$?loadImage@RawImageData@@QAE_NV?$basic_string@DU?$char_traits@D@std@@V?$allocator@D@2@@std@@HHHHH_N@Z 0040000d f   StartupState.obj
 0001:fffff00d       __ehhandler$?open@?$basic_filebuf@DU?$char_traits@D@std@@@std@@QAEPAV12@PBDHH@Z 0040000d f   StartupState.obj
 0001:fffff00d       __ehhandler$?setAllObjectsVisible@DisplayableObjectContainer@@QBEX_N@Z 0040000d f   StartupState.obj
 0001:fffff00d       __ehhandler$?uflow@?$basic_filebuf@DU?$char_traits@D@std@@@std@@MAEHXZ 0040000d f   StartupState.obj
 0001:fffff00d       __ehhandler$??$?0U?$pair@V?$basic_string@DU?$char_traits@D@std@@V?$allocator@D@2@@std@@V?$shared_ptr@VRawImageData@@@2@@std@@@?$_Tree_temp_node@V?$allocator@U?$_Tree_node@U?$pair@$$CBV?$basic_string@DU?$char_traits@D@std@@V?$allocator@D@2@@std@@V?$shared_ptr@VRawImageData@@@2@@std@@PAX@std@@@std@@@std@@QAE@AAV?$allocator@U?$_Tree_node@U?$pair@$$CBV?$basic_string@DU?$char_traits@D@std@@V?$allocator@D@2@@std@@V?$shared_ptr@VRawImageData@@@2@@std@@PAX@std@@@1@PAU?$_Tree_node@U?$pair@$$CBV?$basic_string@DU?$char_traits@D@std@@V?$allocator@D@2@@std@@V?$shared_ptr@VRawImageData@@@2@@std@@PAX@1@$$QAU?$pair@V?$basic_string@DU?$char_traits@D@std@@V?$allocator@D@2@@std@@V?$shared_ptr@VRawImageData@@@2@@1@@Z 0040000d f   WinState.obj
 0001:fffff00d       __ehhandler$??$?0U?$pair@V?$basic_string@DU?$char_traits@D@std@@V?$allocator@D@2@@std@@V?$weak_ptr@VRawImageData@@@2@@std@@@?$_Tree_temp_node@V?$allocator@U?$_Tree_node@U?$pair@$$CBV?$basic_string@DU?$char_traits@D@std@@V?$allocator@D@2@@std@@V?$weak_ptr@VRawImageData@@@2@@std@@PAX@std@@@std@@@std@@QAE@AAV?$allocator@U?$_Tree_node@U?$pair@$$CBV?$basic_string@DU?$char_traits@D@std@@V?$allocator@D@2@@std@@V?$weak_ptr@VRawImageData@@@2@@std@@PAX@std@@@1@PAU?$_Tree_node@U?$pair@$$CBV?$basic_string@DU?$char_traits@D@std@@V?$allocator@D@2@@std@@V?$weak_ptr@VRawImageData@@@2@@std@@PAX@1@$$QAU?$pair@V?$basic_string@DU?$char_traits@D@std@@V?$allocator@D@2@@std@@V?$weak_ptr@VRawImageData@@@2@@1@@Z 0040000d f   WinState.obj
 0001:fffff00d       __ehhandler$??$?6U?$char_traits@D@std@@@std@@YAAAV?$basic_ostream@DU?$char_traits@D@std@@@0@AAV10@PBD@Z 0040000d f   WinState.obj
 0001:fffff00d       __ehhandler$??$_Construct@$00PBD@?$basic_string@DU?$char_traits@D@std@@V?$allocator@D@2@@std@@AAEXQBDI@Z 0040000d f   WinState.obj
 0001:fffff00d       __ehhandler$??$_Construct@$01PBD@?$basic_string@DU?$char_traits@D@std@@V?$allocator@D@2@@std@@AAEXQBDI@Z 0040000d f   WinState.obj
 0001:fffff00d       __ehhandler$??$_Insert_string@DU?$char_traits@D@std@@I@std@@YAAAV?$basic_ostream@DU?$char_traits@D@std@@@0@AAV10@QBDI@Z 0040000d f   WinState.obj
 0001:fffff00d       __ehhandler$??$_Uninitialized_move@PAPAVDisplayableObject@@V?$allocator@PAVDisplayableObject@@@std@@@std@@YAPAPAVDisplayableObject@@QAPAV1@0PAPAV1@AAV?$allocator@PAVDisplayableObject@@@0@@Z 0040000d f   WinState.obj
 0001:fffff00d       __ehhandler$??$_Uninitialized_value_construct_n@V?$allocator@PAVDisplayableObject@@@std@@@std@@YAPAPAVDisplayableObject@@PAPAV1@IAAV?$allocator@PAVDisplayableObject@@@0@@Z 0040000d f   WinState.obj
 0001:fffff00d       __ehhandler$??0?$_Tree_temp_node_alloc@V?$allocator@U?$_Tree_node@U?$pair@$$CBV?$basic_string@DU?$char_traits@D@std@@V?$allocator@D@2@@std@@V?$shared_ptr@VRawImageData@@@2@@std@@PAX@std@@@std@@@std@@QAE@AAV?$allocator@U?$_Tree_node@U?$pair@$$CBV?$basic_string@DU?$char_traits@D@std@@V?$allocator@D@2@@std@@V?$shared_ptr@VRawImageData@@@2@@std@@PAX@std@@@1@@Z 0040000d f   WinState.obj
 0001:fffff00d       __ehhandler$??0?$_Tree_temp_node_alloc@V?$allocator@U?$_Tree_node@U?$pair@$$CBV?$basic_string@DU?$char_traits@D@std@@V?$allocator@D@2@@std@@V?$weak_ptr@VRawImageData@@@2@@std@@PAX@std@@@std@@@std@@QAE@AAV?$allocator@U?$_Tree_node@U?$pair@$$CBV?$basic_string@DU?$char_traits@D@std@@V?$allocator@D@2@@std@@V?$weak_ptr@VRawImageData@@@2@@std@@PAX@std@@@1@@Z 0040000d f   WinState.obj
 0001:fffff00d       __ehhandler$??0?$basic_string@DU?$char_traits@D@std@@V?$allocator@D@2@@std@@QAE@ABV01@@Z 0040000d f   WinState.obj
 0001:fffff00d       __ehhandler$??0?$basic_string@DU?$char_traits@D@std@@V?$allocator@D@2@@std@@QAE@QBD@Z 0040000d f   WinState.obj
 0001:fffff00d       __ehhandler$??0ImageManager@@QAE@XZ 0040000d f   WinState.obj
 0001:fffff00d       __ehhandler$??0RawImageData@@QAE@V?$basic_string@DU?$char_traits@D@std@@V?$allocator@D@2@@std@@@Z 0040000d f   WinState.obj
 0001:fffff00d       __ehhandler$??0sentry@?$basic_ostream@DU?$char_traits@D@std@@@std@@QAE@AAV12@@Z 0040000d f   WinState.obj
 0001:fffff00d       __ehhandler$?_Alloc_sentinel_and_proxy@?$_Tree@V?$_Tmap_traits@V?$basic_string@DU?$char_traits@D@std@@V?$allocator@D@2@@std@@V?$shared_ptr@VRawImageData@@@2@U?$less@V?$basic_string@DU?$char_traits@D@std@@V?$allocator@D@2@@std@@@2@V?$allocator@U?$pair@$$CBV?$basic_string@DU?$char_traits@D@std@@V?$allocator@D@2@@std@@V?$shared_ptr@VRawImageData@@@2@@std@@@2@$0A@@std@@@std@@IAEXXZ 0040000d f   WinState.obj
 0001:fffff00d       __ehhandler$?_Alloc_sentinel_and_proxy@?$_Tree@V?$_Tmap_traits@V?$basic_string@DU?$char_traits@D@std@@V?$allocator@D@2@@std@@V?$weak_ptr@VRawImageData@@@2@U?$less@V?$basic_string@DU?$char_traits@D@std@@V?$allocator@D@2@@std@@@2@V?$allocator@U?$pair@$$CBV?$basic_string@DU?$char_traits@D@std@@V?$allocator@D@2@@std@@V?$weak_ptr@VRawImageData@@@2@@std@@@2@$0A@@std@@@std@@IAEXXZ 0040000d f   WinState.obj
 0001:fffff00d       __ehhandler$?getImagebyURL@ImageManager@@QAE?AVSimpleImage@@V?$basic_string@DU?$char_traits@D@std@@V?$allocator@D@2@@std@@_N1@Z 0040000d f   WinState.obj
 0001:fffff00d       __ehhandler$?loadImage@RawImageData@@QAE_NV?$basic_string@DU?$char_traits@D@std@@V?$allocator@D@2@@std@@HHHHH_N@Z 0040000d f   WinState.obj
 0001:fffff00d       __ehhandler$?setAllObjectsVisible@DisplayableObjectContainer@@QBEX_N@Z 0040000d f   WinState.obj
 0001:fffff00d       __ehhandler$??$?6U?$char_traits@D@std@@@std@@YAAAV?$basic_ostream@DU?$char_traits@D@std@@@0@AAV10@PBD@Z 0040000d f   ZoomPoints.obj
 0001:fffff00d       __ehhandler$??0sentry@?$basic_ostream@DU?$char_traits@D@std@@@std@@QAE@AAV12@@Z 0040000d f   ZoomPoints.obj
 0001:fffff00d       __ehhandler$??$?0U?$pair@V?$basic_string@DU?$char_traits@D@std@@V?$allocator@D@2@@std@@V?$shared_ptr@VRawImageData@@@2@@std@@@?$_Tree_temp_node@V?$allocator@U?$_Tree_node@U?$pair@$$CBV?$basic_string@DU?$char_traits@D@std@@V?$allocator@D@2@@std@@V?$shared_ptr@VRawImageData@@@2@@std@@PAX@std@@@std@@@std@@QAE@AAV?$allocator@U?$_Tree_node@U?$pair@$$CBV?$basic_string@DU?$char_traits@D@std@@V?$allocator@D@2@@std@@V?$shared_ptr@VRawImageData@@@2@@std@@PAX@std@@@1@PAU?$_Tree_node@U?$pair@$$CBV?$basic_string@DU?$char_traits@D@std@@V?$allocator@D@2@@std@@V?$shared_ptr@VRawImageData@@@2@@std@@PAX@1@$$QAU?$pair@V?$basic_string@DU?$char_traits@D@std@@V?$allocator@D@2@@std@@V?$shared_ptr@VRawImageData@@@2@@1@@Z 0040000d f   ZoomingDemo.obj
 0001:fffff00d       __ehhandler$??$?0U?$pair@V?$basic_string@DU?$char_traits@D@std@@V?$allocator@D@2@@std@@V?$weak_ptr@VRawImageData@@@2@@std@@@?$_Tree_temp_node@V?$allocator@U?$_Tree_node@U?$pair@$$CBV?$basic_string@DU?$char_traits@D@std@@V?$allocator@D@2@@std@@V?$weak_ptr@VRawImageData@@@2@@std@@PAX@std@@@std@@@std@@QAE@AAV?$allocator@U?$_Tree_node@U?$pair@$$CBV?$basic_string@DU?$char_traits@D@std@@V?$allocator@D@2@@std@@V?$weak_ptr@VRawImageData@@@2@@std@@PAX@std@@@1@PAU?$_Tree_node@U?$pair@$$CBV?$basic_string@DU?$char_traits@D@std@@V?$allocator@D@2@@std@@V?$weak_ptr@VRawImageData@@@2@@std@@PAX@1@$$QAU?$pair@V?$basic_string@DU?$char_traits@D@std@@V?$allocator@D@2@@std@@V?$weak_ptr@VRawImageData@@@2@@1@@Z 0040000d f   ZoomingDemo.obj
 0001:fffff00d       __ehhandler$??$?6U?$char_traits@D@std@@@std@@YAAAV?$basic_ostream@DU?$char_traits@D@std@@@0@AAV10@PBD@Z 0040000d f   ZoomingDemo.obj
 0001:fffff00d       __ehhandler$??$_Construct@$00PBD@?$basic_string@DU?$char_traits@D@std@@V?$allocator@D@2@@std@@AAEXQBDI@Z 0040000d f   ZoomingDemo.obj
 0001:fffff00d       __ehhandler$??$_Construct@$01PBD@?$basic_string@DU?$char_traits@D@std@@V?$allocator@D@2@@std@@AAEXQBDI@Z 0040000d f   ZoomingDemo.obj
 0001:fffff00d       __ehhandler$??$_Insert_string@DU?$char_traits@D@std@@I@std@@YAAAV?$basic_ostream@DU?$char_traits@D@std@@@0@AAV10@QBDI@Z 0040000d f   ZoomingDemo.obj
 0001:fffff00d       __ehhandler$??$_Uninitialized_move@PAPAVDisplayableObject@@V?$allocator@PAVDisplayableObject@@@std@@@std@@YAPAPAVDisplayableObject@@QAPAV1@0PAPAV1@AAV?$allocator@PAVDisplayableObject@@@0@@Z 0040000d f   ZoomingDemo.obj
 0001:fffff00d       __ehhandler$??$_Uninitialized_value_construct_n@V?$allocator@PAVDisplayableObject@@@std@@@std@@YAPAPAVDisplayableObject@@PAPAV1@IAAV?$allocator@PAVDisplayableObject@@@0@@Z 0040000d f   ZoomingDemo.obj
 0001:fffff00d       __ehhandler$??0?$_Tree_temp_node_alloc@V?$allocator@U?$_Tree_node@U?$pair@$$CBV?$basic_string@DU?$char_traits@D@std@@V?$allocator@D@2@@std@@V?$shared_ptr@VRawImageData@@@2@@std@@PAX@std@@@std@@@std@@QAE@AAV?$allocator@U?$_Tree_node@U?$pair@$$CBV?$basic_string@DU?$char_traits@D@std@@V?$allocator@D@2@@std@@V?$shared_ptr@VRawImageData@@@2@@std@@PAX@std@@@1@@Z 0040000d f   ZoomingDemo.obj
 0001:fffff00d       __ehhandler$??0?$_Tree_temp_node_alloc@V?$allocator@U?$_Tree_node@U?$pair@$$CBV?$basic_string@DU?$char_traits@D@std@@V?$allocator@D@2@@std@@V?$weak_ptr@VRawImageData@@@2@@std@@PAX@std@@@std@@@std@@QAE@AAV?$allocator@U?$_Tree_node@U?$pair@$$CBV?$basic_string@DU?$char_traits@D@std@@V?$allocator@D@2@@std@@V?$weak_ptr@VRawImageData@@@2@@std@@PAX@std@@@1@@Z 0040000d f   ZoomingDemo.obj
 0001:fffff00d       __ehhandler$??0?$basic_string@DU?$char_traits@D@std@@V?$allocator@D@2@@std@@QAE@ABV01@@Z 0040000d f   ZoomingDemo.obj
 0001:fffff00d       __ehhandler$??0?$basic_string@DU?$char_traits@D@std@@V?$allocator@D@2@@std@@QAE@QBD@Z 0040000d f   ZoomingDemo.obj
 0001:fffff00d       __ehhandler$??0DragableObject@@QAE@HHPAVBaseEngine@@HH_N1@Z 0040000d f   ZoomingDemo.obj
 0001:fffff00d       __ehhandler$??0ImageManager@@QAE@XZ 0040000d f   ZoomingDemo.obj
 0001:fffff00d       __ehhandler$??0RawImageData@@QAE@V?$basic_string@DU?$char_traits@D@std@@V?$allocator@D@2@@std@@@Z 0040000d f   ZoomingDemo.obj
 0001:fffff00d       __ehhandler$??0sentry@?$basic_ostream@DU?$char_traits@D@std@@@std@@QAE@AAV12@@Z 0040000d f   ZoomingDemo.obj
 0001:fffff00d       __ehhandler$?_Alloc_sentinel_and_proxy@?$_Tree@V?$_Tmap_traits@V?$basic_string@DU?$char_traits@D@std@@V?$allocator@D@2@@std@@V?$shared_ptr@VRawImageData@@@2@U?$less@V?$basic_string@DU?$char_traits@D@std@@V?$allocator@D@2@@std@@@2@V?$allocator@U?$pair@$$CBV?$basic_string@DU?$char_traits@D@std@@V?$allocator@D@2@@std@@V?$shared_ptr@VRawImageData@@@2@@std@@@2@$0A@@std@@@std@@IAEXXZ 0040000d f   ZoomingDemo.obj
 0001:fffff00d       __ehhandler$?_Alloc_sentinel_and_proxy@?$_Tree@V?$_Tmap_traits@V?$basic_string@DU?$char_traits@D@std@@V?$allocator@D@2@@std@@V?$weak_ptr@VRawImageData@@@2@U?$less@V?$basic_string@DU?$char_traits@D@std@@V?$allocator@D@2@@std@@@2@V?$allocator@U?$pair@$$CBV?$basic_string@DU?$char_traits@D@std@@V?$allocator@D@2@@std@@V?$weak_ptr@VRawImageData@@@2@@std@@@2@$0A@@std@@@std@@IAEXXZ 0040000d f   ZoomingDemo.obj
 0001:fffff00d       __ehhandler$?getImagebyURL@ImageManager@@QAE?AVSimpleImage@@V?$basic_string@DU?$char_traits@D@std@@V?$allocator@D@2@@std@@_N1@Z 0040000d f   ZoomingDemo.obj
 0001:fffff00d       __ehhandler$?loadImage@RawImageData@@QAE_NV?$basic_string@DU?$char_traits@D@std@@V?$allocator@D@2@@std@@HHHHH_N@Z 0040000d f   ZoomingDemo.obj
 0001:fffff00e       __ehhandler$?_Orphan_range_locked@?$vector@PAVDisplayableObject@@V?$allocator@PAVDisplayableObject@@@std@@@std@@ABEXPAPAVDisplayableObject@@0@Z 0040000e f   Attack.obj
 0001:fffff00e       __ehhandler$?_Orphan_range_locked@?$vector@PAVDisplayableObject@@V?$allocator@PAVDisplayableObject@@@std@@@std@@ABEXPAPAVDisplayableObject@@0@Z 0040000e f   BouncingBallMain.obj
 0001:fffff00e       __ehhandler$?_Orphan_range_locked@?$vector@PAVDisplayableObject@@V?$allocator@PAVDisplayableObject@@@std@@@std@@ABEXPAPAVDisplayableObject@@0@Z 0040000e f   Enemy.obj
 0001:fffff00e       __ehhandler$?_Orphan_range_locked@?$vector@PAVDisplayableObject@@V?$allocator@PAVDisplayableObject@@@std@@@std@@ABEXPAPAVDisplayableObject@@0@Z 0040000e f   ImageMappingDemo.obj
 0001:fffff00e       __ehhandler$?_Orphan_range_locked@?$vector@PAVDisplayableObject@@V?$allocator@PAVDisplayableObject@@@std@@@std@@ABEXPAPAVDisplayableObject@@0@Z 0040000e f   MazeDemoMain.obj
 0001:fffff00e       __ehhandler$?_Orphan_range_locked@?$vector@PAVDisplayableObject@@V?$allocator@PAVDisplayableObject@@@std@@@std@@ABEXPAPAVDisplayableObject@@0@Z 0040000e f   RunningState.obj
 0001:fffff00e       __ehhandler$?_Orphan_range_locked@?$vector@PAVDisplayableObject@@V?$allocator@PAVDisplayableObject@@@std@@@std@@ABEXPAPAVDisplayableObject@@0@Z 0040000e f   SimpleDemo.obj
 0001:fffff00e       __ehhandler$??0?$basic_filebuf@DU?$char_traits@D@std@@@std@@QAE@XZ 0040000e f   StartupState.obj
 0001:fffff00e       __ehhandler$?_Orphan_range_locked@?$vector@PAVDisplayableObject@@V?$allocator@PAVDisplayableObject@@@std@@@std@@ABEXPAPAVDisplayableObject@@0@Z 0040000e f   StartupState.obj
 0001:fffff00e       __ehhandler$?_Orphan_range_locked@?$vector@PAVDisplayableObject@@V?$allocator@PAVDisplayableObject@@@std@@@std@@ABEXPAPAVDisplayableObject@@0@Z 0040000e f   WinState.obj
 0001:fffff00e       __ehhandler$?_Orphan_range_locked@?$vector@PAVDisplayableObject@@V?$allocator@PAVDisplayableObject@@@std@@@std@@ABEXPAPAVDisplayableObject@@0@Z 0040000e f   ZoomingDemo.obj
 0002:fffbe010       __ehfuncinfo$??$?0VRawImageData@@$0A@@?$shared_ptr@VRawImageData@@@std@@QAE@PAVRawImageData@@@Z 00400010     Attack.obj
 0002:fffbe010       __ehfuncinfo$?loadAsNew@ImageManager@@QAE?AV?$shared_ptr@VRawImageData@@@std@@V?$basic_string@DU?$char_traits@D@std@@V?$allocator@D@2@@3@@Z 00400010     Attack.obj
 0002:fffbe010       __ehfuncinfo$?loadImage@ImageManager@@SA?AVSimpleImage@@V?$basic_string@DU?$char_traits@D@std@@V?$allocator@D@2@@std@@_N@Z 00400010     Attack.obj
 0002:fffbe010       __tryblocktable$??$?6U?$char_traits@D@std@@@std@@YAAAV?$basic_ostream@DU?$char_traits@D@std@@@0@AAV10@PBD@Z 00400010     Attack.obj
 0002:fffbe010       __tryblocktable$??$_Insert_string@DU?$char_traits@D@std@@I@std@@YAAAV?$basic_ostream@DU?$char_traits@D@std@@@0@AAV10@QBDI@Z 00400010     Attack.obj
 0001:fffff010       __unwindfunclet$?getImagePtrbyURL@ImageManager@@QAE?AV?$shared_ptr@VRawImageData@@@std@@V?$basic_string@DU?$char_traits@D@std@@V?$allocator@D@2@@3@_N1@Z$9 00400010 f   Attack.obj
 0000:00000010       _volmd                     00400010     Attack.obj
 0002:fffbe010       __tryblocktable$??$?6U?$char_traits@D@std@@@std@@YAAAV?$basic_ostream@DU?$char_traits@D@std@@@0@AAV10@PBD@Z 00400010     BouncingBall.obj
 0002:fffbe010       __tryblocktable$??$?6U?$char_traits@D@std@@@std@@YAAAV?$basic_ostream@DU?$char_traits@D@std@@@0@AAV10@PBD@Z 00400010     BouncingBallMain.obj
 0002:fffbe010       __unwindtable$??$_Resize_reallocate@U_Value_init_tag@std@@@?$vector@PAVDisplayableObject@@V?$allocator@PAVDisplayableObject@@@std@@@std@@AAEXIABU_Value_init_tag@1@@Z 00400010     BouncingBallMain.obj
 0002:fffbe010       __tryblocktable$??$?6U?$char_traits@D@std@@@std@@YAAAV?$basic_ostream@DU?$char_traits@D@std@@@0@AAV10@PBD@Z 00400010     DisplayableObject.obj
 0002:fffbe010       __ehfuncinfo$??$?0VRawImageData@@$0A@@?$shared_ptr@VRawImageData@@@std@@QAE@PAVRawImageData@@@Z 00400010     DraggingDemo.obj
 0002:fffbe010       __ehfuncinfo$?loadAsNew@ImageManager@@QAE?AV?$shared_ptr@VRawImageData@@@std@@V?$basic_string@DU?$char_traits@D@std@@V?$allocator@D@2@@3@@Z 00400010     DraggingDemo.obj
 0002:fffbe010       __tryblocktable$??$?6U?$char_traits@D@std@@@std@@YAAAV?$basic_ostream@DU?$char_traits@D@std@@@0@AAV10@PBD@Z 00400010     DraggingDemo.obj
 0002:fffbe010       __tryblocktable$??$_Insert_string@DU?$char_traits@D@std@@I@std@@YAAAV?$basic_ostream@DU?$char_traits@D@std@@@0@AAV10@QBDI@Z 00400010     DraggingDemo.obj
 0001:fffff010       __unwindfunclet$?getImagePtrbyURL@ImageManager@@QAE?AV?$shared_ptr@VRawImageData@@@std@@V?$basic_string@DU?$char_traits@D@std@@V?$allocator@D@2@@3@_N1@Z$9 00400010 f   DraggingDemo.obj
 0002:fffbe010       __tryblocktable$??$?6U?$char_traits@D@std@@@std@@YAAAV?$basic_ostream@DU?$char_traits@D@std@@@0@AAV10@PBD@Z 00400010     DrawingSurface.obj
 0000:00000010       _volmd                     00400010     DrawingSurface.obj
 0002:fffbe010       __ehfuncinfo$??$?0VRawImageData@@$0A@@?$shared_ptr@VRawImageData@@@std@@QAE@PAVRawImageData@@@Z 00400010     Enemy.obj
 0002:fffbe010       __ehfuncinfo$?loadAsNew@ImageManager@@QAE?AV?$shared_ptr@VRawImageData@@@std@@V?$basic_string@DU?$char_traits@D@std@@V?$allocator@D@2@@3@@Z 00400010     Enemy.obj
 0002:fffbe010       __ehfuncinfo$?loadImage@ImageManager@@SA?AVSimpleImage@@V?$basic_string@DU?$char_traits@D@std@@V?$allocator@D@2@@std@@_N@Z 00400010     Enemy.obj
 0002:fffbe010       __tryblocktable$??$?6U?$char_traits@D@std@@@std@@YAAAV?$basic_ostream@DU?$char_traits@D@std@@@0@AAV10@PBD@Z 00400010     Enemy.obj
 0002:fffbe010       __tryblocktable$??$_Insert_string@DU?$char_traits@D@std@@I@std@@YAAAV?$basic_ostream@DU?$char_traits@D@std@@@0@AAV10@QBDI@Z 00400010     Enemy.obj
 0001:fffff010       __unwindfunclet$?getImagePtrbyURL@ImageManager@@QAE?AV?$shared_ptr@VRawImageData@@@std@@V?$basic_string@DU?$char_traits@D@std@@V?$allocator@D@2@@3@_N1@Z$9 00400010 f   Enemy.obj
 0002:fffbe010       __tryblocktable$??$?6U?$char_traits@D@std@@@std@@YAAAV?$basic_ostream@DU?$char_traits@D@std@@@0@AAV10@PBD@Z 00400010     FlashingDemo.obj
 0002:fffbe010       __ehfuncinfo$??$?0VRawImageData@@$0A@@?$shared_ptr@VRawImageData@@@std@@QAE@PAVRawImageData@@@Z 00400010     ImageMappingDemo.obj
 0002:fffbe010       __ehfuncinfo$?loadAsNew@ImageManager@@QAE?AV?$shared_ptr@VRawImageData@@@std@@V?$basic_string@DU?$char_traits@D@std@@V?$allocator@D@2@@3@@Z 00400010     ImageMappingDemo.obj
 0002:fffbe010       __tryblocktable$??$?6U?$char_traits@D@std@@@std@@YAAAV?$basic_ostream@DU?$char_traits@D@std@@@0@AAV10@PBD@Z 00400010     ImageMappingDemo.obj
 0002:fffbe010       __tryblocktable$??$_Insert_string@DU?$char_traits@D@std@@I@std@@YAAAV?$basic_ostream@DU?$char_traits@D@std@@@0@AAV10@QBDI@Z 00400010     ImageMappingDemo.obj
 0001:fffff010       __unwindfunclet$??0DragableImageObject@@QAE@HHPAVBaseEngine@@V?$basic_string@DU?$char_traits@D@std@@V?$allocator@D@2@@std@@_N2@Z$2 00400010 f   ImageMappingDemo.obj
 0001:fffff010       __unwindfunclet$?getImagePtrbyURL@ImageManager@@QAE?AV?$shared_ptr@VRawImageData@@@std@@V?$basic_string@DU?$char_traits@D@std@@V?$allocator@D@2@@3@_N1@Z$9 00400010 f   ImageMappingDemo.obj
 0002:fffbe010       __unwindtable$??$_Resize_reallocate@U_Value_init_tag@std@@@?$vector@PAVDisplayableObject@@V?$allocator@PAVDisplayableObject@@@std@@@std@@AAEXIABU_Value_init_tag@1@@Z 00400010     ImageMappingDemo.obj
 0002:fffbe010       __ehfuncinfo$??$?0VRawImageData@@$0A@@?$shared_ptr@VRawImageData@@@std@@QAE@PAVRawImageData@@@Z 00400010     LoseState.obj
 0002:fffbe010       __ehfuncinfo$?loadAsNew@ImageManager@@QAE?AV?$shared_ptr@VRawImageData@@@std@@V?$basic_string@DU?$char_traits@D@std@@V?$allocator@D@2@@3@@Z 00400010     LoseState.obj
 0002:fffbe010       __ehfuncinfo$?loadImage@ImageManager@@SA?AVSimpleImage@@V?$basic_string@DU?$char_traits@D@std@@V?$allocator@D@2@@std@@_N@Z 00400010     LoseState.obj
 0002:fffbe010       __tryblocktable$??$?6U?$char_traits@D@std@@@std@@YAAAV?$basic_ostream@DU?$char_traits@D@std@@@0@AAV10@PBD@Z 00400010     LoseState.obj
 0002:fffbe010       __tryblocktable$??$_Insert_string@DU?$char_traits@D@std@@I@std@@YAAAV?$basic_ostream@DU?$char_traits@D@std@@@0@AAV10@QBDI@Z 00400010     LoseState.obj
 0001:fffff010       __unwindfunclet$?getImagePtrbyURL@ImageManager@@QAE?AV?$shared_ptr@VRawImageData@@@std@@V?$basic_string@DU?$char_traits@D@std@@V?$allocator@D@2@@3@_N1@Z$9 00400010 f   LoseState.obj
 0000:00000010       _volmd                     00400010     MST.obj
 0002:fffbe010       __unwindtable$??$_Resize_reallocate@U_Value_init_tag@std@@@?$vector@PAVDisplayableObject@@V?$allocator@PAVDisplayableObject@@@std@@@std@@AAEXIABU_Value_init_tag@1@@Z 00400010     MazeDemoMain.obj
 0002:fffbe010       __ehfuncinfo$??$?0VRawImageData@@$0A@@?$shared_ptr@VRawImageData@@@std@@QAE@PAVRawImageData@@@Z 00400010     NumberTiles.obj
 0002:fffbe010       __ehfuncinfo$?loadAsNew@ImageManager@@QAE?AV?$shared_ptr@VRawImageData@@@std@@V?$basic_string@DU?$char_traits@D@std@@V?$allocator@D@2@@3@@Z 00400010     NumberTiles.obj
 0002:fffbe010       __ehfuncinfo$?loadImage@ImageManager@@SA?AVSimpleImage@@V?$basic_string@DU?$char_traits@D@std@@V?$allocator@D@2@@std@@_N@Z 00400010     NumberTiles.obj
 0002:fffbe010       __tryblocktable$??$?6U?$char_traits@D@std@@@std@@YAAAV?$basic_ostream@DU?$char_traits@D@std@@@0@AAV10@PBD@Z 00400010     NumberTiles.obj
 0002:fffbe010       __tryblocktable$??$_Insert_string@DU?$char_traits@D@std@@I@std@@YAAAV?$basic_ostream@DU?$char_traits@D@std@@@0@AAV10@QBDI@Z 00400010     NumberTiles.obj
 0001:fffff010       __unwindfunclet$?getImagePtrbyURL@ImageManager@@QAE?AV?$shared_ptr@VRawImageData@@@std@@V?$basic_string@DU?$char_traits@D@std@@V?$allocator@D@2@@3@_N1@Z$9 00400010 f   NumberTiles.obj
 0000:00000010       _volmd                     00400010     NumberTiles.obj
 0002:fffbe010       __ehfuncinfo$??$?0VRawImageData@@$0A@@?$shared_ptr@VRawImageData@@@std@@QAE@PAVRawImageData@@@Z 00400010     Player.obj
 0002:fffbe010       __ehfuncinfo$?loadAsNew@ImageManager@@QAE?AV?$shared_ptr@VRawImageData@@@std@@V?$basic_string@DU?$char_traits@D@std@@V?$allocator@D@2@@3@@Z 00400010     Player.obj
 0002:fffbe010       __ehfuncinfo$?loadImage@ImageManager@@SA?AVSimpleImage@@V?$basic_string@DU?$char_traits@D@std@@V?$allocator@D@2@@std@@_N@Z 00400010     Player.obj
 0002:fffbe010       __tryblocktable$??$?6U?$char_traits@D@std@@@std@@YAAAV?$basic_ostream@DU?$char_traits@D@std@@@0@AAV10@PBD@Z 00400010     Player.obj
 0002:fffbe010       __tryblocktable$??$_Insert_string@DU?$char_traits@D@std@@I@std@@YAAAV?$basic_ostream@DU?$char_traits@D@std@@@0@AAV10@QBDI@Z 00400010     Player.obj
 0001:fffff010       __unwindfunclet$?getImagePtrbyURL@ImageManager@@QAE?AV?$shared_ptr@VRawImageData@@@std@@V?$basic_string@DU?$char_traits@D@std@@V?$allocator@D@2@@3@_N1@Z$9 00400010 f   Player.obj
 0000:00000010       _volmd                     00400010     Player.obj
 0002:fffbe010       __ehfuncinfo$??$?0VRawImageData@@$0A@@?$shared_ptr@VRawImageData@@@std@@QAE@PAVRawImageData@@@Z 00400010     RunningState.obj
 0002:fffbe010       __ehfuncinfo$?loadAsNew@ImageManager@@QAE?AV?$shared_ptr@VRawImageData@@@std@@V?$basic_string@DU?$char_traits@D@std@@V?$allocator@D@2@@3@@Z 00400010     RunningState.obj
 0002:fffbe010       __ehfuncinfo$?loadImage@ImageManager@@SA?AVSimpleImage@@V?$basic_string@DU?$char_traits@D@std@@V?$allocator@D@2@@std@@_N@Z 00400010     RunningState.obj
 0002:fffbe010       __tryblocktable$??$?6U?$char_traits@D@std@@@std@@YAAAV?$basic_ostream@DU?$char_traits@D@std@@@0@AAV10@PBD@Z 00400010     RunningState.obj
 0002:fffbe010       __tryblocktable$??$_Insert_string@DU?$char_traits@D@std@@I@std@@YAAAV?$basic_ostream@DU?$char_traits@D@std@@@0@AAV10@QBDI@Z 00400010     RunningState.obj
 0001:fffff010       __unwindfunclet$?getImagePtrbyURL@ImageManager@@QAE?AV?$shared_ptr@VRawImageData@@@std@@V?$basic_string@DU?$char_traits@D@std@@V?$allocator@D@2@@3@_N1@Z$9 00400010 f   RunningState.obj
 0002:fffbe010       __unwindtable$??$_Emplace_reallocate@ABQAVDisplayableObject@@@?$vector@PAVDisplayableObject@@V?$allocator@PAVDisplayableObject@@@std@@@std@@AAEPAPAVDisplayableObject@@QAPAV2@ABQAV2@@Z 00400010     RunningState.obj
 0002:fffbe010       __unwindtable$??$_Resize_reallocate@U_Value_init_tag@std@@@?$vector@PAVDisplayableObject@@V?$allocator@PAVDisplayableObject@@@std@@@std@@AAEXIABU_Value_init_tag@1@@Z 00400010     RunningState.obj
 0002:fffbe010       __tryblocktable$??$?6U?$char_traits@D@std@@@std@@YAAAV?$basic_ostream@DU?$char_traits@D@std@@@0@AAV10@PBD@Z 00400010     SimpleDemo.obj
 0002:fffbe010       __unwindtable$??$_Emplace_reallocate@ABQAVDisplayableObject@@@?$vector@PAVDisplayableObject@@V?$allocator@PAVDisplayableObject@@@std@@@std@@AAEPAPAVDisplayableObject@@QAPAV2@ABQAV2@@Z 00400010     SimpleDemo.obj
 0002:fffbe010       __unwindtable$??$_Resize_reallocate@U_Value_init_tag@std@@@?$vector@PAVDisplayableObject@@V?$allocator@PAVDisplayableObject@@@std@@@std@@AAEXIABU_Value_init_tag@1@@Z 00400010     SimpleDemo.obj
 0002:fffbe010       __tryblocktable$??$?6U?$char_traits@D@std@@@std@@YAAAV?$basic_ostream@DU?$char_traits@D@std@@@0@AAV10@PBD@Z 00400010     SimpleImage.obj
 0002:fffbe010       __tryblocktable$??$?6U?$char_traits@D@std@@@std@@YAAAV?$basic_ostream@DU?$char_traits@D@std@@@0@AAV10@PBD@Z 00400010     StarfieldDemo.obj
 0002:fffbe010       __ehfuncinfo$??$?0VRawImageData@@$0A@@?$shared_ptr@VRawImageData@@@std@@QAE@PAVRawImageData@@@Z 00400010     StartupState.obj
 0002:fffbe010       __ehfuncinfo$??$use_facet@V?$codecvt@DDU_Mbstatet@@@std@@@std@@YAABV?$codecvt@DDU_Mbstatet@@@0@ABVlocale@0@@Z 00400010     StartupState.obj
 0002:fffbe010       __ehfuncinfo$??0?$basic_ofstream@DU?$char_traits@D@std@@@std@@QAE@XZ 00400010     StartupState.obj
 0002:fffbe010       __ehfuncinfo$?loadAsNew@ImageManager@@QAE?AV?$shared_ptr@VRawImageData@@@std@@V?$basic_string@DU?$char_traits@D@std@@V?$allocator@D@2@@3@@Z 00400010     StartupState.obj
 0002:fffbe010       __ehfuncinfo$?loadImage@ImageManager@@SA?AVSimpleImage@@V?$basic_string@DU?$char_traits@D@std@@V?$allocator@D@2@@std@@_N@Z 00400010     StartupState.obj
 0002:fffbe010       __tryblocktable$??$?6U?$char_traits@D@std@@@std@@YAAAV?$basic_ostream@DU?$char_traits@D@std@@@0@AAV10@PBD@Z 00400010     StartupState.obj
 0002:fffbe010       __tryblocktable$??$_Insert_string@DU?$char_traits@D@std@@I@std@@YAAAV?$basic_ostream@DU?$char_traits@D@std@@@0@AAV10@QBDI@Z 00400010     StartupState.obj
 0001:fffff010       __unwindfunclet$?getImagePtrbyURL@ImageManager@@QAE?AV?$shared_ptr@VRawImageData@@@std@@V?$basic_string@DU?$char_traits@D@std@@V?$allocator@D@2@@3@_N1@Z$9 00400010 f   StartupState.obj
 0002:fffbe010       __unwindtable$??$_Resize_reallocate@U_Value_init_tag@std@@@?$vector@PAVDisplayableObject@@V?$allocator@PAVDisplayableObject@@@std@@@std@@AAEXIABU_Value_init_tag@1@@Z 00400010     StartupState.obj
 0002:fffbe010       __ehfuncinfo$??$?0VRawImageData@@$0A@@?$shared_ptr@VRawImageData@@@std@@QAE@PAVRawImageData@@@Z 00400010     WinState.obj
 0002:fffbe010       __ehfuncinfo$?loadAsNew@ImageManager@@QAE?AV?$shared_ptr@VRawImageData@@@std@@V?$basic_string@DU?$char_traits@D@std@@V?$allocator@D@2@@3@@Z 00400010     WinState.obj
 0002:fffbe010       __ehfuncinfo$?loadImage@ImageManager@@SA?AVSimpleImage@@V?$basic_string@DU?$char_traits@D@std@@V?$allocator@D@2@@std@@_N@Z 00400010     WinState.obj
 0002:fffbe010       __tryblocktable$??$?6U?$char_traits@D@std@@@std@@YAAAV?$basic_ostream@DU?$char_traits@D@std@@@0@AAV10@PBD@Z 00400010     WinState.obj
 0002:fffbe010       __tryblocktable$??$_Insert_string@DU?$char_traits@D@std@@I@std@@YAAAV?$basic_ostream@DU?$char_traits@D@std@@@0@AAV10@QBDI@Z 00400010     WinState.obj
 0001:fffff010       __unwindfunclet$?getImagePtrbyURL@ImageManager@@QAE?AV?$shared_ptr@VRawImageData@@@std@@V?$basic_string@DU?$char_traits@D@std@@V?$allocator@D@2@@3@_N1@Z$9 00400010 f   WinState.obj
 0002:fffbe010       __unwindtable$??$_Emplace_reallocate@ABQAVDisplayableObject@@@?$vector@PAVDisplayableObject@@V?$allocator@PAVDisplayableObject@@@std@@@std@@AAEPAPAVDisplayableObject@@QAPAV2@ABQAV2@@Z 00400010     WinState.obj
 0002:fffbe010       __unwindtable$??$_Resize_reallocate@U_Value_init_tag@std@@@?$vector@PAVDisplayableObject@@V?$allocator@PAVDisplayableObject@@@std@@@std@@AAEXIABU_Value_init_tag@1@@Z 00400010     WinState.obj
 0002:fffbe010       __tryblocktable$??$?6U?$char_traits@D@std@@@std@@YAAAV?$basic_ostream@DU?$char_traits@D@std@@@0@AAV10@PBD@Z 00400010     ZoomPoints.obj
 0002:fffbe010       __ehfuncinfo$??$?0VRawImageData@@$0A@@?$shared_ptr@VRawImageData@@@std@@QAE@PAVRawImageData@@@Z 00400010     ZoomingDemo.obj
 0002:fffbe010       __ehfuncinfo$?loadAsNew@ImageManager@@QAE?AV?$shared_ptr@VRawImageData@@@std@@V?$basic_string@DU?$char_traits@D@std@@V?$allocator@D@2@@3@@Z 00400010     ZoomingDemo.obj
 0002:fffbe010       __tryblocktable$??$?6U?$char_traits@D@std@@@std@@YAAAV?$basic_ostream@DU?$char_traits@D@std@@@0@AAV10@PBD@Z 00400010     ZoomingDemo.obj
 0002:fffbe010       __tryblocktable$??$_Insert_string@DU?$char_traits@D@std@@I@std@@YAAAV?$basic_ostream@DU?$char_traits@D@std@@@0@AAV10@QBDI@Z 00400010     ZoomingDemo.obj
 0001:fffff010       __unwindfunclet$??0DragableImageObject@@QAE@HHPAVBaseEngine@@V?$basic_string@DU?$char_traits@D@std@@V?$allocator@D@2@@std@@_N2@Z$2 00400010 f   ZoomingDemo.obj
 0001:fffff010       __unwindfunclet$?getImagePtrbyURL@ImageManager@@QAE?AV?$shared_ptr@VRawImageData@@@std@@V?$basic_string@DU?$char_traits@D@std@@V?$allocator@D@2@@3@_N1@Z$9 00400010 f   ZoomingDemo.obj
 0002:fffbe010       __unwindtable$??$_Resize_reallocate@U_Value_init_tag@std@@@?$vector@PAVDisplayableObject@@V?$allocator@PAVDisplayableObject@@@std@@@std@@AAEXIABU_Value_init_tag@1@@Z 00400010     ZoomingDemo.obj
 0000:00000010       _volmd                     00400010     mainfunction.obj
 0001:fffff014       __ehhandler$?get@ImageManager@@SAPAV1@XZ 00400014 f   Attack.obj
 0001:fffff014       __ehhandler$?get@ImageManager@@SAPAV1@XZ 00400014 f   DraggingDemo.obj
 0001:fffff014       __ehhandler$?get@ImageManager@@SAPAV1@XZ 00400014 f   Enemy.obj
 0001:fffff014       __ehhandler$?get@ImageManager@@SAPAV1@XZ 00400014 f   ImageMappingDemo.obj
 0001:fffff014       __ehhandler$?get@ImageManager@@SAPAV1@XZ 00400014 f   LoseState.obj
 0001:fffff014       __ehhandler$?get@ImageManager@@SAPAV1@XZ 00400014 f   NumberTiles.obj
 0001:fffff014       __ehhandler$?get@ImageManager@@SAPAV1@XZ 00400014 f   Player.obj
 0001:fffff014       __ehhandler$?get@ImageManager@@SAPAV1@XZ 00400014 f   RunningState.obj
 0001:fffff014       __ehhandler$?get@ImageManager@@SAPAV1@XZ 00400014 f   StartupState.obj
 0001:fffff014       __ehhandler$?get@ImageManager@@SAPAV1@XZ 00400014 f   WinState.obj
 0001:fffff014       __ehhandler$?get@ImageManager@@SAPAV1@XZ 00400014 f   ZoomingDemo.obj
 0001:fffff015       __ehhandler$?loadImage@ImageManager@@SA?AVSimpleImage@@V?$basic_string@DU?$char_traits@D@std@@V?$allocator@D@2@@std@@_N@Z 00400015 f   Attack.obj
 0001:fffff015       __ehhandler$?loadImage@ImageManager@@SA?AVSimpleImage@@V?$basic_string@DU?$char_traits@D@std@@V?$allocator@D@2@@std@@_N@Z 00400015 f   Enemy.obj
 0001:fffff015       __ehhandler$?loadImage@ImageManager@@SA?AVSimpleImage@@V?$basic_string@DU?$char_traits@D@std@@V?$allocator@D@2@@std@@_N@Z 00400015 f   LoseState.obj
 0001:fffff015       __ehhandler$?loadImage@ImageManager@@SA?AVSimpleImage@@V?$basic_string@DU?$char_traits@D@std@@V?$allocator@D@2@@std@@_N@Z 00400015 f   NumberTiles.obj
 0001:fffff015       __ehhandler$?loadImage@ImageManager@@SA?AVSimpleImage@@V?$basic_string@DU?$char_traits@D@std@@V?$allocator@D@2@@std@@_N@Z 00400015 f   Player.obj
 0001:fffff015       __ehhandler$?loadImage@ImageManager@@SA?AVSimpleImage@@V?$basic_string@DU?$char_traits@D@std@@V?$allocator@D@2@@std@@_N@Z 00400015 f   RunningState.obj
 0001:fffff015       __ehhandler$?loadImage@ImageManager@@SA?AVSimpleImage@@V?$basic_string@DU?$char_traits@D@std@@V?$allocator@D@2@@std@@_N@Z 00400015 f   StartupState.obj
 0001:fffff015       __ehhandler$?loadImage@ImageManager@@SA?AVSimpleImage@@V?$basic_string@DU?$char_traits@D@std@@V?$allocator@D@2@@std@@_N@Z 00400015 f   WinState.obj
 0001:fffff016       __ehhandler$??$use_facet@V?$codecvt@DDU_Mbstatet@@@std@@@std@@YAABV?$codecvt@DDU_Mbstatet@@@0@ABVlocale@0@@Z 00400016 f   StartupState.obj
 0001:fffff018       __unwindfunclet$?getImagePtrbyURL@ImageManager@@QAE?AV?$shared_ptr@VRawImageData@@@std@@V?$basic_string@DU?$char_traits@D@std@@V?$allocator@D@2@@3@_N1@Z$10 00400018 f   Attack.obj
 0000:00000018       _volmd                     00400018     BaseEngine.obj
 0001:fffff018       __unwindfunclet$?getImagePtrbyURL@ImageManager@@QAE?AV?$shared_ptr@VRawImageData@@@std@@V?$basic_string@DU?$char_traits@D@std@@V?$allocator@D@2@@3@_N1@Z$10 00400018 f   DraggingDemo.obj
 0001:fffff018       __unwindfunclet$?getImagePtrbyURL@ImageManager@@QAE?AV?$shared_ptr@VRawImageData@@@std@@V?$basic_string@DU?$char_traits@D@std@@V?$allocator@D@2@@3@_N1@Z$10 00400018 f   Enemy.obj
 0001:fffff018       __unwindfunclet$??0DragableImageObject@@QAE@HHPAVBaseEngine@@V?$basic_string@DU?$char_traits@D@std@@V?$allocator@D@2@@std@@_N2@Z$3 00400018 f   ImageMappingDemo.obj
 0001:fffff018       __unwindfunclet$?getImagePtrbyURL@ImageManager@@QAE?AV?$shared_ptr@VRawImageData@@@std@@V?$basic_string@DU?$char_traits@D@std@@V?$allocator@D@2@@3@_N1@Z$10 00400018 f   ImageMappingDemo.obj
 0001:fffff018       __unwindfunclet$?getImagePtrbyURL@ImageManager@@QAE?AV?$shared_ptr@VRawImageData@@@std@@V?$basic_string@DU?$char_traits@D@std@@V?$allocator@D@2@@3@_N1@Z$10 00400018 f   LoseState.obj
 0000:00000018       _volmd                     00400018     LoseState.obj
 0000:00000018       _volmd                     00400018     MazeDemoMain.obj
 0001:fffff018       __unwindfunclet$?getImagePtrbyURL@ImageManager@@QAE?AV?$shared_ptr@VRawImageData@@@std@@V?$basic_string@DU?$char_traits@D@std@@V?$allocator@D@2@@3@_N1@Z$10 00400018 f   NumberTiles.obj
 0001:fffff018       __unwindfunclet$?getImagePtrbyURL@ImageManager@@QAE?AV?$shared_ptr@VRawImageData@@@std@@V?$basic_string@DU?$char_traits@D@std@@V?$allocator@D@2@@3@_N1@Z$10 00400018 f   Player.obj
 0001:fffff018       __unwindfunclet$?getImagePtrbyURL@ImageManager@@QAE?AV?$shared_ptr@VRawImageData@@@std@@V?$basic_string@DU?$char_traits@D@std@@V?$allocator@D@2@@3@_N1@Z$10 00400018 f   RunningState.obj
 0000:00000018       _volmd                     00400018     RunningState.obj
 0001:fffff018       __unwindfunclet$?getImagePtrbyURL@ImageManager@@QAE?AV?$shared_ptr@VRawImageData@@@std@@V?$basic_string@DU?$char_traits@D@std@@V?$allocator@D@2@@3@_N1@Z$10 00400018 f   StartupState.obj
 0000:00000018       _volmd                     00400018     StartupState.obj
 0001:fffff018       __unwindfunclet$?getImagePtrbyURL@ImageManager@@QAE?AV?$shared_ptr@VRawImageData@@@std@@V?$basic_string@DU?$char_traits@D@std@@V?$allocator@D@2@@3@_N1@Z$10 00400018 f   WinState.obj
 0000:00000018       _volmd                     00400018     WinState.obj
 0001:fffff018       __unwindfunclet$??0DragableImageObject@@QAE@HHPAVBaseEngine@@V?$basic_string@DU?$char_traits@D@std@@V?$allocator@D@2@@std@@_N2@Z$3 00400018 f   ZoomingDemo.obj
 0001:fffff018       __unwindfunclet$?getImagePtrbyURL@ImageManager@@QAE?AV?$shared_ptr@VRawImageData@@@std@@V?$basic_string@DU?$char_traits@D@std@@V?$allocator@D@2@@3@_N1@Z$10 00400018 f   ZoomingDemo.obj
 0001:fffff01c       __ehhandler$??$?0VRawImageData@@$0A@@?$shared_ptr@VRawImageData@@@std@@QAE@PAVRawImageData@@@Z 0040001c f   Attack.obj
 0001:fffff01c       __ehhandler$?loadAsNew@ImageManager@@QAE?AV?$shared_ptr@VRawImageData@@@std@@V?$basic_string@DU?$char_traits@D@std@@V?$allocator@D@2@@3@@Z 0040001c f   Attack.obj
 0001:fffff01c       __ehhandler$??$?0VRawImageData@@$0A@@?$shared_ptr@VRawImageData@@@std@@QAE@PAVRawImageData@@@Z 0040001c f   DraggingDemo.obj
 0001:fffff01c       __ehhandler$?loadAsNew@ImageManager@@QAE?AV?$shared_ptr@VRawImageData@@@std@@V?$basic_string@DU?$char_traits@D@std@@V?$allocator@D@2@@3@@Z 0040001c f   DraggingDemo.obj
 0001:fffff01c       __ehhandler$??$?0VRawImageData@@$0A@@?$shared_ptr@VRawImageData@@@std@@QAE@PAVRawImageData@@@Z 0040001c f   Enemy.obj
 0001:fffff01c       __ehhandler$?loadAsNew@ImageManager@@QAE?AV?$shared_ptr@VRawImageData@@@std@@V?$basic_string@DU?$char_traits@D@std@@V?$allocator@D@2@@3@@Z 0040001c f   Enemy.obj
 0000:0000001c       _volmd                     0040001c     Enemy.obj
 0001:fffff01c       __ehhandler$??$?0VRawImageData@@$0A@@?$shared_ptr@VRawImageData@@@std@@QAE@PAVRawImageData@@@Z 0040001c f   ImageMappingDemo.obj
 0001:fffff01c       __ehhandler$?loadAsNew@ImageManager@@QAE?AV?$shared_ptr@VRawImageData@@@std@@V?$basic_string@DU?$char_traits@D@std@@V?$allocator@D@2@@3@@Z 0040001c f   ImageMappingDemo.obj
 0001:fffff01c       __ehhandler$??$?0VRawImageData@@$0A@@?$shared_ptr@VRawImageData@@@std@@QAE@PAVRawImageData@@@Z 0040001c f   LoseState.obj
 0001:fffff01c       __ehhandler$?loadAsNew@ImageManager@@QAE?AV?$shared_ptr@VRawImageData@@@std@@V?$basic_string@DU?$char_traits@D@std@@V?$allocator@D@2@@3@@Z 0040001c f   LoseState.obj
 0001:fffff01c       __ehhandler$??$?0VRawImageData@@$0A@@?$shared_ptr@VRawImageData@@@std@@QAE@PAVRawImageData@@@Z 0040001c f   NumberTiles.obj
 0001:fffff01c       __ehhandler$?loadAsNew@ImageManager@@QAE?AV?$shared_ptr@VRawImageData@@@std@@V?$basic_string@DU?$char_traits@D@std@@V?$allocator@D@2@@3@@Z 0040001c f   NumberTiles.obj
 0001:fffff01c       __ehhandler$??$?0VRawImageData@@$0A@@?$shared_ptr@VRawImageData@@@std@@QAE@PAVRawImageData@@@Z 0040001c f   Player.obj
 0001:fffff01c       __ehhandler$?loadAsNew@ImageManager@@QAE?AV?$shared_ptr@VRawImageData@@@std@@V?$basic_string@DU?$char_traits@D@std@@V?$allocator@D@2@@3@@Z 0040001c f   Player.obj
 0001:fffff01c       __ehhandler$??$?0VRawImageData@@$0A@@?$shared_ptr@VRawImageData@@@std@@QAE@PAVRawImageData@@@Z 0040001c f   RunningState.obj
 0001:fffff01c       __ehhandler$?loadAsNew@ImageManager@@QAE?AV?$shared_ptr@VRawImageData@@@std@@V?$basic_string@DU?$char_traits@D@std@@V?$allocator@D@2@@3@@Z 0040001c f   RunningState.obj
 0000:0000001c       _volmd                     0040001c     SimpleDemo.obj
 0001:fffff01c       __ehhandler$??$?0VRawImageData@@$0A@@?$shared_ptr@VRawImageData@@@std@@QAE@PAVRawImageData@@@Z 0040001c f   StartupState.obj
 0001:fffff01c       __ehhandler$?loadAsNew@ImageManager@@QAE?AV?$shared_ptr@VRawImageData@@@std@@V?$basic_string@DU?$char_traits@D@std@@V?$allocator@D@2@@3@@Z 0040001c f   StartupState.obj
 0001:fffff01c       __ehhandler$??$?0VRawImageData@@$0A@@?$shared_ptr@VRawImageData@@@std@@QAE@PAVRawImageData@@@Z 0040001c f   WinState.obj
 0001:fffff01c       __ehhandler$?loadAsNew@ImageManager@@QAE?AV?$shared_ptr@VRawImageData@@@std@@V?$basic_string@DU?$char_traits@D@std@@V?$allocator@D@2@@3@@Z 0040001c f   WinState.obj
 0001:fffff01c       __ehhandler$??$?0VRawImageData@@$0A@@?$shared_ptr@VRawImageData@@@std@@QAE@PAVRawImageData@@@Z 0040001c f   ZoomingDemo.obj
 0001:fffff01c       __ehhandler$?loadAsNew@ImageManager@@QAE?AV?$shared_ptr@VRawImageData@@@std@@V?$basic_string@DU?$char_traits@D@std@@V?$allocator@D@2@@3@@Z 0040001c f   ZoomingDemo.obj
 0000:0000001c       _volmd                     0040001c     ZoomingDemo.obj
 0001:fffff01d       __unwindfunclet$??0?$basic_ofstream@DU?$char_traits@D@std@@@std@@QAE@XZ$1 0040001d f   StartupState.obj
 0002:fffbe020       __tryblocktable$??$_Resize_reallocate@U_Value_init_tag@std@@@?$vector@PAVDisplayableObject@@V?$allocator@PAVDisplayableObject@@@std@@@std@@AAEXIABU_Value_init_tag@1@@Z 00400020     BouncingBallMain.obj
 0000:00000020       _volmd                     00400020     DrawingSurface.obj
 0002:fffbe020       __ehfuncinfo$??0DragableImageObject@@QAE@HHPAVBaseEngine@@V?$basic_string@DU?$char_traits@D@std@@V?$allocator@D@2@@std@@_N2@Z 00400020     ImageMappingDemo.obj
 0002:fffbe020       __tryblocktable$??$_Resize_reallocate@U_Value_init_tag@std@@@?$vector@PAVDisplayableObject@@V?$allocator@PAVDisplayableObject@@@std@@@std@@AAEXIABU_Value_init_tag@1@@Z 00400020     ImageMappingDemo.obj
 0000:00000020       _volmd                     00400020     MST.obj
 0002:fffbe020       __tryblocktable$??$_Resize_reallocate@U_Value_init_tag@std@@@?$vector@PAVDisplayableObject@@V?$allocator@PAVDisplayableObject@@@std@@@std@@AAEXIABU_Value_init_tag@1@@Z 00400020     MazeDemoMain.obj
 0002:fffbe020       __tryblocktable$??$_Emplace_reallocate@ABQAVDisplayableObject@@@?$vector@PAVDisplayableObject@@V?$allocator@PAVDisplayableObject@@@std@@@std@@AAEPAPAVDisplayableObject@@QAPAV2@ABQAV2@@Z 00400020     RunningState.obj
 0002:fffbe020       __tryblocktable$??$_Resize_reallocate@U_Value_init_tag@std@@@?$vector@PAVDisplayableObject@@V?$allocator@PAVDisplayableObject@@@std@@@std@@AAEXIABU_Value_init_tag@1@@Z 00400020     RunningState.obj
 0002:fffbe020       __tryblocktable$??$_Emplace_reallocate@ABQAVDisplayableObject@@@?$vector@PAVDisplayableObject@@V?$allocator@PAVDisplayableObject@@@std@@@std@@AAEPAPAVDisplayableObject@@QAPAV2@ABQAV2@@Z 00400020     SimpleDemo.obj
 0002:fffbe020       __tryblocktable$??$_Resize_reallocate@U_Value_init_tag@std@@@?$vector@PAVDisplayableObject@@V?$allocator@PAVDisplayableObject@@@std@@@std@@AAEXIABU_Value_init_tag@1@@Z 00400020     SimpleDemo.obj
 0002:fffbe020       __tryblocktable$??$_Resize_reallocate@U_Value_init_tag@std@@@?$vector@PAVDisplayableObject@@V?$allocator@PAVDisplayableObject@@@std@@@std@@AAEXIABU_Value_init_tag@1@@Z 00400020     StartupState.obj
 0002:fffbe020       __tryblocktable$??$_Emplace_reallocate@ABQAVDisplayableObject@@@?$vector@PAVDisplayableObject@@V?$allocator@PAVDisplayableObject@@@std@@@std@@AAEPAPAVDisplayableObject@@QAPAV2@ABQAV2@@Z 00400020     WinState.obj
 0002:fffbe020       __tryblocktable$??$_Resize_reallocate@U_Value_init_tag@std@@@?$vector@PAVDisplayableObject@@V?$allocator@PAVDisplayableObject@@@std@@@std@@AAEXIABU_Value_init_tag@1@@Z 00400020     WinState.obj
 0002:fffbe020       __ehfuncinfo$??0DragableImageObject@@QAE@HHPAVBaseEngine@@V?$basic_string@DU?$char_traits@D@std@@V?$allocator@D@2@@std@@_N2@Z 00400020     ZoomingDemo.obj
 0002:fffbe020       __tryblocktable$??$_Resize_reallocate@U_Value_init_tag@std@@@?$vector@PAVDisplayableObject@@V?$allocator@PAVDisplayableObject@@@std@@@std@@AAEXIABU_Value_init_tag@1@@Z 00400020     ZoomingDemo.obj
 0001:fffff023       __unwindfunclet$?getImagePtrbyURL@ImageManager@@QAE?AV?$shared_ptr@VRawImageData@@@std@@V?$basic_string@DU?$char_traits@D@std@@V?$allocator@D@2@@3@_N1@Z$11 00400023 f   Attack.obj
 0001:fffff023       __unwindfunclet$?getImagePtrbyURL@ImageManager@@QAE?AV?$shared_ptr@VRawImageData@@@std@@V?$basic_string@DU?$char_traits@D@std@@V?$allocator@D@2@@3@_N1@Z$11 00400023 f   DraggingDemo.obj
 0001:fffff023       __unwindfunclet$?getImagePtrbyURL@ImageManager@@QAE?AV?$shared_ptr@VRawImageData@@@std@@V?$basic_string@DU?$char_traits@D@std@@V?$allocator@D@2@@3@_N1@Z$11 00400023 f   Enemy.obj
 0001:fffff023       __unwindfunclet$?getImagePtrbyURL@ImageManager@@QAE?AV?$shared_ptr@VRawImageData@@@std@@V?$basic_string@DU?$char_traits@D@std@@V?$allocator@D@2@@3@_N1@Z$11 00400023 f   ImageMappingDemo.obj
 0001:fffff023       __unwindfunclet$?getImagePtrbyURL@ImageManager@@QAE?AV?$shared_ptr@VRawImageData@@@std@@V?$basic_string@DU?$char_traits@D@std@@V?$allocator@D@2@@3@_N1@Z$11 00400023 f   LoseState.obj
 0001:fffff023       __unwindfunclet$?getImagePtrbyURL@ImageManager@@QAE?AV?$shared_ptr@VRawImageData@@@std@@V?$basic_string@DU?$char_traits@D@std@@V?$allocator@D@2@@3@_N1@Z$11 00400023 f   NumberTiles.obj
 0001:fffff023       __unwindfunclet$?getImagePtrbyURL@ImageManager@@QAE?AV?$shared_ptr@VRawImageData@@@std@@V?$basic_string@DU?$char_traits@D@std@@V?$allocator@D@2@@3@_N1@Z$11 00400023 f   Player.obj
 0001:fffff023       __unwindfunclet$?getImagePtrbyURL@ImageManager@@QAE?AV?$shared_ptr@VRawImageData@@@std@@V?$basic_string@DU?$char_traits@D@std@@V?$allocator@D@2@@3@_N1@Z$11 00400023 f   RunningState.obj
 0001:fffff023       __unwindfunclet$?getImagePtrbyURL@ImageManager@@QAE?AV?$shared_ptr@VRawImageData@@@std@@V?$basic_string@DU?$char_traits@D@std@@V?$allocator@D@2@@3@_N1@Z$11 00400023 f   StartupState.obj
 0001:fffff023       __unwindfunclet$?getImagePtrbyURL@ImageManager@@QAE?AV?$shared_ptr@VRawImageData@@@std@@V?$basic_string@DU?$char_traits@D@std@@V?$allocator@D@2@@3@_N1@Z$11 00400023 f   WinState.obj
 0001:fffff023       __unwindfunclet$?getImagePtrbyURL@ImageManager@@QAE?AV?$shared_ptr@VRawImageData@@@std@@V?$basic_string@DU?$char_traits@D@std@@V?$allocator@D@2@@3@_N1@Z$11 00400023 f   ZoomingDemo.obj
 0002:fffbe024       __unwindtable$??$?6U?$char_traits@D@std@@@std@@YAAAV?$basic_ostream@DU?$char_traits@D@std@@@0@AAV10@PBD@Z 00400024     Attack.obj
 0002:fffbe024       __unwindtable$??$_Insert_string@DU?$char_traits@D@std@@I@std@@YAAAV?$basic_ostream@DU?$char_traits@D@std@@@0@AAV10@QBDI@Z 00400024     Attack.obj
 0002:fffbe024       __unwindtable$?getImagePtrbyURL@ImageManager@@QAE?AV?$shared_ptr@VRawImageData@@@std@@V?$basic_string@DU?$char_traits@D@std@@V?$allocator@D@2@@3@_N1@Z 00400024     Attack.obj
 0000:00000024       _volmd                     00400024     BaseEngine.obj
 0002:fffbe024       __unwindtable$??$?6U?$char_traits@D@std@@@std@@YAAAV?$basic_ostream@DU?$char_traits@D@std@@@0@AAV10@PBD@Z 00400024     BouncingBall.obj
 0002:fffbe024       __unwindtable$??$?6U?$char_traits@D@std@@@std@@YAAAV?$basic_ostream@DU?$char_traits@D@std@@@0@AAV10@PBD@Z 00400024     BouncingBallMain.obj
 0002:fffbe024       __unwindtable$??$?6U?$char_traits@D@std@@@std@@YAAAV?$basic_ostream@DU?$char_traits@D@std@@@0@AAV10@PBD@Z 00400024     DisplayableObject.obj
 0002:fffbe024       __unwindtable$??$?6U?$char_traits@D@std@@@std@@YAAAV?$basic_ostream@DU?$char_traits@D@std@@@0@AAV10@PBD@Z 00400024     DraggingDemo.obj
 0002:fffbe024       __unwindtable$??$_Insert_string@DU?$char_traits@D@std@@I@std@@YAAAV?$basic_ostream@DU?$char_traits@D@std@@@0@AAV10@QBDI@Z 00400024     DraggingDemo.obj
 0002:fffbe024       __unwindtable$?getImagePtrbyURL@ImageManager@@QAE?AV?$shared_ptr@VRawImageData@@@std@@V?$basic_string@DU?$char_traits@D@std@@V?$allocator@D@2@@3@_N1@Z 00400024     DraggingDemo.obj
 0002:fffbe024       __unwindtable$??$?6U?$char_traits@D@std@@@std@@YAAAV?$basic_ostream@DU?$char_traits@D@std@@@0@AAV10@PBD@Z 00400024     DrawingSurface.obj
 0002:fffbe024       __unwindtable$??$?6U?$char_traits@D@std@@@std@@YAAAV?$basic_ostream@DU?$char_traits@D@std@@@0@AAV10@PBD@Z 00400024     Enemy.obj
 0002:fffbe024       __unwindtable$??$_Insert_string@DU?$char_traits@D@std@@I@std@@YAAAV?$basic_ostream@DU?$char_traits@D@std@@@0@AAV10@QBDI@Z 00400024     Enemy.obj
 0002:fffbe024       __unwindtable$?getImagePtrbyURL@ImageManager@@QAE?AV?$shared_ptr@VRawImageData@@@std@@V?$basic_string@DU?$char_traits@D@std@@V?$allocator@D@2@@3@_N1@Z 00400024     Enemy.obj
 0002:fffbe024       __unwindtable$??$?6U?$char_traits@D@std@@@std@@YAAAV?$basic_ostream@DU?$char_traits@D@std@@@0@AAV10@PBD@Z 00400024     FlashingDemo.obj
 0002:fffbe024       __unwindtable$??$?6U?$char_traits@D@std@@@std@@YAAAV?$basic_ostream@DU?$char_traits@D@std@@@0@AAV10@PBD@Z 00400024     ImageMappingDemo.obj
 0002:fffbe024       __unwindtable$??$_Insert_string@DU?$char_traits@D@std@@I@std@@YAAAV?$basic_ostream@DU?$char_traits@D@std@@@0@AAV10@QBDI@Z 00400024     ImageMappingDemo.obj
 0002:fffbe024       __unwindtable$?getImagePtrbyURL@ImageManager@@QAE?AV?$shared_ptr@VRawImageData@@@std@@V?$basic_string@DU?$char_traits@D@std@@V?$allocator@D@2@@3@_N1@Z 00400024     ImageMappingDemo.obj
 0002:fffbe024       __unwindtable$??$?6U?$char_traits@D@std@@@std@@YAAAV?$basic_ostream@DU?$char_traits@D@std@@@0@AAV10@PBD@Z 00400024     LoseState.obj
 0002:fffbe024       __unwindtable$??$_Insert_string@DU?$char_traits@D@std@@I@std@@YAAAV?$basic_ostream@DU?$char_traits@D@std@@@0@AAV10@QBDI@Z 00400024     LoseState.obj
 0002:fffbe024       __unwindtable$?getImagePtrbyURL@ImageManager@@QAE?AV?$shared_ptr@VRawImageData@@@std@@V?$basic_string@DU?$char_traits@D@std@@V?$allocator@D@2@@3@_N1@Z 00400024     LoseState.obj
 0002:fffbe024       __unwindtable$??$?6U?$char_traits@D@std@@@std@@YAAAV?$basic_ostream@DU?$char_traits@D@std@@@0@AAV10@PBD@Z 00400024     NumberTiles.obj
 0002:fffbe024       __unwindtable$??$_Insert_string@DU?$char_traits@D@std@@I@std@@YAAAV?$basic_ostream@DU?$char_traits@D@std@@@0@AAV10@QBDI@Z 00400024     NumberTiles.obj
 0002:fffbe024       __unwindtable$?getImagePtrbyURL@ImageManager@@QAE?AV?$shared_ptr@VRawImageData@@@std@@V?$basic_string@DU?$char_traits@D@std@@V?$allocator@D@2@@3@_N1@Z 00400024     NumberTiles.obj
 0002:fffbe024       __unwindtable$??$?6U?$char_traits@D@std@@@std@@YAAAV?$basic_ostream@DU?$char_traits@D@std@@@0@AAV10@PBD@Z 00400024     Player.obj
 0002:fffbe024       __unwindtable$??$_Insert_string@DU?$char_traits@D@std@@I@std@@YAAAV?$basic_ostream@DU?$char_traits@D@std@@@0@AAV10@QBDI@Z 00400024     Player.obj
 0002:fffbe024       __unwindtable$?getImagePtrbyURL@ImageManager@@QAE?AV?$shared_ptr@VRawImageData@@@std@@V?$basic_string@DU?$char_traits@D@std@@V?$allocator@D@2@@3@_N1@Z 00400024     Player.obj
 0002:fffbe024       __unwindtable$??$?6U?$char_traits@D@std@@@std@@YAAAV?$basic_ostream@DU?$char_traits@D@std@@@0@AAV10@PBD@Z 00400024     RunningState.obj
 0002:fffbe024       __unwindtable$??$_Insert_string@DU?$char_traits@D@std@@I@std@@YAAAV?$basic_ostream@DU?$char_traits@D@std@@@0@AAV10@QBDI@Z 00400024     RunningState.obj
 0002:fffbe024       __unwindtable$?getImagePtrbyURL@ImageManager@@QAE?AV?$shared_ptr@VRawImageData@@@std@@V?$basic_string@DU?$char_traits@D@std@@V?$allocator@D@2@@3@_N1@Z 00400024     RunningState.obj
 0000:00000024       _volmd                     00400024     RunningState.obj
 0002:fffbe024       __unwindtable$??$?6U?$char_traits@D@std@@@std@@YAAAV?$basic_ostream@DU?$char_traits@D@std@@@0@AAV10@PBD@Z 00400024     SimpleDemo.obj
 0002:fffbe024       __unwindtable$??$?6U?$char_traits@D@std@@@std@@YAAAV?$basic_ostream@DU?$char_traits@D@std@@@0@AAV10@PBD@Z 00400024     SimpleImage.obj
 0002:fffbe024       __unwindtable$??$?6U?$char_traits@D@std@@@std@@YAAAV?$basic_ostream@DU?$char_traits@D@std@@@0@AAV10@PBD@Z 00400024     StarfieldDemo.obj
 0002:fffbe024       __unwindtable$??$?6U?$char_traits@D@std@@@std@@YAAAV?$basic_ostream@DU?$char_traits@D@std@@@0@AAV10@PBD@Z 00400024     StartupState.obj
 0002:fffbe024       __unwindtable$??$_Insert_string@DU?$char_traits@D@std@@I@std@@YAAAV?$basic_ostream@DU?$char_traits@D@std@@@0@AAV10@QBDI@Z 00400024     StartupState.obj
 0002:fffbe024       __unwindtable$?getImagePtrbyURL@ImageManager@@QAE?AV?$shared_ptr@VRawImageData@@@std@@V?$basic_string@DU?$char_traits@D@std@@V?$allocator@D@2@@3@_N1@Z 00400024     StartupState.obj
 0000:00000024       _volmd                     00400024     StartupState.obj
 0002:fffbe024       __unwindtable$??$?6U?$char_traits@D@std@@@std@@YAAAV?$basic_ostream@DU?$char_traits@D@std@@@0@AAV10@PBD@Z 00400024     WinState.obj
 0002:fffbe024       __unwindtable$??$_Insert_string@DU?$char_traits@D@std@@I@std@@YAAAV?$basic_ostream@DU?$char_traits@D@std@@@0@AAV10@QBDI@Z 00400024     WinState.obj
 0002:fffbe024       __unwindtable$?getImagePtrbyURL@ImageManager@@QAE?AV?$shared_ptr@VRawImageData@@@std@@V?$basic_string@DU?$char_traits@D@std@@V?$allocator@D@2@@3@_N1@Z 00400024     WinState.obj
 0002:fffbe024       __unwindtable$??$?6U?$char_traits@D@std@@@std@@YAAAV?$basic_ostream@DU?$char_traits@D@std@@@0@AAV10@PBD@Z 00400024     ZoomPoints.obj
 0002:fffbe024       __unwindtable$??$?6U?$char_traits@D@std@@@std@@YAAAV?$basic_ostream@DU?$char_traits@D@std@@@0@AAV10@PBD@Z 00400024     ZoomingDemo.obj
 0002:fffbe024       __unwindtable$??$_Insert_string@DU?$char_traits@D@std@@I@std@@YAAAV?$basic_ostream@DU?$char_traits@D@std@@@0@AAV10@QBDI@Z 00400024     ZoomingDemo.obj
 0002:fffbe024       __unwindtable$?getImagePtrbyURL@ImageManager@@QAE?AV?$shared_ptr@VRawImageData@@@std@@V?$basic_string@DU?$char_traits@D@std@@V?$allocator@D@2@@3@_N1@Z 00400024     ZoomingDemo.obj
 0001:fffff028       __ehhandler$??0DragableImageObject@@QAE@HHPAVBaseEngine@@V?$basic_string@DU?$char_traits@D@std@@V?$allocator@D@2@@std@@_N2@Z 00400028 f   ImageMappingDemo.obj
 0001:fffff028       __ehhandler$??0DragableImageObject@@QAE@HHPAVBaseEngine@@V?$basic_string@DU?$char_traits@D@std@@V?$allocator@D@2@@std@@_N2@Z 00400028 f   ZoomingDemo.obj
 0001:fffff02b       __unwindfunclet$?getImagePtrbyURL@ImageManager@@QAE?AV?$shared_ptr@VRawImageData@@@std@@V?$basic_string@DU?$char_traits@D@std@@V?$allocator@D@2@@3@_N1@Z$13 0040002b f   Attack.obj
 0001:fffff02b       __unwindfunclet$?getImagePtrbyURL@ImageManager@@QAE?AV?$shared_ptr@VRawImageData@@@std@@V?$basic_string@DU?$char_traits@D@std@@V?$allocator@D@2@@3@_N1@Z$13 0040002b f   DraggingDemo.obj
 0001:fffff02b       __unwindfunclet$?getImagePtrbyURL@ImageManager@@QAE?AV?$shared_ptr@VRawImageData@@@std@@V?$basic_string@DU?$char_traits@D@std@@V?$allocator@D@2@@3@_N1@Z$13 0040002b f   Enemy.obj
 0001:fffff02b       __unwindfunclet$?getImagePtrbyURL@ImageManager@@QAE?AV?$shared_ptr@VRawImageData@@@std@@V?$basic_string@DU?$char_traits@D@std@@V?$allocator@D@2@@3@_N1@Z$13 0040002b f   ImageMappingDemo.obj
 0001:fffff02b       __unwindfunclet$?getImagePtrbyURL@ImageManager@@QAE?AV?$shared_ptr@VRawImageData@@@std@@V?$basic_string@DU?$char_traits@D@std@@V?$allocator@D@2@@3@_N1@Z$13 0040002b f   LoseState.obj
 0001:fffff02b       __unwindfunclet$?getImagePtrbyURL@ImageManager@@QAE?AV?$shared_ptr@VRawImageData@@@std@@V?$basic_string@DU?$char_traits@D@std@@V?$allocator@D@2@@3@_N1@Z$13 0040002b f   NumberTiles.obj
 0001:fffff02b       __unwindfunclet$?getImagePtrbyURL@ImageManager@@QAE?AV?$shared_ptr@VRawImageData@@@std@@V?$basic_string@DU?$char_traits@D@std@@V?$allocator@D@2@@3@_N1@Z$13 0040002b f   Player.obj
 0001:fffff02b       __unwindfunclet$?getImagePtrbyURL@ImageManager@@QAE?AV?$shared_ptr@VRawImageData@@@std@@V?$basic_string@DU?$char_traits@D@std@@V?$allocator@D@2@@3@_N1@Z$13 0040002b f   RunningState.obj
 0001:fffff02b       __unwindfunclet$?getImagePtrbyURL@ImageManager@@QAE?AV?$shared_ptr@VRawImageData@@@std@@V?$basic_string@DU?$char_traits@D@std@@V?$allocator@D@2@@3@_N1@Z$13 0040002b f   StartupState.obj
 0001:fffff02b       __unwindfunclet$?getImagePtrbyURL@ImageManager@@QAE?AV?$shared_ptr@VRawImageData@@@std@@V?$basic_string@DU?$char_traits@D@std@@V?$allocator@D@2@@3@_N1@Z$13 0040002b f   WinState.obj
 0001:fffff02b       __unwindfunclet$?getImagePtrbyURL@ImageManager@@QAE?AV?$shared_ptr@VRawImageData@@@std@@V?$basic_string@DU?$char_traits@D@std@@V?$allocator@D@2@@3@_N1@Z$13 0040002b f   ZoomingDemo.obj
 0001:fffff02e       __ehhandler$??0?$basic_ofstream@DU?$char_traits@D@std@@@std@@QAE@XZ 0040002e f   StartupState.obj
 0000:00000030       _volmd                     00400030     MST.obj
 0002:fffbe034       __ehfuncinfo$??$_Resize_reallocate@U_Value_init_tag@std@@@?$vector@PAVDisplayableObject@@V?$allocator@PAVDisplayableObject@@@std@@@std@@AAEXIABU_Value_init_tag@1@@Z 00400034     BouncingBallMain.obj
 0002:fffbe034       __ehfuncinfo$??$_Resize_reallocate@U_Value_init_tag@std@@@?$vector@PAVDisplayableObject@@V?$allocator@PAVDisplayableObject@@@std@@@std@@AAEXIABU_Value_init_tag@1@@Z 00400034     ImageMappingDemo.obj
 0002:fffbe034       __ehfuncinfo$??$_Resize_reallocate@U_Value_init_tag@std@@@?$vector@PAVDisplayableObject@@V?$allocator@PAVDisplayableObject@@@std@@@std@@AAEXIABU_Value_init_tag@1@@Z 00400034     MazeDemoMain.obj
 0002:fffbe034       __ehfuncinfo$??$_Emplace_reallocate@ABQAVDisplayableObject@@@?$vector@PAVDisplayableObject@@V?$allocator@PAVDisplayableObject@@@std@@@std@@AAEPAPAVDisplayableObject@@QAPAV2@ABQAV2@@Z 00400034     RunningState.obj
 0002:fffbe034       __ehfuncinfo$??$_Resize_reallocate@U_Value_init_tag@std@@@?$vector@PAVDisplayableObject@@V?$allocator@PAVDisplayableObject@@@std@@@std@@AAEXIABU_Value_init_tag@1@@Z 00400034     RunningState.obj
 0000:00000034       _volmd                     00400034     RunningState.obj
 0002:fffbe034       __ehfuncinfo$??$_Emplace_reallocate@ABQAVDisplayableObject@@@?$vector@PAVDisplayableObject@@V?$allocator@PAVDisplayableObject@@@std@@@std@@AAEPAPAVDisplayableObject@@QAPAV2@ABQAV2@@Z 00400034     SimpleDemo.obj
 0002:fffbe034       __ehfuncinfo$??$_Resize_reallocate@U_Value_init_tag@std@@@?$vector@PAVDisplayableObject@@V?$allocator@PAVDisplayableObject@@@std@@@std@@AAEXIABU_Value_init_tag@1@@Z 00400034     SimpleDemo.obj
 0002:fffbe034       __ehfuncinfo$??$_Resize_reallocate@U_Value_init_tag@std@@@?$vector@PAVDisplayableObject@@V?$allocator@PAVDisplayableObject@@@std@@@std@@AAEXIABU_Value_init_tag@1@@Z 00400034     StartupState.obj
 0000:00000034       _volmd                     00400034     StartupState.obj
 0002:fffbe034       __ehfuncinfo$??$_Emplace_reallocate@ABQAVDisplayableObject@@@?$vector@PAVDisplayableObject@@V?$allocator@PAVDisplayableObject@@@std@@@std@@AAEPAPAVDisplayableObject@@QAPAV2@ABQAV2@@Z 00400034     WinState.obj
 0002:fffbe034       __ehfuncinfo$??$_Resize_reallocate@U_Value_init_tag@std@@@?$vector@PAVDisplayableObject@@V?$allocator@PAVDisplayableObject@@@std@@@std@@AAEXIABU_Value_init_tag@1@@Z 00400034     WinState.obj
 0002:fffbe034       __ehfuncinfo$??$_Resize_reallocate@U_Value_init_tag@std@@@?$vector@PAVDisplayableObject@@V?$allocator@PAVDisplayableObject@@@std@@@std@@AAEXIABU_Value_init_tag@1@@Z 00400034     ZoomingDemo.obj
 0001:fffff038       __ehhandler$?getImagePtrbyURL@ImageManager@@QAE?AV?$shared_ptr@VRawImageData@@@std@@V?$basic_string@DU?$char_traits@D@std@@V?$allocator@D@2@@3@_N1@Z 00400038 f   Attack.obj
 0001:fffff038       __ehhandler$?getImagePtrbyURL@ImageManager@@QAE?AV?$shared_ptr@VRawImageData@@@std@@V?$basic_string@DU?$char_traits@D@std@@V?$allocator@D@2@@3@_N1@Z 00400038 f   DraggingDemo.obj
 0001:fffff038       __ehhandler$?getImagePtrbyURL@ImageManager@@QAE?AV?$shared_ptr@VRawImageData@@@std@@V?$basic_string@DU?$char_traits@D@std@@V?$allocator@D@2@@3@_N1@Z 00400038 f   Enemy.obj
 0001:fffff038       __ehhandler$?getImagePtrbyURL@ImageManager@@QAE?AV?$shared_ptr@VRawImageData@@@std@@V?$basic_string@DU?$char_traits@D@std@@V?$allocator@D@2@@3@_N1@Z 00400038 f   ImageMappingDemo.obj
 0001:fffff038       __ehhandler$?getImagePtrbyURL@ImageManager@@QAE?AV?$shared_ptr@VRawImageData@@@std@@V?$basic_string@DU?$char_traits@D@std@@V?$allocator@D@2@@3@_N1@Z 00400038 f   LoseState.obj
 0001:fffff038       __ehhandler$?getImagePtrbyURL@ImageManager@@QAE?AV?$shared_ptr@VRawImageData@@@std@@V?$basic_string@DU?$char_traits@D@std@@V?$allocator@D@2@@3@_N1@Z 00400038 f   NumberTiles.obj
 0001:fffff038       __ehhandler$?getImagePtrbyURL@ImageManager@@QAE?AV?$shared_ptr@VRawImageData@@@std@@V?$basic_string@DU?$char_traits@D@std@@V?$allocator@D@2@@3@_N1@Z 00400038 f   Player.obj
 0001:fffff038       __ehhandler$?getImagePtrbyURL@ImageManager@@QAE?AV?$shared_ptr@VRawImageData@@@std@@V?$basic_string@DU?$char_traits@D@std@@V?$allocator@D@2@@3@_N1@Z 00400038 f   RunningState.obj
 0001:fffff038       __ehhandler$?getImagePtrbyURL@ImageManager@@QAE?AV?$shared_ptr@VRawImageData@@@std@@V?$basic_string@DU?$char_traits@D@std@@V?$allocator@D@2@@3@_N1@Z 00400038 f   StartupState.obj
 0001:fffff038       __ehhandler$?getImagePtrbyURL@ImageManager@@QAE?AV?$shared_ptr@VRawImageData@@@std@@V?$basic_string@DU?$char_traits@D@std@@V?$allocator@D@2@@3@_N1@Z 00400038 f   WinState.obj
 0001:fffff038       __ehhandler$?getImagePtrbyURL@ImageManager@@QAE?AV?$shared_ptr@VRawImageData@@@std@@V?$basic_string@DU?$char_traits@D@std@@V?$allocator@D@2@@3@_N1@Z 00400038 f   ZoomingDemo.obj
 0002:fffbe03c       __ehfuncinfo$??$?6U?$char_traits@D@std@@@std@@YAAAV?$basic_ostream@DU?$char_traits@D@std@@@0@AAV10@PBD@Z 0040003c     Attack.obj
 0002:fffbe03c       __ehfuncinfo$??$_Insert_string@DU?$char_traits@D@std@@I@std@@YAAAV?$basic_ostream@DU?$char_traits@D@std@@@0@AAV10@QBDI@Z 0040003c     Attack.obj
 0002:fffbe03c       __ehfuncinfo$??$?6U?$char_traits@D@std@@@std@@YAAAV?$basic_ostream@DU?$char_traits@D@std@@@0@AAV10@PBD@Z 0040003c     BouncingBall.obj
 0002:fffbe03c       __ehfuncinfo$??$?6U?$char_traits@D@std@@@std@@YAAAV?$basic_ostream@DU?$char_traits@D@std@@@0@AAV10@PBD@Z 0040003c     BouncingBallMain.obj
 0002:fffbe03c       __ehfuncinfo$??$?6U?$char_traits@D@std@@@std@@YAAAV?$basic_ostream@DU?$char_traits@D@std@@@0@AAV10@PBD@Z 0040003c     DisplayableObject.obj
 0002:fffbe03c       __ehfuncinfo$??$?6U?$char_traits@D@std@@@std@@YAAAV?$basic_ostream@DU?$char_traits@D@std@@@0@AAV10@PBD@Z 0040003c     DraggingDemo.obj
 0002:fffbe03c       __ehfuncinfo$??$_Insert_string@DU?$char_traits@D@std@@I@std@@YAAAV?$basic_ostream@DU?$char_traits@D@std@@@0@AAV10@QBDI@Z 0040003c     DraggingDemo.obj
 0002:fffbe03c       __ehfuncinfo$??$?6U?$char_traits@D@std@@@std@@YAAAV?$basic_ostream@DU?$char_traits@D@std@@@0@AAV10@PBD@Z 0040003c     DrawingSurface.obj
 0002:fffbe03c       __ehfuncinfo$??$?6U?$char_traits@D@std@@@std@@YAAAV?$basic_ostream@DU?$char_traits@D@std@@@0@AAV10@PBD@Z 0040003c     Enemy.obj
 0002:fffbe03c       __ehfuncinfo$??$_Insert_string@DU?$char_traits@D@std@@I@std@@YAAAV?$basic_ostream@DU?$char_traits@D@std@@@0@AAV10@QBDI@Z 0040003c     Enemy.obj
 0002:fffbe03c       __ehfuncinfo$??$?6U?$char_traits@D@std@@@std@@YAAAV?$basic_ostream@DU?$char_traits@D@std@@@0@AAV10@PBD@Z 0040003c     FlashingDemo.obj
 0002:fffbe03c       __ehfuncinfo$??$?6U?$char_traits@D@std@@@std@@YAAAV?$basic_ostream@DU?$char_traits@D@std@@@0@AAV10@PBD@Z 0040003c     ImageMappingDemo.obj
 0002:fffbe03c       __ehfuncinfo$??$_Insert_string@DU?$char_traits@D@std@@I@std@@YAAAV?$basic_ostream@DU?$char_traits@D@std@@@0@AAV10@QBDI@Z 0040003c     ImageMappingDemo.obj
 0002:fffbe03c       __ehfuncinfo$??$?6U?$char_traits@D@std@@@std@@YAAAV?$basic_ostream@DU?$char_traits@D@std@@@0@AAV10@PBD@Z 0040003c     LoseState.obj
 0002:fffbe03c       __ehfuncinfo$??$_Insert_string@DU?$char_traits@D@std@@I@std@@YAAAV?$basic_ostream@DU?$char_traits@D@std@@@0@AAV10@QBDI@Z 0040003c     LoseState.obj
 0002:fffbe03c       __ehfuncinfo$??$?6U?$char_traits@D@std@@@std@@YAAAV?$basic_ostream@DU?$char_traits@D@std@@@0@AAV10@PBD@Z 0040003c     NumberTiles.obj
 0002:fffbe03c       __ehfuncinfo$??$_Insert_string@DU?$char_traits@D@std@@I@std@@YAAAV?$basic_ostream@DU?$char_traits@D@std@@@0@AAV10@QBDI@Z 0040003c     NumberTiles.obj
 0002:fffbe03c       __ehfuncinfo$??$?6U?$char_traits@D@std@@@std@@YAAAV?$basic_ostream@DU?$char_traits@D@std@@@0@AAV10@PBD@Z 0040003c     Player.obj
 0002:fffbe03c       __ehfuncinfo$??$_Insert_string@DU?$char_traits@D@std@@I@std@@YAAAV?$basic_ostream@DU?$char_traits@D@std@@@0@AAV10@QBDI@Z 0040003c     Player.obj
 0002:fffbe03c       __ehfuncinfo$??$?6U?$char_traits@D@std@@@std@@YAAAV?$basic_ostream@DU?$char_traits@D@std@@@0@AAV10@PBD@Z 0040003c     RunningState.obj
 0002:fffbe03c       __ehfuncinfo$??$_Insert_string@DU?$char_traits@D@std@@I@std@@YAAAV?$basic_ostream@DU?$char_traits@D@std@@@0@AAV10@QBDI@Z 0040003c     RunningState.obj
 0002:fffbe03c       __ehfuncinfo$??$?6U?$char_traits@D@std@@@std@@YAAAV?$basic_ostream@DU?$char_traits@D@std@@@0@AAV10@PBD@Z 0040003c     SimpleDemo.obj
 0002:fffbe03c       __ehfuncinfo$??$?6U?$char_traits@D@std@@@std@@YAAAV?$basic_ostream@DU?$char_traits@D@std@@@0@AAV10@PBD@Z 0040003c     SimpleImage.obj
 0002:fffbe03c       __ehfuncinfo$??$?6U?$char_traits@D@std@@@std@@YAAAV?$basic_ostream@DU?$char_traits@D@std@@@0@AAV10@PBD@Z 0040003c     StarfieldDemo.obj
 0002:fffbe03c       __ehfuncinfo$??$?6U?$char_traits@D@std@@@std@@YAAAV?$basic_ostream@DU?$char_traits@D@std@@@0@AAV10@PBD@Z 0040003c     StartupState.obj
 0002:fffbe03c       __ehfuncinfo$??$_Insert_string@DU?$char_traits@D@std@@I@std@@YAAAV?$basic_ostream@DU?$char_traits@D@std@@@0@AAV10@QBDI@Z 0040003c     StartupState.obj
 0002:fffbe03c       __ehfuncinfo$??$?6U?$char_traits@D@std@@@std@@YAAAV?$basic_ostream@DU?$char_traits@D@std@@@0@AAV10@PBD@Z 0040003c     WinState.obj
 0002:fffbe03c       __ehfuncinfo$??$_Insert_string@DU?$char_traits@D@std@@I@std@@YAAAV?$basic_ostream@DU?$char_traits@D@std@@@0@AAV10@QBDI@Z 0040003c     WinState.obj
 0002:fffbe03c       __ehfuncinfo$??$?6U?$char_traits@D@std@@@std@@YAAAV?$basic_ostream@DU?$char_traits@D@std@@@0@AAV10@PBD@Z 0040003c     ZoomPoints.obj
 0002:fffbe03c       __ehfuncinfo$??$?6U?$char_traits@D@std@@@std@@YAAAV?$basic_ostream@DU?$char_traits@D@std@@@0@AAV10@PBD@Z 0040003c     ZoomingDemo.obj
 0002:fffbe03c       __ehfuncinfo$??$_Insert_string@DU?$char_traits@D@std@@I@std@@YAAAV?$basic_ostream@DU?$char_traits@D@std@@@0@AAV10@QBDI@Z 0040003c     ZoomingDemo.obj
 0000:00000044       _volmd                     00400044     StartupState.obj
 0001:fffff0e9       __catch$??$_Resize_reallocate@U_Value_init_tag@std@@@?$vector@PAVDisplayableObject@@V?$allocator@PAVDisplayableObject@@@std@@@std@@AAEXIABU_Value_init_tag@1@@Z$0 004000e9 f   BouncingBallMain.obj
 0001:fffff0e9       __catch$??$_Resize_reallocate@U_Value_init_tag@std@@@?$vector@PAVDisplayableObject@@V?$allocator@PAVDisplayableObject@@@std@@@std@@AAEXIABU_Value_init_tag@1@@Z$0 004000e9 f   ImageMappingDemo.obj
 0001:fffff0e9       __catch$??$_Resize_reallocate@U_Value_init_tag@std@@@?$vector@PAVDisplayableObject@@V?$allocator@PAVDisplayableObject@@@std@@@std@@AAEXIABU_Value_init_tag@1@@Z$0 004000e9 f   MazeDemoMain.obj
 0001:fffff0e9       __catch$??$_Resize_reallocate@U_Value_init_tag@std@@@?$vector@PAVDisplayableObject@@V?$allocator@PAVDisplayableObject@@@std@@@std@@AAEXIABU_Value_init_tag@1@@Z$0 004000e9 f   RunningState.obj
 0001:fffff0e9       __catch$??$_Resize_reallocate@U_Value_init_tag@std@@@?$vector@PAVDisplayableObject@@V?$allocator@PAVDisplayableObject@@@std@@@std@@AAEXIABU_Value_init_tag@1@@Z$0 004000e9 f   SimpleDemo.obj
 0001:fffff0e9       __catch$??$_Resize_reallocate@U_Value_init_tag@std@@@?$vector@PAVDisplayableObject@@V?$allocator@PAVDisplayableObject@@@std@@@std@@AAEXIABU_Value_init_tag@1@@Z$0 004000e9 f   StartupState.obj
 0001:fffff0e9       __catch$??$_Resize_reallocate@U_Value_init_tag@std@@@?$vector@PAVDisplayableObject@@V?$allocator@PAVDisplayableObject@@@std@@@std@@AAEXIABU_Value_init_tag@1@@Z$0 004000e9 f   WinState.obj
 0001:fffff0e9       __catch$??$_Resize_reallocate@U_Value_init_tag@std@@@?$vector@PAVDisplayableObject@@V?$allocator@PAVDisplayableObject@@@std@@@std@@AAEXIABU_Value_init_tag@1@@Z$0 004000e9 f   ZoomingDemo.obj
 0001:fffff166       __catch$??$_Emplace_reallocate@ABQAVDisplayableObject@@@?$vector@PAVDisplayableObject@@V?$allocator@PAVDisplayableObject@@@std@@@std@@AAEPAPAVDisplayableObject@@QAPAV2@ABQAV2@@Z$0 00400166 f   RunningState.obj
 0001:fffff166       __catch$??$_Emplace_reallocate@ABQAVDisplayableObject@@@?$vector@PAVDisplayableObject@@V?$allocator@PAVDisplayableObject@@@std@@@std@@AAEPAPAVDisplayableObject@@QAPAV2@ABQAV2@@Z$0 00400166 f   SimpleDemo.obj
 0001:fffff166       __catch$??$_Emplace_reallocate@ABQAVDisplayableObject@@@?$vector@PAVDisplayableObject@@V?$allocator@PAVDisplayableObject@@@std@@@std@@AAEPAPAVDisplayableObject@@QAPAV2@ABQAV2@@Z$0 00400166 f   WinState.obj
 0001:fffff25f       __catch$??$_Insert_string@DU?$char_traits@D@std@@I@std@@YAAAV?$basic_ostream@DU?$char_traits@D@std@@@0@AAV10@QBDI@Z$0 0040025f f   Attack.obj
 0001:fffff25f       __catch$??$_Insert_string@DU?$char_traits@D@std@@I@std@@YAAAV?$basic_ostream@DU?$char_traits@D@std@@@0@AAV10@QBDI@Z$0 0040025f f   DraggingDemo.obj
 0001:fffff25f       __catch$??$_Insert_string@DU?$char_traits@D@std@@I@std@@YAAAV?$basic_ostream@DU?$char_traits@D@std@@@0@AAV10@QBDI@Z$0 0040025f f   Enemy.obj
 0001:fffff25f       __catch$??$_Insert_string@DU?$char_traits@D@std@@I@std@@YAAAV?$basic_ostream@DU?$char_traits@D@std@@@0@AAV10@QBDI@Z$0 0040025f f   ImageMappingDemo.obj
 0001:fffff25f       __catch$??$_Insert_string@DU?$char_traits@D@std@@I@std@@YAAAV?$basic_ostream@DU?$char_traits@D@std@@@0@AAV10@QBDI@Z$0 0040025f f   LoseState.obj
 0001:fffff25f       __catch$??$_Insert_string@DU?$char_traits@D@std@@I@std@@YAAAV?$basic_ostream@DU?$char_traits@D@std@@@0@AAV10@QBDI@Z$0 0040025f f   NumberTiles.obj
 0001:fffff25f       __catch$??$_Insert_string@DU?$char_traits@D@std@@I@std@@YAAAV?$basic_ostream@DU?$char_traits@D@std@@@0@AAV10@QBDI@Z$0 0040025f f   Player.obj
 0001:fffff25f       __catch$??$_Insert_string@DU?$char_traits@D@std@@I@std@@YAAAV?$basic_ostream@DU?$char_traits@D@std@@@0@AAV10@QBDI@Z$0 0040025f f   RunningState.obj
 0001:fffff25f       __catch$??$_Insert_string@DU?$char_traits@D@std@@I@std@@YAAAV?$basic_ostream@DU?$char_traits@D@std@@@0@AAV10@QBDI@Z$0 0040025f f   StartupState.obj
 0001:fffff25f       __catch$??$_Insert_string@DU?$char_traits@D@std@@I@std@@YAAAV?$basic_ostream@DU?$char_traits@D@std@@@0@AAV10@QBDI@Z$0 0040025f f   WinState.obj
 0001:fffff25f       __catch$??$_Insert_string@DU?$char_traits@D@std@@I@std@@YAAAV?$basic_ostream@DU?$char_traits@D@std@@@0@AAV10@QBDI@Z$0 0040025f f   ZoomingDemo.obj
 0001:fffff2ba       __catch$??$?6U?$char_traits@D@std@@@std@@YAAAV?$basic_ostream@DU?$char_traits@D@std@@@0@AAV10@PBD@Z$0 004002ba f   Attack.obj
 0001:fffff2ba       __catch$??$?6U?$char_traits@D@std@@@std@@YAAAV?$basic_ostream@DU?$char_traits@D@std@@@0@AAV10@PBD@Z$0 004002ba f   BouncingBall.obj
 0001:fffff2ba       __catch$??$?6U?$char_traits@D@std@@@std@@YAAAV?$basic_ostream@DU?$char_traits@D@std@@@0@AAV10@PBD@Z$0 004002ba f   BouncingBallMain.obj
 0001:fffff2ba       __catch$??$?6U?$char_traits@D@std@@@std@@YAAAV?$basic_ostream@DU?$char_traits@D@std@@@0@AAV10@PBD@Z$0 004002ba f   DisplayableObject.obj
 0001:fffff2ba       __catch$??$?6U?$char_traits@D@std@@@std@@YAAAV?$basic_ostream@DU?$char_traits@D@std@@@0@AAV10@PBD@Z$0 004002ba f   DraggingDemo.obj
 0001:fffff2ba       __catch$??$?6U?$char_traits@D@std@@@std@@YAAAV?$basic_ostream@DU?$char_traits@D@std@@@0@AAV10@PBD@Z$0 004002ba f   DrawingSurface.obj
 0001:fffff2ba       __catch$??$?6U?$char_traits@D@std@@@std@@YAAAV?$basic_ostream@DU?$char_traits@D@std@@@0@AAV10@PBD@Z$0 004002ba f   Enemy.obj
 0001:fffff2ba       __catch$??$?6U?$char_traits@D@std@@@std@@YAAAV?$basic_ostream@DU?$char_traits@D@std@@@0@AAV10@PBD@Z$0 004002ba f   FlashingDemo.obj
 0001:fffff2ba       __catch$??$?6U?$char_traits@D@std@@@std@@YAAAV?$basic_ostream@DU?$char_traits@D@std@@@0@AAV10@PBD@Z$0 004002ba f   ImageMappingDemo.obj
 0001:fffff2ba       __catch$??$?6U?$char_traits@D@std@@@std@@YAAAV?$basic_ostream@DU?$char_traits@D@std@@@0@AAV10@PBD@Z$0 004002ba f   LoseState.obj
 0001:fffff2ba       __catch$??$?6U?$char_traits@D@std@@@std@@YAAAV?$basic_ostream@DU?$char_traits@D@std@@@0@AAV10@PBD@Z$0 004002ba f   NumberTiles.obj
 0001:fffff2ba       __catch$??$?6U?$char_traits@D@std@@@std@@YAAAV?$basic_ostream@DU?$char_traits@D@std@@@0@AAV10@PBD@Z$0 004002ba f   Player.obj
 0001:fffff2ba       __catch$??$?6U?$char_traits@D@std@@@std@@YAAAV?$basic_ostream@DU?$char_traits@D@std@@@0@AAV10@PBD@Z$0 004002ba f   RunningState.obj
 0001:fffff2ba       __catch$??$?6U?$char_traits@D@std@@@std@@YAAAV?$basic_ostream@DU?$char_traits@D@std@@@0@AAV10@PBD@Z$0 004002ba f   SimpleDemo.obj
 0001:fffff2ba       __catch$??$?6U?$char_traits@D@std@@@std@@YAAAV?$basic_ostream@DU?$char_traits@D@std@@@0@AAV10@PBD@Z$0 004002ba f   SimpleImage.obj
 0001:fffff2ba       __catch$??$?6U?$char_traits@D@std@@@std@@YAAAV?$basic_ostream@DU?$char_traits@D@std@@@0@AAV10@PBD@Z$0 004002ba f   StarfieldDemo.obj
 0001:fffff2ba       __catch$??$?6U?$char_traits@D@std@@@std@@YAAAV?$basic_ostream@DU?$char_traits@D@std@@@0@AAV10@PBD@Z$0 004002ba f   StartupState.obj
 0001:fffff2ba       __catch$??$?6U?$char_traits@D@std@@@std@@YAAAV?$basic_ostream@DU?$char_traits@D@std@@@0@AAV10@PBD@Z$0 004002ba f   WinState.obj
 0001:fffff2ba       __catch$??$?6U?$char_traits@D@std@@@std@@YAAAV?$basic_ostream@DU?$char_traits@D@std@@@0@AAV10@PBD@Z$0 004002ba f   ZoomPoints.obj
 0001:fffff2ba       __catch$??$?6U?$char_traits@D@std@@@std@@YAAAV?$basic_ostream@DU?$char_traits@D@std@@@0@AAV10@PBD@Z$0 004002ba f   ZoomingDemo.obj
 0001:00003e90       ??__F_Fac_tidy_reg@std@@YAXXZ 00404e90 f   msvcprtd:locale0_implib.obj
 0001:00006b5a       __catch$??$?6U?$char_traits@D@std@@@std@@YAAAV?$basic_ostream@DU?$char_traits@D@std@@@0@AAV10@PBD@Z$0 00407b5a f i Arrow.obj
 0001:000081cf       __catch$??$_Insert_string@DU?$char_traits@D@std@@I@std@@YAAAV?$basic_ostream@DU?$char_traits@D@std@@@0@AAV10@QBDI@Z$0 004091cf f i Arrow.obj
 0001:0000e9dc       $LN17                      0040f9dc     DraggingDemo.obj
 0001:0000f129       __catch$??$_Resize_reallocate@U_Value_init_tag@std@@@?$vector@PAVDisplayableObject@@V?$allocator@PAVDisplayableObject@@@std@@@std@@AAEXIABU_Value_init_tag@1@@Z$0 00410129 f i DraggingDemo.obj
 0001:00014ae8       $LN15                      00415ae8     Enemy.obj
 0001:00015106       __catch$??$_Emplace_reallocate@ABQAVDisplayableObject@@@?$vector@PAVDisplayableObject@@V?$allocator@PAVDisplayableObject@@@std@@@std@@AAEPAPAVDisplayableObject@@QAPAV2@ABQAV2@@Z$0 00416106 f i Enemy.obj
 0001:000160f0       $LN41                      004170f0     FlashingDemo.obj
 0001:00016108       $LN42                      00417108     FlashingDemo.obj
 0001:00016120       $LN43                      00417120     FlashingDemo.obj
 0001:00016138       $LN44                      00417138     FlashingDemo.obj
 0001:000161fc       $LN9                       004171fc     FlashingDemo.obj
 0001:00016e8c       $LN15                      00417e8c     ImageMappingDemo.obj
 0001:00018eac       __catch$??$_Emplace_reallocate@ABUEdge@@@?$vector@UEdge@@V?$allocator@UEdge@@@std@@@std@@AAEPAUEdge@@QAU2@ABU2@@Z$0 00419eac f i MST.obj
 0001:00019106       __catch$??$_Emplace_reallocate@ABUNode@@@?$vector@UNode@@V?$allocator@UNode@@@std@@@std@@AAEPAUNode@@QAU2@ABU2@@Z$0 0041a106 f i MST.obj
 0001:0001da2c       $LN13                      0041ea2c     NumberTiles.obj
 0001:0001e5ac       $LN10                      0041f5ac     LoseState.obj
 0001:0001ebd0       _time                      0041fbd0 f   mainfunction.obj
 0001:00020250       $LN46                      00421250     BaseEngine.obj
 0001:000206d0       ??R<lambda_57ee486f2f872818e4e1ef76732269ef>@@QBE@PAVDisplayableObject@@@Z 004216d0 f   BaseEngine.obj
 0001:00020700       ??0<lambda_57ee486f2f872818e4e1ef76732269ef>@@QAE@ABQATSDL_Event@@@Z 00421700 f   BaseEngine.obj
 0001:00020720       ??R<lambda_83eb8fcb36b73c451092a4848be40800>@@QBE@PAVDisplayableObject@@@Z 00421720 f   BaseEngine.obj
 0001:00020750       ??0<lambda_83eb8fcb36b73c451092a4848be40800>@@QAE@ABQATSDL_Event@@@Z 00421750 f   BaseEngine.obj
 0001:00020770       ??R<lambda_b68d6ab0d55fd1970844512a3930ef49>@@QBE@PAVDisplayableObject@@@Z 00421770 f   BaseEngine.obj
 0001:000207b0       ??0<lambda_b68d6ab0d55fd1970844512a3930ef49>@@QAE@QAVBaseEngine@@@Z 004217b0 f   BaseEngine.obj
 0001:000207d0       ??R<lambda_9a6d32bae543137263d1d545e39fdd7d>@@QBE@PAVDisplayableObject@@@Z 004217d0 f   BaseEngine.obj
 0001:00020810       ??0<lambda_9a6d32bae543137263d1d545e39fdd7d>@@QAE@ABQATSDL_Event@@QAVBaseEngine@@@Z 00421810 f   BaseEngine.obj
 0001:00020840       ??R<lambda_aaa801efaf28ef4796b623796d655d59>@@QBE@PAVDisplayableObject@@@Z 00421840 f   BaseEngine.obj
 0001:00020880       ??0<lambda_aaa801efaf28ef4796b623796d655d59>@@QAE@ABQATSDL_Event@@QAVBaseEngine@@@Z 00421880 f   BaseEngine.obj
 0001:00021010       ??$for_each@V?$_Vector_iterator@V?$_Vector_val@U?$_Simple_types@PAVDisplayableObject@@@std@@@std@@@std@@V<lambda_57ee486f2f872818e4e1ef76732269ef>@@@std@@YA?AV<lambda_57ee486f2f872818e4e1ef76732269ef>@@V?$_Vector_iterator@V?$_Vector_val@U?$_Simple_types@PAVDisplayableObject@@@std@@@std@@@0@0V1@@Z 00422010 f   BaseEngine.obj
 0001:000210f0       ??$for_each@V?$_Vector_iterator@V?$_Vector_val@U?$_Simple_types@PAVDisplayableObject@@@std@@@std@@@std@@V<lambda_83eb8fcb36b73c451092a4848be40800>@@@std@@YA?AV<lambda_83eb8fcb36b73c451092a4848be40800>@@V?$_Vector_iterator@V?$_Vector_val@U?$_Simple_types@PAVDisplayableObject@@@std@@@std@@@0@0V1@@Z 004220f0 f   BaseEngine.obj
 0001:000211d0       ??$for_each@V?$_Vector_iterator@V?$_Vector_val@U?$_Simple_types@PAVDisplayableObject@@@std@@@std@@@std@@V<lambda_9a6d32bae543137263d1d545e39fdd7d>@@@std@@YA?AV<lambda_9a6d32bae543137263d1d545e39fdd7d>@@V?$_Vector_iterator@V?$_Vector_val@U?$_Simple_types@PAVDisplayableObject@@@std@@@std@@@0@0V1@@Z 004221d0 f   BaseEngine.obj
 0001:000212c0       ??$for_each@V?$_Vector_iterator@V?$_Vector_val@U?$_Simple_types@PAVDisplayableObject@@@std@@@std@@@std@@V<lambda_aaa801efaf28ef4796b623796d655d59>@@@std@@YA?AV<lambda_aaa801efaf28ef4796b623796d655d59>@@V?$_Vector_iterator@V?$_Vector_val@U?$_Simple_types@PAVDisplayableObject@@@std@@@std@@@0@0V1@@Z 004222c0 f   BaseEngine.obj
 0001:000213b0       ??$for_each@V?$_Vector_iterator@V?$_Vector_val@U?$_Simple_types@PAVDisplayableObject@@@std@@@std@@@std@@V<lambda_b68d6ab0d55fd1970844512a3930ef49>@@@std@@YA?AV<lambda_b68d6ab0d55fd1970844512a3930ef49>@@V?$_Vector_iterator@V?$_Vector_val@U?$_Simple_types@PAVDisplayableObject@@@std@@@std@@@0@0V1@@Z 004223b0 f   BaseEngine.obj
 0001:000221e0       $LN53                      004231e0     BaseEngine.obj
 0001:000221fc       $LN52                      004231fc     BaseEngine.obj
 0001:00022274       $LN55                      00423274     BaseEngine.obj
 0001:00022310       $LN54                      00423310     BaseEngine.obj
 0001:000235b4       $LN13                      004245b4     Player.obj
 0001:000268c4       $LN13                      004278c4     Attack.obj
 0001:000276f0       $LN19                      004286f0     RunningState.obj
 0001:00027708       $LN18                      00428708     RunningState.obj
 0001:00029bfc       $LN17                      0042abfc     SimpleDemo.obj
 0001:0002aabc       $LN17                      0042babc     StarfieldDemo.obj
 0001:0002bab7       __catch$??$?5DU?$char_traits@D@std@@V?$allocator@D@1@@std@@YAAAV?$basic_istream@DU?$char_traits@D@std@@@0@AAV10@AAV?$basic_string@DU?$char_traits@D@std@@V?$allocator@D@2@@0@@Z$0 0042cab7 f i StartupState.obj
 0001:0002bf62       __catch$??$_Emplace_reallocate@ABV?$basic_string@DU?$char_traits@D@std@@V?$allocator@D@2@@std@@@?$vector@V?$basic_string@DU?$char_traits@D@std@@V?$allocator@D@2@@std@@V?$allocator@V?$basic_string@DU?$char_traits@D@std@@V?$allocator@D@2@@std@@@2@@std@@AAEPAV?$basic_string@DU?$char_traits@D@std@@V?$allocator@D@2@@1@QAV21@ABV21@@Z$0 0042cf62 f i StartupState.obj
 0001:0002dbc0       $LN23                      0042ebc0     BouncingBall.obj
 0001:0002f19c       $LN17                      0043019c     BouncingBallMain.obj
 0001:00032614       $LN42                      00433614     MazeDemoObject.obj
 0001:00032630       $LN43                      00433630     MazeDemoObject.obj
 0001:00032908       $LN10                      00433908     MazeDemoObject.obj
 0001:00032978       $LN10                      00433978     MazeDemoObject.obj
 0001:00032b00       $LN14                      00433b00     MazeDemoTileManager.obj
 0001:00033030       ??$_Count_trivial_tail@E@?A0x8417fefe@@YAIPBX0IE@Z 00434030 f   msvcprtd:vector_algorithms.obj
 0001:00033080       ??$_Count_trivial_tail@G@?A0x8417fefe@@YAIPBX0IG@Z 00434080 f   msvcprtd:vector_algorithms.obj
 0001:000330d0       ??$_Count_trivial_tail@I@?A0x8417fefe@@YAIPBX0II@Z 004340d0 f   msvcprtd:vector_algorithms.obj
 0001:00033120       ??$_Count_trivial_tail@_K@?A0x8417fefe@@YAIPBX0I_K@Z 00434120 f   msvcprtd:vector_algorithms.obj
 0001:00033180       ??$_Find_trivial_tail@E@?A0x8417fefe@@YAPBXPBX0E@Z 00434180 f   msvcprtd:vector_algorithms.obj
 0001:000331c0       ??$_Find_trivial_tail@G@?A0x8417fefe@@YAPBXPBX0G@Z 004341c0 f   msvcprtd:vector_algorithms.obj
 0001:00033200       ??$_Find_trivial_tail@I@?A0x8417fefe@@YAPBXPBX0I@Z 00434200 f   msvcprtd:vector_algorithms.obj
 0001:00033240       ??$_Find_trivial_tail@_K@?A0x8417fefe@@YAPBXPBX0_K@Z 00434240 f   msvcprtd:vector_algorithms.obj
 0001:000332a0       ??$_Find_trivial_unsized_fallback@E@?A0x8417fefe@@YAPBXPBXE@Z 004342a0 f   msvcprtd:vector_algorithms.obj
 0001:000332e0       ??$_Find_trivial_unsized_fallback@G@?A0x8417fefe@@YAPBXPBXG@Z 004342e0 f   msvcprtd:vector_algorithms.obj
 0001:00033320       ??$_Find_trivial_unsized_fallback@I@?A0x8417fefe@@YAPBXPBXI@Z 00434320 f   msvcprtd:vector_algorithms.obj
 0001:00033350       ??$_Find_trivial_unsized_fallback@_K@?A0x8417fefe@@YAPBXPBX_K@Z 00434350 f   msvcprtd:vector_algorithms.obj
 0001:000333a0       ??$_Reverse_copy_tail@PBEPAE@?A0x8417fefe@@YAXPBE0PAE@Z 004343a0 f   msvcprtd:vector_algorithms.obj
 0001:000333e0       ??$_Reverse_copy_tail@PBGPAG@?A0x8417fefe@@YAXPBG0PAG@Z 004343e0 f   msvcprtd:vector_algorithms.obj
 0001:00033420       ??$_Reverse_copy_tail@PBKPAK@?A0x8417fefe@@YAXPBK0PAK@Z 00434420 f   msvcprtd:vector_algorithms.obj
 0001:00033460       ??$_Reverse_copy_tail@PB_KPA_K@?A0x8417fefe@@YAXPB_K0PA_K@Z 00434460 f   msvcprtd:vector_algorithms.obj
 0001:000334a0       ??$_Reverse_tail@PAE@?A0x8417fefe@@YAXPAE0@Z 004344a0 f   msvcprtd:vector_algorithms.obj
 0001:00033500       ??$_Reverse_tail@PAG@?A0x8417fefe@@YAXPAG0@Z 00434500 f   msvcprtd:vector_algorithms.obj
 0001:00033570       ??$_Reverse_tail@PAK@?A0x8417fefe@@YAXPAK0@Z 00434570 f   msvcprtd:vector_algorithms.obj
 0001:000335d0       ??$_Reverse_tail@PA_K@?A0x8417fefe@@YAXPA_K0@Z 004345d0 f   msvcprtd:vector_algorithms.obj
 0001:00033650       ??$__std_count_trivial@U_Find_traits_1@?A0x8417fefe@@E@?A0x8417fefe@@YGIPBXQBXE@Z 00434650 f   msvcprtd:vector_algorithms.obj
 0001:000338a0       ??$__std_count_trivial@U_Find_traits_2@?A0x8417fefe@@G@?A0x8417fefe@@YGIPBXQBXG@Z 004348a0 f   msvcprtd:vector_algorithms.obj
 0001:00033af0       ??$__std_count_trivial@U_Find_traits_4@?A0x8417fefe@@I@?A0x8417fefe@@YGIPBXQBXI@Z 00434af0 f   msvcprtd:vector_algorithms.obj
 0001:00033d40       ??$__std_count_trivial@U_Find_traits_8@?A0x8417fefe@@_K@?A0x8417fefe@@YGIPBXQBX_K@Z 00434d40 f   msvcprtd:vector_algorithms.obj
 0001:00033fa0       ??$__std_find_trivial@U_Find_traits_1@?A0x8417fefe@@E@?A0x8417fefe@@YGPBXPBX0E@Z 00434fa0 f   msvcprtd:vector_algorithms.obj
 0001:00034230       ??$__std_find_trivial@U_Find_traits_2@?A0x8417fefe@@G@?A0x8417fefe@@YGPBXPBX0G@Z 00435230 f   msvcprtd:vector_algorithms.obj
 0001:000344c0       ??$__std_find_trivial@U_Find_traits_4@?A0x8417fefe@@I@?A0x8417fefe@@YGPBXPBX0I@Z 004354c0 f   msvcprtd:vector_algorithms.obj
 0001:00034750       ??$__std_find_trivial@U_Find_traits_8@?A0x8417fefe@@_K@?A0x8417fefe@@YGPBXPBX0_K@Z 00435750 f   msvcprtd:vector_algorithms.obj
 0001:000349f0       ??$__std_find_trivial_unsized@U_Find_traits_1@?A0x8417fefe@@E@?A0x8417fefe@@YGPBXPBXE@Z 004359f0 f   msvcprtd:vector_algorithms.obj
 0001:00034d90       ??$__std_find_trivial_unsized@U_Find_traits_2@?A0x8417fefe@@G@?A0x8417fefe@@YGPBXPBXG@Z 00435d90 f   msvcprtd:vector_algorithms.obj
 0001:00035130       ??$__std_find_trivial_unsized@U_Find_traits_4@?A0x8417fefe@@I@?A0x8417fefe@@YGPBXPBXI@Z 00436130 f   msvcprtd:vector_algorithms.obj
 0001:000354c0       ??$__std_find_trivial_unsized@U_Find_traits_8@?A0x8417fefe@@_K@?A0x8417fefe@@YGPBXPBX_K@Z 004364c0 f   msvcprtd:vector_algorithms.obj
 0001:00035870       ?_Advance_bytes@?A0x8417fefe@@YAXAAPAXH@Z 00436870 f   msvcprtd:vector_algorithms.obj
 0001:00035890       ?_Advance_bytes@?A0x8417fefe@@YAXAAPBXH@Z 00436890 f   msvcprtd:vector_algorithms.obj
 0001:000358b0       ?_Byte_length@?A0x8417fefe@@YAIPBX0@Z 004368b0 f   msvcprtd:vector_algorithms.obj
 0001:000358c0       ?_Cmp_avx@_Find_traits_1@?A0x8417fefe@@SA?AT__m256i@@T3@0@Z 004368c0 f   msvcprtd:vector_algorithms.obj
 0001:00035910       ?_Cmp_avx@_Find_traits_2@?A0x8417fefe@@SA?AT__m256i@@T3@0@Z 00436910 f   msvcprtd:vector_algorithms.obj
 0001:00035960       ?_Cmp_avx@_Find_traits_4@?A0x8417fefe@@SA?AT__m256i@@T3@0@Z 00436960 f   msvcprtd:vector_algorithms.obj
 0001:000359b0       ?_Cmp_avx@_Find_traits_8@?A0x8417fefe@@SA?AT__m256i@@T3@0@Z 004369b0 f   msvcprtd:vector_algorithms.obj
 0001:00035a00       ?_Cmp_sse@_Find_traits_1@?A0x8417fefe@@SA?AT__m128i@@T3@0@Z 00436a00 f   msvcprtd:vector_algorithms.obj
 0001:00035a50       ?_Cmp_sse@_Find_traits_2@?A0x8417fefe@@SA?AT__m128i@@T3@0@Z 00436a50 f   msvcprtd:vector_algorithms.obj
 0001:00035aa0       ?_Cmp_sse@_Find_traits_4@?A0x8417fefe@@SA?AT__m128i@@T3@0@Z 00436aa0 f   msvcprtd:vector_algorithms.obj
 0001:00035af0       ?_Cmp_sse@_Find_traits_8@?A0x8417fefe@@SA?AT__m128i@@T3@0@Z 00436af0 f   msvcprtd:vector_algorithms.obj
 0001:00035b40       ?_Set_avx@_Find_traits_1@?A0x8417fefe@@SA?AT__m256i@@E@Z 00436b40 f   msvcprtd:vector_algorithms.obj
 0001:00035ba0       ?_Set_avx@_Find_traits_2@?A0x8417fefe@@SA?AT__m256i@@G@Z 00436ba0 f   msvcprtd:vector_algorithms.obj
 0001:00035c00       ?_Set_avx@_Find_traits_4@?A0x8417fefe@@SA?AT__m256i@@I@Z 00436c00 f   msvcprtd:vector_algorithms.obj
 0001:00035c50       ?_Set_avx@_Find_traits_8@?A0x8417fefe@@SA?AT__m256i@@_K@Z 00436c50 f   msvcprtd:vector_algorithms.obj
 0001:00035ca0       ?_Set_sse@_Find_traits_1@?A0x8417fefe@@SA?AT__m128i@@E@Z 00436ca0 f   msvcprtd:vector_algorithms.obj
 0001:00035cf0       ?_Set_sse@_Find_traits_2@?A0x8417fefe@@SA?AT__m128i@@G@Z 00436cf0 f   msvcprtd:vector_algorithms.obj
 0001:00035d40       ?_Set_sse@_Find_traits_4@?A0x8417fefe@@SA?AT__m128i@@I@Z 00436d40 f   msvcprtd:vector_algorithms.obj
 0001:00035d90       ?_Set_sse@_Find_traits_8@?A0x8417fefe@@SA?AT__m128i@@_K@Z 00436d90 f   msvcprtd:vector_algorithms.obj
 0001:00035de0       ?_Sse_available@_Find_traits_1@?A0x8417fefe@@SA_NXZ 00436de0 f   msvcprtd:vector_algorithms.obj
 0001:00035df0       ?_Sse_available@_Find_traits_2@?A0x8417fefe@@SA_NXZ 00436df0 f   msvcprtd:vector_algorithms.obj
 0001:00035e00       ?_Sse_available@_Find_traits_4@?A0x8417fefe@@SA_NXZ 00436e00 f   msvcprtd:vector_algorithms.obj
 0001:00035e10       ?_Sse_available@_Find_traits_8@?A0x8417fefe@@SA_NXZ 00436e10 f   msvcprtd:vector_algorithms.obj
 0001:00035e20       ?_Use_avx2@?A0x8417fefe@@YA_NXZ 00436e20 f   msvcprtd:vector_algorithms.obj
 0001:00035e50       ?_Use_sse2@?A0x8417fefe@@YA_NXZ 00436e50 f   msvcprtd:vector_algorithms.obj
 0001:00035e80       ?_Use_sse42@?A0x8417fefe@@YA_NXZ 00436e80 f   msvcprtd:vector_algorithms.obj
 0001:000379e0       ?pre_c_initialization@@YAHXZ 004389e0 f   MSVCRTD:exe_main.obj
 0001:00037ac0       ?post_pgo_initialization@@YAHXZ 00438ac0 f   MSVCRTD:exe_main.obj
 0001:00037ad0       ?pre_cpp_initialization@@YAXXZ 00438ad0 f   MSVCRTD:exe_main.obj
 0001:00037af0       ?__scrt_common_main@@YAHXZ 00438af0 f   MSVCRTD:exe_main.obj
 0001:00037b10       ?__scrt_common_main_seh@@YAHXZ 00438b10 f   MSVCRTD:exe_main.obj
 0001:00037de0       ?invoke_main@@YAHXZ        00438de0 f   MSVCRTD:exe_main.obj
 0001:00037fe0       ?find_pe_section@@YAPAU_IMAGE_SECTION_HEADER@@QAEI@Z 00438fe0 f   MSVCRTD:utility.obj
 0001:00038090       ?is_potentially_valid_image_base@@YA_NQAX@Z 00439090 f   MSVCRTD:utility.obj
 0001:00038880       ___castguard_check_failure_os_handled_wrapper 00439880 f   MSVCRTD:guard_support.obj
 0001:000388b0       ___castguard_compat_check  004398b0 f   MSVCRTD:guard_support.obj
 0001:000389f0       ___castguard_slow_path_compat_check 004399f0 f   MSVCRTD:guard_support.obj
 0001:00038e80       ___get_entropy             00439e80 f   MSVCRTD:gs_support.obj
 0001:00039cb0       _ParseCommandLine          0043acb0 f   SDL2main:SDL_windows_main.obj
 0001:00039e10       _main_getcmdline           0043ae10 f   SDL2main:SDL_windows_main.obj
 0001:0003bfa0       __unwindfunclet$?virtDraw@Arrow@@UAEXXZ$0 0043cfa0 f   Arrow.obj
 0001:0003bfaf       __unwindfunclet$?virtDraw@Arrow@@UAEXXZ$2 0043cfaf f   Arrow.obj
 0001:0003bfbc       __ehhandler$?virtDraw@Arrow@@UAEXXZ 0043cfbc f   Arrow.obj
 0001:0003bff0       __unwindfunclet$??$?0U?$pair@V?$basic_string@DU?$char_traits@D@std@@V?$allocator@D@2@@std@@V?$shared_ptr@VRawImageData@@@2@@std@@@?$_Tree_temp_node@V?$allocator@U?$_Tree_node@U?$pair@$$CBV?$basic_string@DU?$char_traits@D@std@@V?$allocator@D@2@@std@@V?$shared_ptr@VRawImageData@@@2@@std@@PAX@std@@@std@@@std@@QAE@AAV?$allocator@U?$_Tree_node@U?$pair@$$CBV?$basic_string@DU?$char_traits@D@std@@V?$allocator@D@2@@std@@V?$shared_ptr@VRawImageData@@@2@@std@@PAX@std@@@1@PAU?$_Tree_node@U?$pair@$$CBV?$basic_string@DU?$char_traits@D@std@@V?$allocator@D@2@@std@@V?$shared_ptr@VRawImageData@@@2@@std@@PAX@1@$$QAU?$pair@V?$basic_string@DU?$char_traits@D@std@@V?$allocator@D@2@@std@@V?$shared_ptr@VRawImageData@@@2@@1@@Z$0 0043cff0 f   Arrow.obj
 0001:0003bffd       __ehhandler$??$?0U?$pair@V?$basic_string@DU?$char_traits@D@std@@V?$allocator@D@2@@std@@V?$shared_ptr@VRawImageData@@@2@@std@@@?$_Tree_temp_node@V?$allocator@U?$_Tree_node@U?$pair@$$CBV?$basic_string@DU?$char_traits@D@std@@V?$allocator@D@2@@std@@V?$shared_ptr@VRawImageData@@@2@@std@@PAX@std@@@std@@@std@@QAE@AAV?$allocator@U?$_Tree_node@U?$pair@$$CBV?$basic_string@DU?$char_traits@D@std@@V?$allocator@D@2@@std@@V?$shared_ptr@VRawImageData@@@2@@std@@PAX@std@@@1@PAU?$_Tree_node@U?$pair@$$CBV?$basic_string@DU?$char_traits@D@std@@V?$allocator@D@2@@std@@V?$shared_ptr@VRawImageData@@@2@@std@@PAX@1@$$QAU?$pair@V?$basic_string@DU?$char_traits@D@std@@V?$allocator@D@2@@std@@V?$shared_ptr@VRawImageData@@@2@@1@@Z 0043cffd f   Arrow.obj
 0001:0003c030       __unwindfunclet$??$?0U?$pair@V?$basic_string@DU?$char_traits@D@std@@V?$allocator@D@2@@std@@V?$weak_ptr@VRawImageData@@@2@@std@@@?$_Tree_temp_node@V?$allocator@U?$_Tree_node@U?$pair@$$CBV?$basic_string@DU?$char_traits@D@std@@V?$allocator@D@2@@std@@V?$weak_ptr@VRawImageData@@@2@@std@@PAX@std@@@std@@@std@@QAE@AAV?$allocator@U?$_Tree_node@U?$pair@$$CBV?$basic_string@DU?$char_traits@D@std@@V?$allocator@D@2@@std@@V?$weak_ptr@VRawImageData@@@2@@std@@PAX@std@@@1@PAU?$_Tree_node@U?$pair@$$CBV?$basic_string@DU?$char_traits@D@std@@V?$allocator@D@2@@std@@V?$weak_ptr@VRawImageData@@@2@@std@@PAX@1@$$QAU?$pair@V?$basic_string@DU?$char_traits@D@std@@V?$allocator@D@2@@std@@V?$weak_ptr@VRawImageData@@@2@@1@@Z$0 0043d030 f   Arrow.obj
 0001:0003c03d       __ehhandler$??$?0U?$pair@V?$basic_string@DU?$char_traits@D@std@@V?$allocator@D@2@@std@@V?$weak_ptr@VRawImageData@@@2@@std@@@?$_Tree_temp_node@V?$allocator@U?$_Tree_node@U?$pair@$$CBV?$basic_string@DU?$char_traits@D@std@@V?$allocator@D@2@@std@@V?$weak_ptr@VRawImageData@@@2@@std@@PAX@std@@@std@@@std@@QAE@AAV?$allocator@U?$_Tree_node@U?$pair@$$CBV?$basic_string@DU?$char_traits@D@std@@V?$allocator@D@2@@std@@V?$weak_ptr@VRawImageData@@@2@@std@@PAX@std@@@1@PAU?$_Tree_node@U?$pair@$$CBV?$basic_string@DU?$char_traits@D@std@@V?$allocator@D@2@@std@@V?$weak_ptr@VRawImageData@@@2@@std@@PAX@1@$$QAU?$pair@V?$basic_string@DU?$char_traits@D@std@@V?$allocator@D@2@@std@@V?$weak_ptr@VRawImageData@@@2@@1@@Z 0043d03d f   Arrow.obj
 0001:0003c070       __unwindfunclet$??$?0VRawImageData@@$0A@@?$shared_ptr@VRawImageData@@@std@@QAE@PAVRawImageData@@@Z$0 0043d070 f   Arrow.obj
 0001:0003c078       __unwindfunclet$??$?0VRawImageData@@$0A@@?$shared_ptr@VRawImageData@@@std@@QAE@PAVRawImageData@@@Z$1 0043d078 f   Arrow.obj
 0001:0003c08c       __ehhandler$??$?0VRawImageData@@$0A@@?$shared_ptr@VRawImageData@@@std@@QAE@PAVRawImageData@@@Z 0043d08c f   Arrow.obj
 0001:0003c0c0       __unwindfunclet$??$?6U?$char_traits@D@std@@@std@@YAAAV?$basic_ostream@DU?$char_traits@D@std@@@0@AAV10@PBD@Z$2 0043d0c0 f   Arrow.obj
 0001:0003c0cd       __ehhandler$??$?6U?$char_traits@D@std@@@std@@YAAAV?$basic_ostream@DU?$char_traits@D@std@@@0@AAV10@PBD@Z 0043d0cd f   Arrow.obj
 0001:0003c100       __unwindfunclet$??$_Construct@$00PBD@?$basic_string@DU?$char_traits@D@std@@V?$allocator@D@2@@std@@AAEXQBDI@Z$0 0043d100 f   Arrow.obj
 0001:0003c10d       __ehhandler$??$_Construct@$00PBD@?$basic_string@DU?$char_traits@D@std@@V?$allocator@D@2@@std@@AAEXQBDI@Z 0043d10d f   Arrow.obj
 0001:0003c140       __unwindfunclet$??$_Construct@$01PBD@?$basic_string@DU?$char_traits@D@std@@V?$allocator@D@2@@std@@AAEXQBDI@Z$0 0043d140 f   Arrow.obj
 0001:0003c14d       __ehhandler$??$_Construct@$01PBD@?$basic_string@DU?$char_traits@D@std@@V?$allocator@D@2@@std@@AAEXQBDI@Z 0043d14d f   Arrow.obj
 0001:0003c180       __ehhandler$??$_Deallocate@$07$0A@@std@@YAXPAXI@Z 0043d180 f   Arrow.obj
 0001:0003c1b0       __ehhandler$??$_Deallocate_plain@V?$allocator@U_Container_proxy@std@@@std@@@std@@YAXAAV?$allocator@U_Container_proxy@std@@@0@QAU_Container_proxy@0@@Z 0043d1b0 f   Arrow.obj
 0001:0003c1e0       __ehhandler$??$_Freenode0@V?$allocator@U?$_Tree_node@U?$pair@$$CBV?$basic_string@DU?$char_traits@D@std@@V?$allocator@D@2@@std@@V?$weak_ptr@VRawImageData@@@2@@std@@PAX@std@@@std@@@?$_Tree_node@U?$pair@$$CBV?$basic_string@DU?$char_traits@D@std@@V?$allocator@D@2@@std@@V?$weak_ptr@VRawImageData@@@2@@std@@PAX@std@@SAXAAV?$allocator@U?$_Tree_node@U?$pair@$$CBV?$basic_string@DU?$char_traits@D@std@@V?$allocator@D@2@@std@@V?$weak_ptr@VRawImageData@@@2@@std@@PAX@std@@@1@PAU01@@Z 0043d1e0 f   Arrow.obj
 0001:0003c210       __ehhandler$??$_Freenode@V?$allocator@U?$_Tree_node@U?$pair@$$CBV?$basic_string@DU?$char_traits@D@std@@V?$allocator@D@2@@std@@V?$weak_ptr@VRawImageData@@@2@@std@@PAX@std@@@std@@@?$_Tree_node@U?$pair@$$CBV?$basic_string@DU?$char_traits@D@std@@V?$allocator@D@2@@std@@V?$weak_ptr@VRawImageData@@@2@@std@@PAX@std@@SAXAAV?$allocator@U?$_Tree_node@U?$pair@$$CBV?$basic_string@DU?$char_traits@D@std@@V?$allocator@D@2@@std@@V?$weak_ptr@VRawImageData@@@2@@std@@PAX@std@@@1@PAU01@@Z 0043d210 f   Arrow.obj
 0001:0003c240       __unwindfunclet$??$_Insert_string@DU?$char_traits@D@std@@I@std@@YAAAV?$basic_ostream@DU?$char_traits@D@std@@@0@AAV10@QBDI@Z$2 0043d240 f   Arrow.obj
 0001:0003c24d       __ehhandler$??$_Insert_string@DU?$char_traits@D@std@@I@std@@YAAAV?$basic_ostream@DU?$char_traits@D@std@@@0@AAV10@QBDI@Z 0043d24d f   Arrow.obj
 0001:0003c280       __unwindfunclet$??0?$_Tree_temp_node_alloc@V?$allocator@U?$_Tree_node@U?$pair@$$CBV?$basic_string@DU?$char_traits@D@std@@V?$allocator@D@2@@std@@V?$shared_ptr@VRawImageData@@@2@@std@@PAX@std@@@std@@@std@@QAE@AAV?$allocator@U?$_Tree_node@U?$pair@$$CBV?$basic_string@DU?$char_traits@D@std@@V?$allocator@D@2@@std@@V?$shared_ptr@VRawImageData@@@2@@std@@PAX@std@@@1@@Z$0 0043d280 f   Arrow.obj
 0001:0003c28d       __ehhandler$??0?$_Tree_temp_node_alloc@V?$allocator@U?$_Tree_node@U?$pair@$$CBV?$basic_string@DU?$char_traits@D@std@@V?$allocator@D@2@@std@@V?$shared_ptr@VRawImageData@@@2@@std@@PAX@std@@@std@@@std@@QAE@AAV?$allocator@U?$_Tree_node@U?$pair@$$CBV?$basic_string@DU?$char_traits@D@std@@V?$allocator@D@2@@std@@V?$shared_ptr@VRawImageData@@@2@@std@@PAX@std@@@1@@Z 0043d28d f   Arrow.obj
 0001:0003c2c0       __unwindfunclet$??0?$_Tree_temp_node_alloc@V?$allocator@U?$_Tree_node@U?$pair@$$CBV?$basic_string@DU?$char_traits@D@std@@V?$allocator@D@2@@std@@V?$weak_ptr@VRawImageData@@@2@@std@@PAX@std@@@std@@@std@@QAE@AAV?$allocator@U?$_Tree_node@U?$pair@$$CBV?$basic_string@DU?$char_traits@D@std@@V?$allocator@D@2@@std@@V?$weak_ptr@VRawImageData@@@2@@std@@PAX@std@@@1@@Z$0 0043d2c0 f   Arrow.obj
 0001:0003c2cd       __ehhandler$??0?$_Tree_temp_node_alloc@V?$allocator@U?$_Tree_node@U?$pair@$$CBV?$basic_string@DU?$char_traits@D@std@@V?$allocator@D@2@@std@@V?$weak_ptr@VRawImageData@@@2@@std@@PAX@std@@@std@@@std@@QAE@AAV?$allocator@U?$_Tree_node@U?$pair@$$CBV?$basic_string@DU?$char_traits@D@std@@V?$allocator@D@2@@std@@V?$weak_ptr@VRawImageData@@@2@@std@@PAX@std@@@1@@Z 0043d2cd f   Arrow.obj
 0001:0003c300       __ehhandler$??0?$basic_string@DU?$char_traits@D@std@@V?$allocator@D@2@@std@@QAE@$$QAV01@@Z 0043d300 f   Arrow.obj
 0001:0003c330       __unwindfunclet$??0?$basic_string@DU?$char_traits@D@std@@V?$allocator@D@2@@std@@QAE@ABV01@@Z$0 0043d330 f   Arrow.obj
 0001:0003c33d       __ehhandler$??0?$basic_string@DU?$char_traits@D@std@@V?$allocator@D@2@@std@@QAE@ABV01@@Z 0043d33d f   Arrow.obj
 0001:0003c370       __unwindfunclet$??0?$basic_string@DU?$char_traits@D@std@@V?$allocator@D@2@@std@@QAE@QBD@Z$0 0043d370 f   Arrow.obj
 0001:0003c37d       __ehhandler$??0?$basic_string@DU?$char_traits@D@std@@V?$allocator@D@2@@std@@QAE@QBD@Z 0043d37d f   Arrow.obj
 0001:0003c3b0       __unwindfunclet$??0ImageManager@@QAE@XZ$0 0043d3b0 f   Arrow.obj
 0001:0003c3bd       __ehhandler$??0ImageManager@@QAE@XZ 0043d3bd f   Arrow.obj
 0001:0003c3f0       __unwindfunclet$??0RawImageData@@QAE@V?$basic_string@DU?$char_traits@D@std@@V?$allocator@D@2@@std@@@Z$0 0043d3f0 f   Arrow.obj
 0001:0003c3fd       __ehhandler$??0RawImageData@@QAE@V?$basic_string@DU?$char_traits@D@std@@V?$allocator@D@2@@std@@@Z 0043d3fd f   Arrow.obj
 0001:0003c430       __unwindfunclet$??0sentry@?$basic_ostream@DU?$char_traits@D@std@@@std@@QAE@AAV12@@Z$0 0043d430 f   Arrow.obj
 0001:0003c43d       __ehhandler$??0sentry@?$basic_ostream@DU?$char_traits@D@std@@@std@@QAE@AAV12@@Z 0043d43d f   Arrow.obj
 0001:0003c470       __ehhandler$??1?$_Alloc_construct_ptr@V?$allocator@U?$_Tree_node@U?$pair@$$CBV?$basic_string@DU?$char_traits@D@std@@V?$allocator@D@2@@std@@V?$shared_ptr@VRawImageData@@@2@@std@@PAX@std@@@std@@@std@@QAE@XZ 0043d470 f   Arrow.obj
 0001:0003c4a0       __ehhandler$??1?$_Alloc_construct_ptr@V?$allocator@U?$_Tree_node@U?$pair@$$CBV?$basic_string@DU?$char_traits@D@std@@V?$allocator@D@2@@std@@V?$weak_ptr@VRawImageData@@@2@@std@@PAX@std@@@std@@@std@@QAE@XZ 0043d4a0 f   Arrow.obj
 0001:0003c4d0       __ehhandler$??1?$_Tree_temp_node@V?$allocator@U?$_Tree_node@U?$pair@$$CBV?$basic_string@DU?$char_traits@D@std@@V?$allocator@D@2@@std@@V?$shared_ptr@VRawImageData@@@2@@std@@PAX@std@@@std@@@std@@QAE@XZ 0043d4d0 f   Arrow.obj
 0001:0003c500       __ehhandler$??1?$_Tree_temp_node@V?$allocator@U?$_Tree_node@U?$pair@$$CBV?$basic_string@DU?$char_traits@D@std@@V?$allocator@D@2@@std@@V?$weak_ptr@VRawImageData@@@2@@std@@PAX@std@@@std@@@std@@QAE@XZ 0043d500 f   Arrow.obj
 0001:0003c530       __ehhandler$??1RawImageData@@QAE@XZ 0043d530 f   Arrow.obj
 0001:0003c560       __ehhandler$??1_Sentry_base@?$basic_ostream@DU?$char_traits@D@std@@@std@@QAE@XZ 0043d560 f   Arrow.obj
 0001:0003c590       __ehhandler$??1sentry@?$basic_ostream@DU?$char_traits@D@std@@@std@@QAE@XZ 0043d590 f   Arrow.obj
 0001:0003c5c0       __unwindfunclet$?_Alloc_sentinel_and_proxy@?$_Tree@V?$_Tmap_traits@V?$basic_string@DU?$char_traits@D@std@@V?$allocator@D@2@@std@@V?$shared_ptr@VRawImageData@@@2@U?$less@V?$basic_string@DU?$char_traits@D@std@@V?$allocator@D@2@@std@@@2@V?$allocator@U?$pair@$$CBV?$basic_string@DU?$char_traits@D@std@@V?$allocator@D@2@@std@@V?$shared_ptr@VRawImageData@@@2@@std@@@2@$0A@@std@@@std@@IAEXXZ$0 0043d5c0 f   Arrow.obj
 0001:0003c5cd       __ehhandler$?_Alloc_sentinel_and_proxy@?$_Tree@V?$_Tmap_traits@V?$basic_string@DU?$char_traits@D@std@@V?$allocator@D@2@@std@@V?$shared_ptr@VRawImageData@@@2@U?$less@V?$basic_string@DU?$char_traits@D@std@@V?$allocator@D@2@@std@@@2@V?$allocator@U?$pair@$$CBV?$basic_string@DU?$char_traits@D@std@@V?$allocator@D@2@@std@@V?$shared_ptr@VRawImageData@@@2@@std@@@2@$0A@@std@@@std@@IAEXXZ 0043d5cd f   Arrow.obj
 0001:0003c600       __unwindfunclet$?_Alloc_sentinel_and_proxy@?$_Tree@V?$_Tmap_traits@V?$basic_string@DU?$char_traits@D@std@@V?$allocator@D@2@@std@@V?$weak_ptr@VRawImageData@@@2@U?$less@V?$basic_string@DU?$char_traits@D@std@@V?$allocator@D@2@@std@@@2@V?$allocator@U?$pair@$$CBV?$basic_string@DU?$char_traits@D@std@@V?$allocator@D@2@@std@@V?$weak_ptr@VRawImageData@@@2@@std@@@2@$0A@@std@@@std@@IAEXXZ$0 0043d600 f   Arrow.obj
 0001:0003c60d       __ehhandler$?_Alloc_sentinel_and_proxy@?$_Tree@V?$_Tmap_traits@V?$basic_string@DU?$char_traits@D@std@@V?$allocator@D@2@@std@@V?$weak_ptr@VRawImageData@@@2@U?$less@V?$basic_string@DU?$char_traits@D@std@@V?$allocator@D@2@@std@@@2@V?$allocator@U?$pair@$$CBV?$basic_string@DU?$char_traits@D@std@@V?$allocator@D@2@@std@@V?$weak_ptr@VRawImageData@@@2@@std@@@2@$0A@@std@@@std@@IAEXXZ 0043d60d f   Arrow.obj
 0001:0003c640       __ehhandler$?_Take_contents@?$basic_string@DU?$char_traits@D@std@@V?$allocator@D@2@@std@@AAEXAAV12@@Z 0043d640 f   Arrow.obj
 0001:0003c670       __ehhandler$?_Tidy_deallocate@?$basic_string@DU?$char_traits@D@std@@V?$allocator@D@2@@std@@AAEXXZ 0043d670 f   Arrow.obj
 0001:0003c6a0       __unwindfunclet$?get@ImageManager@@SAPAV1@XZ$0 0043d6a0 f   Arrow.obj
 0001:0003c6b4       __ehhandler$?get@ImageManager@@SAPAV1@XZ 0043d6b4 f   Arrow.obj
 0001:0003c6e0       __unwindfunclet$?getImagePtrbyURL@ImageManager@@QAE?AV?$shared_ptr@VRawImageData@@@std@@V?$basic_string@DU?$char_traits@D@std@@V?$allocator@D@2@@3@_N1@Z$0 0043d6e0 f   Arrow.obj
 0001:0003c6e8       __unwindfunclet$?getImagePtrbyURL@ImageManager@@QAE?AV?$shared_ptr@VRawImageData@@@std@@V?$basic_string@DU?$char_traits@D@std@@V?$allocator@D@2@@3@_N1@Z$1 0043d6e8 f   Arrow.obj
 0001:0003c6f0       __unwindfunclet$?getImagePtrbyURL@ImageManager@@QAE?AV?$shared_ptr@VRawImageData@@@std@@V?$basic_string@DU?$char_traits@D@std@@V?$allocator@D@2@@3@_N1@Z$9 0043d6f0 f   Arrow.obj
 0001:0003c6f8       __unwindfunclet$?getImagePtrbyURL@ImageManager@@QAE?AV?$shared_ptr@VRawImageData@@@std@@V?$basic_string@DU?$char_traits@D@std@@V?$allocator@D@2@@3@_N1@Z$10 0043d6f8 f   Arrow.obj
 0001:0003c703       __unwindfunclet$?getImagePtrbyURL@ImageManager@@QAE?AV?$shared_ptr@VRawImageData@@@std@@V?$basic_string@DU?$char_traits@D@std@@V?$allocator@D@2@@3@_N1@Z$11 0043d703 f   Arrow.obj
 0001:0003c70b       __unwindfunclet$?getImagePtrbyURL@ImageManager@@QAE?AV?$shared_ptr@VRawImageData@@@std@@V?$basic_string@DU?$char_traits@D@std@@V?$allocator@D@2@@3@_N1@Z$13 0043d70b f   Arrow.obj
 0001:0003c718       __ehhandler$?getImagePtrbyURL@ImageManager@@QAE?AV?$shared_ptr@VRawImageData@@@std@@V?$basic_string@DU?$char_traits@D@std@@V?$allocator@D@2@@3@_N1@Z 0043d718 f   Arrow.obj
 0001:0003c760       __unwindfunclet$?getImagebyURL@ImageManager@@QAE?AVSimpleImage@@V?$basic_string@DU?$char_traits@D@std@@V?$allocator@D@2@@std@@_N1@Z$0 0043d760 f   Arrow.obj
 0001:0003c76d       __ehhandler$?getImagebyURL@ImageManager@@QAE?AVSimpleImage@@V?$basic_string@DU?$char_traits@D@std@@V?$allocator@D@2@@std@@_N1@Z 0043d76d f   Arrow.obj
 0001:0003c7a0       __unwindfunclet$?loadAsNew@ImageManager@@QAE?AV?$shared_ptr@VRawImageData@@@std@@V?$basic_string@DU?$char_traits@D@std@@V?$allocator@D@2@@3@@Z$0 0043d7a0 f   Arrow.obj
 0001:0003c7a8       __unwindfunclet$?loadAsNew@ImageManager@@QAE?AV?$shared_ptr@VRawImageData@@@std@@V?$basic_string@DU?$char_traits@D@std@@V?$allocator@D@2@@3@@Z$1 0043d7a8 f   Arrow.obj
 0001:0003c7bc       __ehhandler$?loadAsNew@ImageManager@@QAE?AV?$shared_ptr@VRawImageData@@@std@@V?$basic_string@DU?$char_traits@D@std@@V?$allocator@D@2@@3@@Z 0043d7bc f   Arrow.obj
 0001:0003c7f0       __unwindfunclet$?loadImage@ImageManager@@SA?AVSimpleImage@@V?$basic_string@DU?$char_traits@D@std@@V?$allocator@D@2@@std@@_N@Z$0 0043d7f0 f   Arrow.obj
 0001:0003c7f8       __unwindfunclet$?loadImage@ImageManager@@SA?AVSimpleImage@@V?$basic_string@DU?$char_traits@D@std@@V?$allocator@D@2@@std@@_N@Z$1 0043d7f8 f   Arrow.obj
 0001:0003c805       __ehhandler$?loadImage@ImageManager@@SA?AVSimpleImage@@V?$basic_string@DU?$char_traits@D@std@@V?$allocator@D@2@@std@@_N@Z 0043d805 f   Arrow.obj
 0001:0003c830       __unwindfunclet$?loadImage@RawImageData@@QAE_NV?$basic_string@DU?$char_traits@D@std@@V?$allocator@D@2@@std@@HHHHH_N@Z$0 0043d830 f   Arrow.obj
 0001:0003c83d       __ehhandler$?loadImage@RawImageData@@QAE_NV?$basic_string@DU?$char_traits@D@std@@V?$allocator@D@2@@std@@HHHHH_N@Z 0043d83d f   Arrow.obj
 0001:0003c870       __unwindfunclet$?virtInitialiseObjects@DraggingDemo@@UAEHXZ$0 0043d870 f   DraggingDemo.obj
 0001:0003c87f       __unwindfunclet$?virtInitialiseObjects@DraggingDemo@@UAEHXZ$1 0043d87f f   DraggingDemo.obj
 0001:0003c88e       __unwindfunclet$?virtInitialiseObjects@DraggingDemo@@UAEHXZ$2 0043d88e f   DraggingDemo.obj
 0001:0003c89d       __unwindfunclet$?virtInitialiseObjects@DraggingDemo@@UAEHXZ$3 0043d89d f   DraggingDemo.obj
 0001:0003c8ac       __unwindfunclet$?virtInitialiseObjects@DraggingDemo@@UAEHXZ$5 0043d8ac f   DraggingDemo.obj
 0001:0003c8c0       __ehhandler$?virtInitialiseObjects@DraggingDemo@@UAEHXZ 0043d8c0 f   DraggingDemo.obj
 0001:0003c900       __ehhandler$??$_Resize_reallocate@U_Value_init_tag@std@@@?$vector@PAVDisplayableObject@@V?$allocator@PAVDisplayableObject@@@std@@@std@@AAEXIABU_Value_init_tag@1@@Z 0043d900 f   DraggingDemo.obj
 0001:0003c930       __unwindfunclet$??$_Uninitialized_move@PAPAVDisplayableObject@@V?$allocator@PAVDisplayableObject@@@std@@@std@@YAPAPAVDisplayableObject@@QAPAV1@0PAPAV1@AAV?$allocator@PAVDisplayableObject@@@0@@Z$0 0043d930 f   DraggingDemo.obj
 0001:0003c93d       __ehhandler$??$_Uninitialized_move@PAPAVDisplayableObject@@V?$allocator@PAVDisplayableObject@@@std@@@std@@YAPAPAVDisplayableObject@@QAPAV1@0PAPAV1@AAV?$allocator@PAVDisplayableObject@@@0@@Z 0043d93d f   DraggingDemo.obj
 0001:0003c970       __unwindfunclet$??$_Uninitialized_value_construct_n@V?$allocator@PAVDisplayableObject@@@std@@@std@@YAPAPAVDisplayableObject@@PAPAV1@IAAV?$allocator@PAVDisplayableObject@@@0@@Z$0 0043d970 f   DraggingDemo.obj
 0001:0003c97d       __ehhandler$??$_Uninitialized_value_construct_n@V?$allocator@PAVDisplayableObject@@@std@@@std@@YAPAPAVDisplayableObject@@PAPAV1@IAAV?$allocator@PAVDisplayableObject@@@0@@Z 0043d97d f   DraggingDemo.obj
 0001:0003c9b0       __unwindfunclet$??0DragableImageObject@@QAE@HHPAVBaseEngine@@V?$basic_string@DU?$char_traits@D@std@@V?$allocator@D@2@@std@@_N2@Z$0 0043d9b0 f   DraggingDemo.obj
 0001:0003c9b8       __unwindfunclet$??0DragableImageObject@@QAE@HHPAVBaseEngine@@V?$basic_string@DU?$char_traits@D@std@@V?$allocator@D@2@@std@@_N2@Z$1 0043d9b8 f   DraggingDemo.obj
 0001:0003c9c0       __unwindfunclet$??0DragableImageObject@@QAE@HHPAVBaseEngine@@V?$basic_string@DU?$char_traits@D@std@@V?$allocator@D@2@@std@@_N2@Z$2 0043d9c0 f   DraggingDemo.obj
 0001:0003c9c8       __unwindfunclet$??0DragableImageObject@@QAE@HHPAVBaseEngine@@V?$basic_string@DU?$char_traits@D@std@@V?$allocator@D@2@@std@@_N2@Z$3 0043d9c8 f   DraggingDemo.obj
 0001:0003c9d8       __ehhandler$??0DragableImageObject@@QAE@HHPAVBaseEngine@@V?$basic_string@DU?$char_traits@D@std@@V?$allocator@D@2@@std@@_N2@Z 0043d9d8 f   DraggingDemo.obj
 0001:0003ca10       __unwindfunclet$??0DragableObject@@QAE@HHPAVBaseEngine@@HH_N1@Z$0 0043da10 f   DraggingDemo.obj
 0001:0003ca1d       __ehhandler$??0DragableObject@@QAE@HHPAVBaseEngine@@HH_N1@Z 0043da1d f   DraggingDemo.obj
 0001:0003ca50       __unwindfunclet$??0DragableObject@@QAE@PAVBaseEngine@@HH_N1@Z$0 0043da50 f   DraggingDemo.obj
 0001:0003ca5d       __ehhandler$??0DragableObject@@QAE@PAVBaseEngine@@HH_N1@Z 0043da5d f   DraggingDemo.obj
 0001:0003ca90       __unwindfunclet$??0ImageObject@@QAE@HHPAVBaseEngine@@V?$basic_string@DU?$char_traits@D@std@@V?$allocator@D@2@@std@@_N2@Z$0 0043da90 f   DraggingDemo.obj
 0001:0003ca98       __unwindfunclet$??0ImageObject@@QAE@HHPAVBaseEngine@@V?$basic_string@DU?$char_traits@D@std@@V?$allocator@D@2@@std@@_N2@Z$1 0043da98 f   DraggingDemo.obj
 0001:0003caa0       __unwindfunclet$??0ImageObject@@QAE@HHPAVBaseEngine@@V?$basic_string@DU?$char_traits@D@std@@V?$allocator@D@2@@std@@_N2@Z$2 0043daa0 f   DraggingDemo.obj
 0001:0003caa8       __unwindfunclet$??0ImageObject@@QAE@HHPAVBaseEngine@@V?$basic_string@DU?$char_traits@D@std@@V?$allocator@D@2@@std@@_N2@Z$3 0043daa8 f   DraggingDemo.obj
 0001:0003cab8       __ehhandler$??0ImageObject@@QAE@HHPAVBaseEngine@@V?$basic_string@DU?$char_traits@D@std@@V?$allocator@D@2@@std@@_N2@Z 0043dab8 f   DraggingDemo.obj
 0001:0003caf0       __unwindfunclet$?_Orphan_range_locked@?$vector@PAVDisplayableObject@@V?$allocator@PAVDisplayableObject@@@std@@@std@@ABEXPAPAVDisplayableObject@@0@Z$0 0043daf0 f   DraggingDemo.obj
 0001:0003cafe       __ehhandler$?_Orphan_range_locked@?$vector@PAVDisplayableObject@@V?$allocator@PAVDisplayableObject@@@std@@@std@@ABEXPAPAVDisplayableObject@@0@Z 0043dafe f   DraggingDemo.obj
 0001:0003cb30       __unwindfunclet$?virtDraw@Enemy@@UAEXXZ$0 0043db30 f   Enemy.obj
 0001:0003cb3d       __ehhandler$?virtDraw@Enemy@@UAEXXZ 0043db3d f   Enemy.obj
 0001:0003cb64       __unwindfunclet$?virtDoUpdate@Enemy@@UAEXH@Z$0 0043db64 f   Enemy.obj
 0001:0003cb78       __ehhandler$?virtDoUpdate@Enemy@@UAEXH@Z 0043db78 f   Enemy.obj
 0001:0003cbb0       __ehhandler$??$_Emplace_reallocate@ABQAVDisplayableObject@@@?$vector@PAVDisplayableObject@@V?$allocator@PAVDisplayableObject@@@std@@@std@@AAEPAPAVDisplayableObject@@QAPAV2@ABQAV2@@Z 0043dbb0 f   Enemy.obj
 0001:0003cbe0       __ehhandler$??0?$basic_string@DU?$char_traits@D@std@@V?$allocator@D@2@@std@@QAE@XZ 0043dbe0 f   Enemy.obj
 0001:0003cc10       __unwindfunclet$??0Attack@@QAE@PAVBaseEngine@@HHH@Z$0 0043dc10 f   Enemy.obj
 0001:0003cc1d       __ehhandler$??0Attack@@QAE@PAVBaseEngine@@HHH@Z 0043dc1d f   Enemy.obj
 0001:0003cc50       __unwindfunclet$??0GameObject@@QAE@HHPAVBaseEngine@@HH_N@Z$0 0043dc50 f   Enemy.obj
 0001:0003cc5d       __ehhandler$??0GameObject@@QAE@HHPAVBaseEngine@@HH_N@Z 0043dc5d f   Enemy.obj
 0001:0003cc90       __unwindfunclet$??0FlashingDemo@@QAE@XZ$0 0043dc90 f   FlashingDemo.obj
 0001:0003cc98       __unwindfunclet$??0FlashingDemo@@QAE@XZ$1 0043dc98 f   FlashingDemo.obj
 0001:0003cca6       __unwindfunclet$??0FlashingDemo@@QAE@XZ$2 0043dca6 f   FlashingDemo.obj
 0001:0003ccb9       __ehhandler$??0FlashingDemo@@QAE@XZ 0043dcb9 f   FlashingDemo.obj
 0001:0003ccf0       __unwindfunclet$?virtInitialiseObjects@ImageMappingDemo@@UAEHXZ$0 0043dcf0 f   ImageMappingDemo.obj
 0001:0003ccff       __unwindfunclet$?virtInitialiseObjects@ImageMappingDemo@@UAEHXZ$2 0043dcff f   ImageMappingDemo.obj
 0001:0003cd0e       __unwindfunclet$?virtInitialiseObjects@ImageMappingDemo@@UAEHXZ$4 0043dd0e f   ImageMappingDemo.obj
 0001:0003cd1d       __unwindfunclet$?virtInitialiseObjects@ImageMappingDemo@@UAEHXZ$6 0043dd1d f   ImageMappingDemo.obj
 0001:0003cd2c       __unwindfunclet$?virtInitialiseObjects@ImageMappingDemo@@UAEHXZ$8 0043dd2c f   ImageMappingDemo.obj
 0001:0003cd40       __ehhandler$?virtInitialiseObjects@ImageMappingDemo@@UAEHXZ 0043dd40 f   ImageMappingDemo.obj
 0001:0003cd80       __unwindfunclet$??0MappableImageObject@@QAE@PAVImagePixelMapping@@HHPAVBaseEngine@@V?$basic_string@DU?$char_traits@D@std@@V?$allocator@D@2@@std@@_N3@Z$0 0043dd80 f   ImageMappingDemo.obj
 0001:0003cd8d       __ehhandler$??0MappableImageObject@@QAE@PAVImagePixelMapping@@HHPAVBaseEngine@@V?$basic_string@DU?$char_traits@D@std@@V?$allocator@D@2@@std@@_N3@Z 0043dd8d f   ImageMappingDemo.obj
 0001:0003cdc0       __unwindfunclet$?virtDraw@MST@@UAEXXZ$0 0043ddc0 f   MST.obj
 0001:0003cdc8       __unwindfunclet$?virtDraw@MST@@UAEXXZ$2 0043ddc8 f   MST.obj
 0001:0003cdd5       __ehhandler$?virtDraw@MST@@UAEXXZ 0043ddd5 f   MST.obj
 0001:0003cdfc       __unwindfunclet$?minimumSpanningTree@@YA?AV?$vector@UEdge@@V?$allocator@UEdge@@@std@@@std@@V?$vector@UNode@@V?$allocator@UNode@@@std@@@2@@Z$0 0043ddfc f   MST.obj
 0001:0003ce04       __unwindfunclet$?minimumSpanningTree@@YA?AV?$vector@UEdge@@V?$allocator@UEdge@@@std@@@std@@V?$vector@UNode@@V?$allocator@UNode@@@std@@@2@@Z$1 0043de04 f   MST.obj
 0001:0003ce0f       __unwindfunclet$?minimumSpanningTree@@YA?AV?$vector@UEdge@@V?$allocator@UEdge@@@std@@@std@@V?$vector@UNode@@V?$allocator@UNode@@@std@@@2@@Z$2 0043de0f f   MST.obj
 0001:0003ce17       __unwindfunclet$?minimumSpanningTree@@YA?AV?$vector@UEdge@@V?$allocator@UEdge@@@std@@@std@@V?$vector@UNode@@V?$allocator@UNode@@@std@@@2@@Z$4 0043de17 f   MST.obj
 0001:0003ce27       __ehhandler$?minimumSpanningTree@@YA?AV?$vector@UEdge@@V?$allocator@UEdge@@@std@@@std@@V?$vector@UNode@@V?$allocator@UNode@@@std@@@2@@Z 0043de27 f   MST.obj
 0001:0003ce80       __unwindfunclet$??$_Construct_n@ABI@?$vector@IV?$allocator@I@std@@@std@@AAEXIABI@Z$0 0043de80 f   MST.obj
 0001:0003ce88       __unwindfunclet$??$_Construct_n@ABI@?$vector@IV?$allocator@I@std@@@std@@AAEXIABI@Z$1 0043de88 f   MST.obj
 0001:0003ce95       __ehhandler$??$_Construct_n@ABI@?$vector@IV?$allocator@I@std@@@std@@AAEXIABI@Z 0043de95 f   MST.obj
 0001:0003cec0       __unwindfunclet$??$_Construct_n@ABQAUNode@@ABQAU1@@?$vector@UNode@@V?$allocator@UNode@@@std@@@std@@AAEXIABQAUNode@@0@Z$0 0043dec0 f   MST.obj
 0001:0003cec8       __unwindfunclet$??$_Construct_n@ABQAUNode@@ABQAU1@@?$vector@UNode@@V?$allocator@UNode@@@std@@@std@@AAEXIABQAUNode@@0@Z$1 0043dec8 f   MST.obj
 0001:0003ced5       __ehhandler$??$_Construct_n@ABQAUNode@@ABQAU1@@?$vector@UNode@@V?$allocator@UNode@@@std@@@std@@AAEXIABQAUNode@@0@Z 0043ded5 f   MST.obj
 0001:0003cf00       __ehhandler$??$_Emplace_reallocate@ABUEdge@@@?$vector@UEdge@@V?$allocator@UEdge@@@std@@@std@@AAEPAUEdge@@QAU2@ABU2@@Z 0043df00 f   MST.obj
 0001:0003cf30       __ehhandler$??$_Emplace_reallocate@ABUNode@@@?$vector@UNode@@V?$allocator@UNode@@@std@@@std@@AAEPAUNode@@QAU2@ABU2@@Z 0043df30 f   MST.obj
 0001:0003cf60       __unwindfunclet$??$_Uninitialized_copy@PAUNode@@V?$allocator@UNode@@@std@@@std@@YAPAUNode@@QAU1@0PAU1@AAV?$allocator@UNode@@@0@@Z$0 0043df60 f   MST.obj
 0001:0003cf6d       __ehhandler$??$_Uninitialized_copy@PAUNode@@V?$allocator@UNode@@@std@@@std@@YAPAUNode@@QAU1@0PAU1@AAV?$allocator@UNode@@@0@@Z 0043df6d f   MST.obj
 0001:0003cfa0       __unwindfunclet$??$_Uninitialized_fill_n@V?$allocator@I@std@@@std@@YAPAIPAIIABIAAV?$allocator@I@0@@Z$0 0043dfa0 f   MST.obj
 0001:0003cfad       __ehhandler$??$_Uninitialized_fill_n@V?$allocator@I@std@@@std@@YAPAIPAIIABIAAV?$allocator@I@0@@Z 0043dfad f   MST.obj
 0001:0003cfe0       __unwindfunclet$??$_Uninitialized_move@PAUEdge@@V?$allocator@UEdge@@@std@@@std@@YAPAUEdge@@QAU1@0PAU1@AAV?$allocator@UEdge@@@0@@Z$0 0043dfe0 f   MST.obj
 0001:0003cfed       __ehhandler$??$_Uninitialized_move@PAUEdge@@V?$allocator@UEdge@@@std@@@std@@YAPAUEdge@@QAU1@0PAU1@AAV?$allocator@UEdge@@@0@@Z 0043dfed f   MST.obj
 0001:0003d020       __unwindfunclet$??$_Uninitialized_move@PAUNode@@V?$allocator@UNode@@@std@@@std@@YAPAUNode@@QAU1@0PAU1@AAV?$allocator@UNode@@@0@@Z$0 0043e020 f   MST.obj
 0001:0003d02d       __ehhandler$??$_Uninitialized_move@PAUNode@@V?$allocator@UNode@@@std@@@std@@YAPAUNode@@QAU1@0PAU1@AAV?$allocator@UNode@@@0@@Z 0043e02d f   MST.obj
 0001:0003d060       __unwindfunclet$??$for_each@V?$_Vector_const_iterator@V?$_Vector_val@U?$_Simple_types@PAVDisplayableObject@@@std@@@std@@@std@@V<lambda_8680d8acf56a2b8556b7ef4ea6c3cac6>@@@std@@YA?AV<lambda_8680d8acf56a2b8556b7ef4ea6c3cac6>@@V?$_Vector_const_iterator@V?$_Vector_val@U?$_Simple_types@PAVDisplayableObject@@@std@@@std@@@0@0V1@@Z$0 0043e060 f   MST.obj
 0001:0003d068       __unwindfunclet$??$for_each@V?$_Vector_const_iterator@V?$_Vector_val@U?$_Simple_types@PAVDisplayableObject@@@std@@@std@@@std@@V<lambda_8680d8acf56a2b8556b7ef4ea6c3cac6>@@@std@@YA?AV<lambda_8680d8acf56a2b8556b7ef4ea6c3cac6>@@V?$_Vector_const_iterator@V?$_Vector_val@U?$_Simple_types@PAVDisplayableObject@@@std@@@std@@@0@0V1@@Z$1 0043e068 f   MST.obj
 0001:0003d075       __ehhandler$??$for_each@V?$_Vector_const_iterator@V?$_Vector_val@U?$_Simple_types@PAVDisplayableObject@@@std@@@std@@@std@@V<lambda_8680d8acf56a2b8556b7ef4ea6c3cac6>@@@std@@YA?AV<lambda_8680d8acf56a2b8556b7ef4ea6c3cac6>@@V?$_Vector_const_iterator@V?$_Vector_val@U?$_Simple_types@PAVDisplayableObject@@@std@@@std@@@0@0V1@@Z 0043e075 f   MST.obj
 0001:0003d0a0       __unwindfunclet$??$pop_heap@V?$_Vector_iterator@V?$_Vector_val@U?$_Simple_types@UEdge@@@std@@@std@@@std@@U?$less@UEdge@@@2@@std@@YAXV?$_Vector_iterator@V?$_Vector_val@U?$_Simple_types@UEdge@@@std@@@std@@@0@0U?$less@UEdge@@@0@@Z$0 0043e0a0 f   MST.obj
 0001:0003d0a8       __unwindfunclet$??$pop_heap@V?$_Vector_iterator@V?$_Vector_val@U?$_Simple_types@UEdge@@@std@@@std@@@std@@U?$less@UEdge@@@2@@std@@YAXV?$_Vector_iterator@V?$_Vector_val@U?$_Simple_types@UEdge@@@std@@@std@@@0@0U?$less@UEdge@@@0@@Z$1 0043e0a8 f   MST.obj
 0001:0003d0b5       __ehhandler$??$pop_heap@V?$_Vector_iterator@V?$_Vector_val@U?$_Simple_types@UEdge@@@std@@@std@@@std@@U?$less@UEdge@@@2@@std@@YAXV?$_Vector_iterator@V?$_Vector_val@U?$_Simple_types@UEdge@@@std@@@std@@@0@0U?$less@UEdge@@@0@@Z 0043e0b5 f   MST.obj
 0001:0003d0e0       __unwindfunclet$??$push_heap@V?$_Vector_iterator@V?$_Vector_val@U?$_Simple_types@UEdge@@@std@@@std@@@std@@U?$less@UEdge@@@2@@std@@YAXV?$_Vector_iterator@V?$_Vector_val@U?$_Simple_types@UEdge@@@std@@@std@@@0@0U?$less@UEdge@@@0@@Z$0 0043e0e0 f   MST.obj
 0001:0003d0e8       __unwindfunclet$??$push_heap@V?$_Vector_iterator@V?$_Vector_val@U?$_Simple_types@UEdge@@@std@@@std@@@std@@U?$less@UEdge@@@2@@std@@YAXV?$_Vector_iterator@V?$_Vector_val@U?$_Simple_types@UEdge@@@std@@@std@@@0@0U?$less@UEdge@@@0@@Z$1 0043e0e8 f   MST.obj
 0001:0003d0f5       __ehhandler$??$push_heap@V?$_Vector_iterator@V?$_Vector_val@U?$_Simple_types@UEdge@@@std@@@std@@@std@@U?$less@UEdge@@@2@@std@@YAXV?$_Vector_iterator@V?$_Vector_val@U?$_Simple_types@UEdge@@@std@@@std@@@0@0U?$less@UEdge@@@0@@Z 0043e0f5 f   MST.obj
 0001:0003d130       __unwindfunclet$??0?$_Vb_val@V?$allocator@_N@std@@@std@@QAE@IAB_NABV?$allocator@_N@1@@Z$0 0043e130 f   MST.obj
 0001:0003d140       __ehhandler$??0?$_Vb_val@V?$allocator@_N@std@@@std@@QAE@IAB_NABV?$allocator@_N@1@@Z 0043e140 f   MST.obj
 0001:0003d170       __ehhandler$??0?$vector@UEdge@@V?$allocator@UEdge@@@std@@@std@@QAE@$$QAV01@@Z 0043e170 f   MST.obj
 0001:0003d1a0       __ehhandler$??0?$vector@UEdge@@V?$allocator@UEdge@@@std@@@std@@QAE@XZ 0043e1a0 f   MST.obj
 0001:0003d1d0       __ehhandler$??0?$vector@UNode@@V?$allocator@UNode@@@std@@@std@@QAE@XZ 0043e1d0 f   MST.obj
 0001:0003d200       __unwindfunclet$??0?$vector@_NV?$allocator@_N@std@@@std@@QAE@IAB_NABV?$allocator@_N@1@@Z$0 0043e200 f   MST.obj
 0001:0003d20d       __ehhandler$??0?$vector@_NV?$allocator@_N@std@@@std@@QAE@IAB_NABV?$allocator@_N@1@@Z 0043e20d f   MST.obj
 0001:0003d240       __unwindfunclet$?_Orphan_range_locked@?$vector@IV?$allocator@I@std@@@std@@ABEXPAI0@Z$0 0043e240 f   MST.obj
 0001:0003d24e       __ehhandler$?_Orphan_range_locked@?$vector@IV?$allocator@I@std@@@std@@ABEXPAI0@Z 0043e24e f   MST.obj
 0001:0003d280       __unwindfunclet$?_Orphan_range_locked@?$vector@UEdge@@V?$allocator@UEdge@@@std@@@std@@ABEXPAUEdge@@0@Z$0 0043e280 f   MST.obj
 0001:0003d28e       __ehhandler$?_Orphan_range_locked@?$vector@UEdge@@V?$allocator@UEdge@@@std@@@std@@ABEXPAUEdge@@0@Z 0043e28e f   MST.obj
 0001:0003d2c0       __unwindfunclet$?_Orphan_range_locked@?$vector@UNode@@V?$allocator@UNode@@@std@@@std@@ABEXPAUNode@@0@Z$0 0043e2c0 f   MST.obj
 0001:0003d2ce       __ehhandler$?_Orphan_range_locked@?$vector@UNode@@V?$allocator@UNode@@@std@@@std@@ABEXPAUNode@@0@Z 0043e2ce f   MST.obj
 0001:0003d300       __ehhandler$?_Tidy@?$vector@IV?$allocator@I@std@@@std@@AAEXXZ 0043e300 f   MST.obj
 0001:0003d330       __ehhandler$?_Tidy@?$vector@UEdge@@V?$allocator@UEdge@@@std@@@std@@AAEXXZ 0043e330 f   MST.obj
 0001:0003d360       __ehhandler$?_Tidy@?$vector@UNode@@V?$allocator@UNode@@@std@@@std@@AAEXXZ 0043e360 f   MST.obj
 0001:0003d390       __ehhandler$?erase@?$vector@IV?$allocator@I@std@@@std@@QAE?AV?$_Vector_iterator@V?$_Vector_val@U?$_Simple_types@I@std@@@std@@@2@V?$_Vector_const_iterator@V?$_Vector_val@U?$_Simple_types@I@std@@@std@@@2@0@Z 0043e390 f   MST.obj
 0001:0003d3c0       __ehhandler$?pop_back@?$vector@UEdge@@V?$allocator@UEdge@@@std@@@std@@QAEXXZ 0043e3c0 f   MST.obj
 0001:0003d3f0       __unwindfunclet$?virtDrawTileAt@NumberTiles@@UBEXPAVBaseEngine@@PAVDrawingSurface@@HHHH@Z$0 0043e3f0 f   NumberTiles.obj
 0001:0003d3f8       __unwindfunclet$?virtDrawTileAt@NumberTiles@@UBEXPAVBaseEngine@@PAVDrawingSurface@@HHHH@Z$2 0043e3f8 f   NumberTiles.obj
 0001:0003d405       __ehhandler$?virtDrawTileAt@NumberTiles@@UBEXPAVBaseEngine@@PAVDrawingSurface@@HHHH@Z 0043e405 f   NumberTiles.obj
 0001:0003d440       __unwindfunclet$?virtSetupBackgroundBuffer@LoseState@@UAEXXZ$1 0043e440 f   LoseState.obj
 0001:0003d448       __unwindfunclet$?virtSetupBackgroundBuffer@LoseState@@UAEXXZ$2 0043e448 f   LoseState.obj
 0001:0003d455       __ehhandler$?virtSetupBackgroundBuffer@LoseState@@UAEXXZ 0043e455 f   LoseState.obj
 0001:0003d475       __unwindfunclet$?virtKeyDown@LoseState@@UAEXH@Z$0 0043e475 f   LoseState.obj
 0001:0003d489       __ehhandler$?virtKeyDown@LoseState@@UAEXH@Z 0043e489 f   LoseState.obj
 0001:0003d4a6       __ehhandler$??1LoseState@@UAE@XZ 0043e4a6 f   LoseState.obj
 0001:0003d4f0       __unwindfunclet$?doProgram@@YAHHQAPAD@Z$0 0043e4f0 f   mainfunction.obj
 0001:0003d500       __ehhandler$?doProgram@@YAHHQAPAD@Z 0043e500 f   mainfunction.obj
 0001:0003d540       __ehhandler$??$_Freenode0@V?$allocator@U?$_Tree_node@U?$pair@$$CBV?$basic_string@DU?$char_traits@D@std@@V?$allocator@D@2@@std@@V?$shared_ptr@VRawImageData@@@2@@std@@PAX@std@@@std@@@?$_Tree_node@U?$pair@$$CBV?$basic_string@DU?$char_traits@D@std@@V?$allocator@D@2@@std@@V?$shared_ptr@VRawImageData@@@2@@std@@PAX@std@@SAXAAV?$allocator@U?$_Tree_node@U?$pair@$$CBV?$basic_string@DU?$char_traits@D@std@@V?$allocator@D@2@@std@@V?$shared_ptr@VRawImageData@@@2@@std@@PAX@std@@@1@PAU01@@Z 0043e540 f   mainfunction.obj
 0001:0003d570       __ehhandler$??$_Freenode@V?$allocator@U?$_Tree_node@U?$pair@$$CBV?$basic_string@DU?$char_traits@D@std@@V?$allocator@D@2@@std@@V?$shared_ptr@VRawImageData@@@2@@std@@PAX@std@@@std@@@?$_Tree_node@U?$pair@$$CBV?$basic_string@DU?$char_traits@D@std@@V?$allocator@D@2@@std@@V?$shared_ptr@VRawImageData@@@2@@std@@PAX@std@@SAXAAV?$allocator@U?$_Tree_node@U?$pair@$$CBV?$basic_string@DU?$char_traits@D@std@@V?$allocator@D@2@@std@@V?$shared_ptr@VRawImageData@@@2@@std@@PAX@std@@@1@PAU01@@Z 0043e570 f   mainfunction.obj
 0001:0003d5a0       __unwindfunclet$??0BaseEngine@@QAE@XZ$0 0043e5a0 f   BaseEngine.obj
 0001:0003d5a8       __unwindfunclet$??0BaseEngine@@QAE@XZ$1 0043e5a8 f   BaseEngine.obj
 0001:0003d5b6       __unwindfunclet$??0BaseEngine@@QAE@XZ$2 0043e5b6 f   BaseEngine.obj
 0001:0003d5c9       __ehhandler$??0BaseEngine@@QAE@XZ 0043e5c9 f   BaseEngine.obj
 0001:0003d5e6       __unwindfunclet$?drawAllObjects@BaseEngine@@UAEXXZ$0 0043e5e6 f   BaseEngine.obj
 0001:0003d5ee       __unwindfunclet$?drawAllObjects@BaseEngine@@UAEXXZ$3 0043e5ee f   BaseEngine.obj
 0001:0003d5fb       __ehhandler$?drawAllObjects@BaseEngine@@UAEXXZ 0043e5fb f   BaseEngine.obj
 0001:0003d618       __unwindfunclet$?updateAllObjects@BaseEngine@@UAEXH@Z$0 0043e618 f   BaseEngine.obj
 0001:0003d620       __unwindfunclet$?updateAllObjects@BaseEngine@@UAEXH@Z$3 0043e620 f   BaseEngine.obj
 0001:0003d62d       __ehhandler$?updateAllObjects@BaseEngine@@UAEXH@Z 0043e62d f   BaseEngine.obj
 0001:0003d680       __unwindfunclet$??$_Construct_n@$$V@?$vector@PAVDisplayableObject@@V?$allocator@PAVDisplayableObject@@@std@@@std@@AAEXI@Z$0 0043e680 f   BaseEngine.obj
 0001:0003d688       __unwindfunclet$??$_Construct_n@$$V@?$vector@PAVDisplayableObject@@V?$allocator@PAVDisplayableObject@@@std@@@std@@AAEXI@Z$1 0043e688 f   BaseEngine.obj
 0001:0003d695       __ehhandler$??$_Construct_n@$$V@?$vector@PAVDisplayableObject@@V?$allocator@PAVDisplayableObject@@@std@@@std@@AAEXI@Z 0043e695 f   BaseEngine.obj
 0001:0003d6c0       __unwindfunclet$??$for_each@V?$_Vector_iterator@V?$_Vector_val@U?$_Simple_types@PAVDisplayableObject@@@std@@@std@@@std@@V<lambda_57ee486f2f872818e4e1ef76732269ef>@@@std@@YA?AV<lambda_57ee486f2f872818e4e1ef76732269ef>@@V?$_Vector_iterator@V?$_Vector_val@U?$_Simple_types@PAVDisplayableObject@@@std@@@std@@@0@0V1@@Z$0 0043e6c0 f   BaseEngine.obj
 0001:0003d6c8       __unwindfunclet$??$for_each@V?$_Vector_iterator@V?$_Vector_val@U?$_Simple_types@PAVDisplayableObject@@@std@@@std@@@std@@V<lambda_57ee486f2f872818e4e1ef76732269ef>@@@std@@YA?AV<lambda_57ee486f2f872818e4e1ef76732269ef>@@V?$_Vector_iterator@V?$_Vector_val@U?$_Simple_types@PAVDisplayableObject@@@std@@@std@@@0@0V1@@Z$1 0043e6c8 f   BaseEngine.obj
 0001:0003d6d5       __ehhandler$??$for_each@V?$_Vector_iterator@V?$_Vector_val@U?$_Simple_types@PAVDisplayableObject@@@std@@@std@@@std@@V<lambda_57ee486f2f872818e4e1ef76732269ef>@@@std@@YA?AV<lambda_57ee486f2f872818e4e1ef76732269ef>@@V?$_Vector_iterator@V?$_Vector_val@U?$_Simple_types@PAVDisplayableObject@@@std@@@std@@@0@0V1@@Z 0043e6d5 f   BaseEngine.obj
 0001:0003d700       __unwindfunclet$??$for_each@V?$_Vector_iterator@V?$_Vector_val@U?$_Simple_types@PAVDisplayableObject@@@std@@@std@@@std@@V<lambda_83eb8fcb36b73c451092a4848be40800>@@@std@@YA?AV<lambda_83eb8fcb36b73c451092a4848be40800>@@V?$_Vector_iterator@V?$_Vector_val@U?$_Simple_types@PAVDisplayableObject@@@std@@@std@@@0@0V1@@Z$0 0043e700 f   BaseEngine.obj
 0001:0003d708       __unwindfunclet$??$for_each@V?$_Vector_iterator@V?$_Vector_val@U?$_Simple_types@PAVDisplayableObject@@@std@@@std@@@std@@V<lambda_83eb8fcb36b73c451092a4848be40800>@@@std@@YA?AV<lambda_83eb8fcb36b73c451092a4848be40800>@@V?$_Vector_iterator@V?$_Vector_val@U?$_Simple_types@PAVDisplayableObject@@@std@@@std@@@0@0V1@@Z$1 0043e708 f   BaseEngine.obj
 0001:0003d715       __ehhandler$??$for_each@V?$_Vector_iterator@V?$_Vector_val@U?$_Simple_types@PAVDisplayableObject@@@std@@@std@@@std@@V<lambda_83eb8fcb36b73c451092a4848be40800>@@@std@@YA?AV<lambda_83eb8fcb36b73c451092a4848be40800>@@V?$_Vector_iterator@V?$_Vector_val@U?$_Simple_types@PAVDisplayableObject@@@std@@@std@@@0@0V1@@Z 0043e715 f   BaseEngine.obj
 0001:0003d740       __unwindfunclet$??$for_each@V?$_Vector_iterator@V?$_Vector_val@U?$_Simple_types@PAVDisplayableObject@@@std@@@std@@@std@@V<lambda_9a6d32bae543137263d1d545e39fdd7d>@@@std@@YA?AV<lambda_9a6d32bae543137263d1d545e39fdd7d>@@V?$_Vector_iterator@V?$_Vector_val@U?$_Simple_types@PAVDisplayableObject@@@std@@@std@@@0@0V1@@Z$0 0043e740 f   BaseEngine.obj
 0001:0003d748       __unwindfunclet$??$for_each@V?$_Vector_iterator@V?$_Vector_val@U?$_Simple_types@PAVDisplayableObject@@@std@@@std@@@std@@V<lambda_9a6d32bae543137263d1d545e39fdd7d>@@@std@@YA?AV<lambda_9a6d32bae543137263d1d545e39fdd7d>@@V?$_Vector_iterator@V?$_Vector_val@U?$_Simple_types@PAVDisplayableObject@@@std@@@std@@@0@0V1@@Z$1 0043e748 f   BaseEngine.obj
 0001:0003d755       __ehhandler$??$for_each@V?$_Vector_iterator@V?$_Vector_val@U?$_Simple_types@PAVDisplayableObject@@@std@@@std@@@std@@V<lambda_9a6d32bae543137263d1d545e39fdd7d>@@@std@@YA?AV<lambda_9a6d32bae543137263d1d545e39fdd7d>@@V?$_Vector_iterator@V?$_Vector_val@U?$_Simple_types@PAVDisplayableObject@@@std@@@std@@@0@0V1@@Z 0043e755 f   BaseEngine.obj
 0001:0003d780       __unwindfunclet$??$for_each@V?$_Vector_iterator@V?$_Vector_val@U?$_Simple_types@PAVDisplayableObject@@@std@@@std@@@std@@V<lambda_aaa801efaf28ef4796b623796d655d59>@@@std@@YA?AV<lambda_aaa801efaf28ef4796b623796d655d59>@@V?$_Vector_iterator@V?$_Vector_val@U?$_Simple_types@PAVDisplayableObject@@@std@@@std@@@0@0V1@@Z$0 0043e780 f   BaseEngine.obj
 0001:0003d788       __unwindfunclet$??$for_each@V?$_Vector_iterator@V?$_Vector_val@U?$_Simple_types@PAVDisplayableObject@@@std@@@std@@@std@@V<lambda_aaa801efaf28ef4796b623796d655d59>@@@std@@YA?AV<lambda_aaa801efaf28ef4796b623796d655d59>@@V?$_Vector_iterator@V?$_Vector_val@U?$_Simple_types@PAVDisplayableObject@@@std@@@std@@@0@0V1@@Z$1 0043e788 f   BaseEngine.obj
 0001:0003d795       __ehhandler$??$for_each@V?$_Vector_iterator@V?$_Vector_val@U?$_Simple_types@PAVDisplayableObject@@@std@@@std@@@std@@V<lambda_aaa801efaf28ef4796b623796d655d59>@@@std@@YA?AV<lambda_aaa801efaf28ef4796b623796d655d59>@@V?$_Vector_iterator@V?$_Vector_val@U?$_Simple_types@PAVDisplayableObject@@@std@@@std@@@0@0V1@@Z 0043e795 f   BaseEngine.obj
 0001:0003d7c0       __unwindfunclet$??$for_each@V?$_Vector_iterator@V?$_Vector_val@U?$_Simple_types@PAVDisplayableObject@@@std@@@std@@@std@@V<lambda_b68d6ab0d55fd1970844512a3930ef49>@@@std@@YA?AV<lambda_b68d6ab0d55fd1970844512a3930ef49>@@V?$_Vector_iterator@V?$_Vector_val@U?$_Simple_types@PAVDisplayableObject@@@std@@@std@@@0@0V1@@Z$0 0043e7c0 f   BaseEngine.obj
 0001:0003d7c8       __unwindfunclet$??$for_each@V?$_Vector_iterator@V?$_Vector_val@U?$_Simple_types@PAVDisplayableObject@@@std@@@std@@@std@@V<lambda_b68d6ab0d55fd1970844512a3930ef49>@@@std@@YA?AV<lambda_b68d6ab0d55fd1970844512a3930ef49>@@V?$_Vector_iterator@V?$_Vector_val@U?$_Simple_types@PAVDisplayableObject@@@std@@@std@@@0@0V1@@Z$1 0043e7c8 f   BaseEngine.obj
 0001:0003d7d5       __ehhandler$??$for_each@V?$_Vector_iterator@V?$_Vector_val@U?$_Simple_types@PAVDisplayableObject@@@std@@@std@@@std@@V<lambda_b68d6ab0d55fd1970844512a3930ef49>@@@std@@YA?AV<lambda_b68d6ab0d55fd1970844512a3930ef49>@@V?$_Vector_iterator@V?$_Vector_val@U?$_Simple_types@PAVDisplayableObject@@@std@@@std@@@0@0V1@@Z 0043e7d5 f   BaseEngine.obj
 0001:0003d800       __ehhandler$??1DisplayableObjectContainer@@UAE@XZ 0043e800 f   BaseEngine.obj
 0001:0003d830       __ehhandler$?_Tidy@?$vector@PAVDisplayableObject@@V?$allocator@PAVDisplayableObject@@@std@@@std@@AAEXXZ 0043e830 f   BaseEngine.obj
 0001:0003d860       __unwindfunclet$?getFont@FontManager@@QAEPAVFont@@PBDH@Z$0 0043e860 f   FontManager.obj
 0001:0003d874       __ehhandler$?getFont@FontManager@@QAEPAVFont@@PBDH@Z 0043e874 f   FontManager.obj
 0001:0003d8a0       __unwindfunclet$?virtDraw@Player@@UAEXXZ$0 0043e8a0 f   Player.obj
 0001:0003d8ad       __ehhandler$?virtDraw@Player@@UAEXXZ 0043e8ad f   Player.obj
 0001:0003d8f0       __unwindfunclet$??0Psydp3Engine@@QAE@XZ$0 0043e8f0 f   Psydp3Engine.obj
 0001:0003d8f8       __unwindfunclet$??0Psydp3Engine@@QAE@XZ$1 0043e8f8 f   Psydp3Engine.obj
 0001:0003d906       __unwindfunclet$??0Psydp3Engine@@QAE@XZ$2 0043e906 f   Psydp3Engine.obj
 0001:0003d914       __unwindfunclet$??0Psydp3Engine@@QAE@XZ$3 0043e914 f   Psydp3Engine.obj
 0001:0003d922       __unwindfunclet$??0Psydp3Engine@@QAE@XZ$4 0043e922 f   Psydp3Engine.obj
 0001:0003d936       __ehhandler$??0Psydp3Engine@@QAE@XZ 0043e936 f   Psydp3Engine.obj
 0001:0003d953       __unwindfunclet$?uploadScore@Psydp3Engine@@QAEXXZ$0 0043e953 f   Psydp3Engine.obj
 0001:0003d963       __ehhandler$?uploadScore@Psydp3Engine@@QAEXXZ 0043e963 f   Psydp3Engine.obj
 0001:0003d9b0       __unwindfunclet$??$use_facet@V?$codecvt@DDU_Mbstatet@@@std@@@std@@YAABV?$codecvt@DDU_Mbstatet@@@0@ABVlocale@0@@Z$0 0043e9b0 f   Psydp3Engine.obj
 0001:0003d9b9       __unwindfunclet$??$use_facet@V?$codecvt@DDU_Mbstatet@@@std@@@std@@YAABV?$codecvt@DDU_Mbstatet@@@0@ABVlocale@0@@Z$1 0043e9b9 f   Psydp3Engine.obj
 0001:0003d9c6       __ehhandler$??$use_facet@V?$codecvt@DDU_Mbstatet@@@std@@@std@@YAABV?$codecvt@DDU_Mbstatet@@@0@ABVlocale@0@@Z 0043e9c6 f   Psydp3Engine.obj
 0001:0003d9f0       __unwindfunclet$??0?$basic_filebuf@DU?$char_traits@D@std@@@std@@QAE@XZ$0 0043e9f0 f   Psydp3Engine.obj
 0001:0003d9fe       __ehhandler$??0?$basic_filebuf@DU?$char_traits@D@std@@@std@@QAE@XZ 0043e9fe f   Psydp3Engine.obj
 0001:0003da30       __unwindfunclet$??0?$basic_ofstream@DU?$char_traits@D@std@@@std@@QAE@XZ$0 0043ea30 f   Psydp3Engine.obj
 0001:0003da4d       __unwindfunclet$??0?$basic_ofstream@DU?$char_traits@D@std@@@std@@QAE@XZ$1 0043ea4d f   Psydp3Engine.obj
 0001:0003da5e       __ehhandler$??0?$basic_ofstream@DU?$char_traits@D@std@@@std@@QAE@XZ 0043ea5e f   Psydp3Engine.obj
 0001:0003da90       __ehhandler$??1?$basic_filebuf@DU?$char_traits@D@std@@@std@@UAE@XZ 0043ea90 f   Psydp3Engine.obj
 0001:0003dac0       __unwindfunclet$?open@?$basic_filebuf@DU?$char_traits@D@std@@@std@@QAEPAV12@PBDHH@Z$0 0043eac0 f   Psydp3Engine.obj
 0001:0003dacd       __ehhandler$?open@?$basic_filebuf@DU?$char_traits@D@std@@@std@@QAEPAV12@PBDHH@Z 0043eacd f   Psydp3Engine.obj
 0001:0003db00       __unwindfunclet$?uflow@?$basic_filebuf@DU?$char_traits@D@std@@@std@@MAEHXZ$0 0043eb00 f   Psydp3Engine.obj
 0001:0003db0d       __ehhandler$?uflow@?$basic_filebuf@DU?$char_traits@D@std@@@std@@MAEHXZ 0043eb0d f   Psydp3Engine.obj
 0001:0003db50       __unwindfunclet$?virtDraw@Attack@@UAEXXZ$0 0043eb50 f   Attack.obj
 0001:0003db5d       __ehhandler$?virtDraw@Attack@@UAEXXZ 0043eb5d f   Attack.obj
 0001:0003dba0       __unwindfunclet$??$find@V?$_Vector_iterator@V?$_Vector_val@U?$_Simple_types@PAVDisplayableObject@@@std@@@std@@@std@@PAVDisplayableObject@@@std@@YA?AV?$_Vector_iterator@V?$_Vector_val@U?$_Simple_types@PAVDisplayableObject@@@std@@@std@@@0@V10@V10@ABQAVDisplayableObject@@@Z$0 0043eba0 f   Attack.obj
 0001:0003dba8       __unwindfunclet$??$find@V?$_Vector_iterator@V?$_Vector_val@U?$_Simple_types@PAVDisplayableObject@@@std@@@std@@@std@@PAVDisplayableObject@@@std@@YA?AV?$_Vector_iterator@V?$_Vector_val@U?$_Simple_types@PAVDisplayableObject@@@std@@@std@@@0@V10@V10@ABQAVDisplayableObject@@@Z$1 0043eba8 f   Attack.obj
 0001:0003dbb5       __ehhandler$??$find@V?$_Vector_iterator@V?$_Vector_val@U?$_Simple_types@PAVDisplayableObject@@@std@@@std@@@std@@PAVDisplayableObject@@@std@@YA?AV?$_Vector_iterator@V?$_Vector_val@U?$_Simple_types@PAVDisplayableObject@@@std@@@std@@@0@V10@V10@ABQAVDisplayableObject@@@Z 0043ebb5 f   Attack.obj
 0001:0003dbe0       __ehhandler$?erase@?$vector@PAVDisplayableObject@@V?$allocator@PAVDisplayableObject@@@std@@@std@@QAE?AV?$_Vector_iterator@V?$_Vector_val@U?$_Simple_types@PAVDisplayableObject@@@std@@@std@@@2@V?$_Vector_const_iterator@V?$_Vector_val@U?$_Simple_types@PAVDisplayableObject@@@std@@@std@@@2@@Z 0043ebe0 f   Attack.obj
 0001:0003dc10       __unwindfunclet$?virtSetupBackgroundBuffer@RunningState@@UAEXXZ$1 0043ec10 f   RunningState.obj
 0001:0003dc1d       __ehhandler$?virtSetupBackgroundBuffer@RunningState@@UAEXXZ 0043ec1d f   RunningState.obj
 0001:0003dc3a       __unwindfunclet$?virtInitialiseObjects@RunningState@@UAEXXZ$0 0043ec3a f   RunningState.obj
 0001:0003dc49       __unwindfunclet$?virtInitialiseObjects@RunningState@@UAEXXZ$1 0043ec49 f   RunningState.obj
 0001:0003dc58       __unwindfunclet$?virtInitialiseObjects@RunningState@@UAEXXZ$2 0043ec58 f   RunningState.obj
 0001:0003dc67       __unwindfunclet$?virtInitialiseObjects@RunningState@@UAEXXZ$3 0043ec67 f   RunningState.obj
 0001:0003dc7b       __ehhandler$?virtInitialiseObjects@RunningState@@UAEXXZ 0043ec7b f   RunningState.obj
 0001:0003dc98       __unwindfunclet$?virtDrawStringsUnderneath@RunningState@@UAEXXZ$0 0043ec98 f   RunningState.obj
 0001:0003dcaf       __ehhandler$?virtDrawStringsUnderneath@RunningState@@UAEXXZ 0043ecaf f   RunningState.obj
 0001:0003dcd9       __unwindfunclet$?virtMainLoopDoBeforeUpdate@RunningState@@UAEXXZ$0 0043ecd9 f   RunningState.obj
 0001:0003dcf0       __ehhandler$?virtMainLoopDoBeforeUpdate@RunningState@@UAEXXZ 0043ecf0 f   RunningState.obj
 0001:0003dd50       __unwindfunclet$??0Enemy@@QAE@PAVBaseEngine@@AAH@Z$0 0043ed50 f   RunningState.obj
 0001:0003dd5d       __ehhandler$??0Enemy@@QAE@PAVBaseEngine@@AAH@Z 0043ed5d f   RunningState.obj
 0001:0003dd90       __unwindfunclet$??0LoseState@@QAE@PAVPsydp3Engine@@@Z$0 0043ed90 f   RunningState.obj
 0001:0003dd98       __unwindfunclet$??0LoseState@@QAE@PAVPsydp3Engine@@@Z$1 0043ed98 f   RunningState.obj
 0001:0003dda3       __unwindfunclet$??0LoseState@@QAE@PAVPsydp3Engine@@@Z$2 0043eda3 f   RunningState.obj
 0001:0003ddae       __unwindfunclet$??0LoseState@@QAE@PAVPsydp3Engine@@@Z$3 0043edae f   RunningState.obj
 0001:0003ddb9       __unwindfunclet$??0LoseState@@QAE@PAVPsydp3Engine@@@Z$4 0043edb9 f   RunningState.obj
 0001:0003ddcc       __ehhandler$??0LoseState@@QAE@PAVPsydp3Engine@@@Z 0043edcc f   RunningState.obj
 0001:0003de00       __unwindfunclet$??0Player@@QAE@PAVBaseEngine@@AAH@Z$0 0043ee00 f   RunningState.obj
 0001:0003de0d       __ehhandler$??0Player@@QAE@PAVBaseEngine@@AAH@Z 0043ee0d f   RunningState.obj
 0001:0003de40       __unwindfunclet$?setAllObjectsVisible@DisplayableObjectContainer@@QBEX_N@Z$0 0043ee40 f   RunningState.obj
 0001:0003de4d       __ehhandler$?setAllObjectsVisible@DisplayableObjectContainer@@QBEX_N@Z 0043ee4d f   RunningState.obj
 0001:0003de80       __unwindfunclet$?virtInitialiseObjects@SimpleDemo@@UAEHXZ$0 0043ee80 f   SimpleDemo.obj
 0001:0003de8f       __unwindfunclet$?virtInitialiseObjects@SimpleDemo@@UAEHXZ$1 0043ee8f f   SimpleDemo.obj
 0001:0003dea3       __ehhandler$?virtInitialiseObjects@SimpleDemo@@UAEHXZ 0043eea3 f   SimpleDemo.obj
 0001:0003ded0       __unwindfunclet$??0BouncingObject@@QAE@PAVBaseEngine@@HHNNNN@Z$0 0043eed0 f   SimpleDemo.obj
 0001:0003dedd       __ehhandler$??0BouncingObject@@QAE@PAVBaseEngine@@HHNNNN@Z 0043eedd f   SimpleDemo.obj
 0001:0003df10       __unwindfunclet$?virtSetupBackgroundBuffer@StartupState@@UAEXXZ$0 0043ef10 f   StartupState.obj
 0001:0003df1b       __unwindfunclet$?virtSetupBackgroundBuffer@StartupState@@UAEXXZ$2 0043ef1b f   StartupState.obj
 0001:0003df28       __ehhandler$?virtSetupBackgroundBuffer@StartupState@@UAEXXZ 0043ef28 f   StartupState.obj
 0001:0003df48       __unwindfunclet$?virtKeyDown@StartupState@@UAEXH@Z$0 0043ef48 f   StartupState.obj
 0001:0003df53       __unwindfunclet$?virtKeyDown@StartupState@@UAEXH@Z$1 0043ef53 f   StartupState.obj
 0001:0003df5e       __unwindfunclet$?virtKeyDown@StartupState@@UAEXH@Z$2 0043ef5e f   StartupState.obj
 0001:0003df69       __unwindfunclet$?virtKeyDown@StartupState@@UAEXH@Z$3 0043ef69 f   StartupState.obj
 0001:0003df7d       __ehhandler$?virtKeyDown@StartupState@@UAEXH@Z 0043ef7d f   StartupState.obj
 0001:0003df9d       __unwindfunclet$?virtInitialiseObjects@StartupState@@UAEXXZ$0 0043ef9d f   StartupState.obj
 0001:0003dfb1       __ehhandler$?virtInitialiseObjects@StartupState@@UAEXXZ 0043efb1 f   StartupState.obj
 0001:0003dfce       __unwindfunclet$??5@YAAAV?$basic_ifstream@DU?$char_traits@D@std@@@std@@AAV01@AAVNumberTiles@@@Z$0 0043efce f   StartupState.obj
 0001:0003dfd6       __unwindfunclet$??5@YAAAV?$basic_ifstream@DU?$char_traits@D@std@@@std@@AAV01@AAVNumberTiles@@@Z$1 0043efd6 f   StartupState.obj
 0001:0003dfe3       __ehhandler$??5@YAAAV?$basic_ifstream@DU?$char_traits@D@std@@@std@@AAV01@AAVNumberTiles@@@Z 0043efe3 f   StartupState.obj
 0001:0003e050       __unwindfunclet$??$?5DU?$char_traits@D@std@@V?$allocator@D@1@@std@@YAAAV?$basic_istream@DU?$char_traits@D@std@@@0@AAV10@AAV?$basic_string@DU?$char_traits@D@std@@V?$allocator@D@2@@0@@Z$2 0043f050 f   StartupState.obj
 0001:0003e058       __unwindfunclet$??$?5DU?$char_traits@D@std@@V?$allocator@D@1@@std@@YAAAV?$basic_istream@DU?$char_traits@D@std@@@0@AAV10@AAV?$basic_string@DU?$char_traits@D@std@@V?$allocator@D@2@@0@@Z$3 0043f058 f   StartupState.obj
 0001:0003e065       __ehhandler$??$?5DU?$char_traits@D@std@@V?$allocator@D@1@@std@@YAAAV?$basic_istream@DU?$char_traits@D@std@@@0@AAV10@AAV?$basic_string@DU?$char_traits@D@std@@V?$allocator@D@2@@0@@Z 0043f065 f   StartupState.obj
 0001:0003e090       __ehhandler$??$_Destroy_range@V?$allocator@V?$basic_string@DU?$char_traits@D@std@@V?$allocator@D@2@@std@@@std@@@std@@YAXPAV?$basic_string@DU?$char_traits@D@std@@V?$allocator@D@2@@0@QAV10@AAV?$allocator@V?$basic_string@DU?$char_traits@D@std@@V?$allocator@D@2@@std@@@0@@Z 0043f090 f   StartupState.obj
 0001:0003e0c0       __ehhandler$??$_Emplace_reallocate@ABV?$basic_string@DU?$char_traits@D@std@@V?$allocator@D@2@@std@@@?$vector@V?$basic_string@DU?$char_traits@D@std@@V?$allocator@D@2@@std@@V?$allocator@V?$basic_string@DU?$char_traits@D@std@@V?$allocator@D@2@@std@@@2@@std@@AAEPAV?$basic_string@DU?$char_traits@D@std@@V?$allocator@D@2@@1@QAV21@ABV21@@Z 0043f0c0 f   StartupState.obj
 0001:0003e0f0       __unwindfunclet$??$_Uninitialized_move@PAV?$basic_string@DU?$char_traits@D@std@@V?$allocator@D@2@@std@@V?$allocator@V?$basic_string@DU?$char_traits@D@std@@V?$allocator@D@2@@std@@@2@@std@@YAPAV?$basic_string@DU?$char_traits@D@std@@V?$allocator@D@2@@0@QAV10@0PAV10@AAV?$allocator@V?$basic_string@DU?$char_traits@D@std@@V?$allocator@D@2@@std@@@0@@Z$0 0043f0f0 f   StartupState.obj
 0001:0003e0fd       __ehhandler$??$_Uninitialized_move@PAV?$basic_string@DU?$char_traits@D@std@@V?$allocator@D@2@@std@@V?$allocator@V?$basic_string@DU?$char_traits@D@std@@V?$allocator@D@2@@std@@@2@@std@@YAPAV?$basic_string@DU?$char_traits@D@std@@V?$allocator@D@2@@0@QAV10@0PAV10@AAV?$allocator@V?$basic_string@DU?$char_traits@D@std@@V?$allocator@D@2@@std@@@0@@Z 0043f0fd f   StartupState.obj
 0001:0003e130       __unwindfunclet$??$use_facet@V?$ctype@D@std@@@std@@YAABV?$ctype@D@0@ABVlocale@0@@Z$0 0043f130 f   StartupState.obj
 0001:0003e139       __unwindfunclet$??$use_facet@V?$ctype@D@std@@@std@@YAABV?$ctype@D@0@ABVlocale@0@@Z$1 0043f139 f   StartupState.obj
 0001:0003e146       __ehhandler$??$use_facet@V?$ctype@D@std@@@std@@YAABV?$ctype@D@0@ABVlocale@0@@Z 0043f146 f   StartupState.obj
 0001:0003e170       __unwindfunclet$??0?$basic_ifstream@DU?$char_traits@D@std@@@std@@QAE@XZ$0 0043f170 f   StartupState.obj
 0001:0003e18d       __unwindfunclet$??0?$basic_ifstream@DU?$char_traits@D@std@@@std@@QAE@XZ$1 0043f18d f   StartupState.obj
 0001:0003e19e       __ehhandler$??0?$basic_ifstream@DU?$char_traits@D@std@@@std@@QAE@XZ 0043f19e f   StartupState.obj
 0001:0003e1d0       __ehhandler$??0?$vector@V?$basic_string@DU?$char_traits@D@std@@V?$allocator@D@2@@std@@V?$allocator@V?$basic_string@DU?$char_traits@D@std@@V?$allocator@D@2@@std@@@2@@std@@QAE@XZ 0043f1d0 f   StartupState.obj
 0001:0003e200       __unwindfunclet$??0sentry@?$basic_istream@DU?$char_traits@D@std@@@std@@QAE@AAV12@_N@Z$0 0043f200 f   StartupState.obj
 0001:0003e20d       __ehhandler$??0sentry@?$basic_istream@DU?$char_traits@D@std@@@std@@QAE@AAV12@_N@Z 0043f20d f   StartupState.obj
 0001:0003e240       __ehhandler$??1_Sentry_base@?$basic_istream@DU?$char_traits@D@std@@@std@@QAE@XZ 0043f240 f   StartupState.obj
 0001:0003e270       __unwindfunclet$?_Orphan_range_locked@?$vector@V?$basic_string@DU?$char_traits@D@std@@V?$allocator@D@2@@std@@V?$allocator@V?$basic_string@DU?$char_traits@D@std@@V?$allocator@D@2@@std@@@2@@std@@ABEXPAV?$basic_string@DU?$char_traits@D@std@@V?$allocator@D@2@@2@0@Z$0 0043f270 f   StartupState.obj
 0001:0003e27e       __ehhandler$?_Orphan_range_locked@?$vector@V?$basic_string@DU?$char_traits@D@std@@V?$allocator@D@2@@std@@V?$allocator@V?$basic_string@DU?$char_traits@D@std@@V?$allocator@D@2@@std@@@2@@std@@ABEXPAV?$basic_string@DU?$char_traits@D@std@@V?$allocator@D@2@@2@0@Z 0043f27e f   StartupState.obj
 0001:0003e2b0       __ehhandler$?_Tidy@?$vector@V?$basic_string@DU?$char_traits@D@std@@V?$allocator@D@2@@std@@V?$allocator@V?$basic_string@DU?$char_traits@D@std@@V?$allocator@D@2@@std@@@2@@std@@AAEXXZ 0043f2b0 f   StartupState.obj
 0001:0003e2e0       __unwindfunclet$??0BouncingBall@@QAE@PAVBouncingBallMain@@HHHHPBDHH@Z$0 0043f2e0 f   BouncingBall.obj
 0001:0003e2ed       __ehhandler$??0BouncingBall@@QAE@PAVBouncingBallMain@@HHHHPBDHH@Z 0043f2ed f   BouncingBall.obj
 0001:0003e30a       __unwindfunclet$??0BouncingBall1@@QAE@PAVBouncingBallMain@@HHHHPBDHHPAVTileManager@@@Z$0 0043f30a f   BouncingBall.obj
 0001:0003e317       __ehhandler$??0BouncingBall1@@QAE@PAVBouncingBallMain@@HHHHPBDHHPAVTileManager@@@Z 0043f317 f   BouncingBall.obj
 0001:0003e350       __unwindfunclet$?virtInitialiseObjects@BouncingBallMain@@UAEHXZ$0 0043f350 f   BouncingBallMain.obj
 0001:0003e35f       __unwindfunclet$?virtInitialiseObjects@BouncingBallMain@@UAEHXZ$1 0043f35f f   BouncingBallMain.obj
 0001:0003e36e       __unwindfunclet$?virtInitialiseObjects@BouncingBallMain@@UAEHXZ$2 0043f36e f   BouncingBallMain.obj
 0001:0003e382       __ehhandler$?virtInitialiseObjects@BouncingBallMain@@UAEHXZ 0043f382 f   BouncingBallMain.obj
 0001:0003e3c0       __unwindfunclet$?virtSetupBackgroundBuffer@WinState@@UAEXXZ$1 0043f3c0 f   WinState.obj
 0001:0003e3cd       __ehhandler$?virtSetupBackgroundBuffer@WinState@@UAEXXZ 0043f3cd f   WinState.obj
 0001:0003e3ea       __unwindfunclet$?virtKeyDown@WinState@@UAEXH@Z$0 0043f3ea f   WinState.obj
 0001:0003e3fe       __ehhandler$?virtKeyDown@WinState@@UAEXH@Z 0043f3fe f   WinState.obj
 0001:0003e41b       __unwindfunclet$?virtInitialiseObjects@WinState@@UAEXXZ$0 0043f41b f   WinState.obj
 0001:0003e42a       __unwindfunclet$?virtInitialiseObjects@WinState@@UAEXXZ$1 0043f42a f   WinState.obj
 0001:0003e439       __unwindfunclet$?virtInitialiseObjects@WinState@@UAEXXZ$2 0043f439 f   WinState.obj
 0001:0003e448       __unwindfunclet$?virtInitialiseObjects@WinState@@UAEXXZ$3 0043f448 f   WinState.obj
 0001:0003e45c       __ehhandler$?virtInitialiseObjects@WinState@@UAEXXZ 0043f45c f   WinState.obj
 0001:0003e4b0       __unwindfunclet$?virtInitialiseObjects@ZoomingDemo@@UAEHXZ$0 0043f4b0 f   ZoomingDemo.obj
 0001:0003e4bf       __unwindfunclet$?virtInitialiseObjects@ZoomingDemo@@UAEHXZ$1 0043f4bf f   ZoomingDemo.obj
 0001:0003e4ce       __unwindfunclet$?virtInitialiseObjects@ZoomingDemo@@UAEHXZ$3 0043f4ce f   ZoomingDemo.obj
 0001:0003e4dd       __unwindfunclet$?virtInitialiseObjects@ZoomingDemo@@UAEHXZ$4 0043f4dd f   ZoomingDemo.obj
 0001:0003e4ea       __ehhandler$?virtInitialiseObjects@ZoomingDemo@@UAEHXZ 0043f4ea f   ZoomingDemo.obj
 0001:0003e520       __unwindfunclet$??0SimpleFlashingDragableImageObject@@QAE@HHPAVBaseEngine@@V?$basic_string@DU?$char_traits@D@std@@V?$allocator@D@2@@std@@1_N2@Z$0 0043f520 f   ZoomingDemo.obj
 0001:0003e528       __unwindfunclet$??0SimpleFlashingDragableImageObject@@QAE@HHPAVBaseEngine@@V?$basic_string@DU?$char_traits@D@std@@V?$allocator@D@2@@std@@1_N2@Z$1 0043f528 f   ZoomingDemo.obj
 0001:0003e530       __unwindfunclet$??0SimpleFlashingDragableImageObject@@QAE@HHPAVBaseEngine@@V?$basic_string@DU?$char_traits@D@std@@V?$allocator@D@2@@std@@1_N2@Z$2 0043f530 f   ZoomingDemo.obj
 0001:0003e538       __unwindfunclet$??0SimpleFlashingDragableImageObject@@QAE@HHPAVBaseEngine@@V?$basic_string@DU?$char_traits@D@std@@V?$allocator@D@2@@std@@1_N2@Z$3 0043f538 f   ZoomingDemo.obj
 0001:0003e540       __unwindfunclet$??0SimpleFlashingDragableImageObject@@QAE@HHPAVBaseEngine@@V?$basic_string@DU?$char_traits@D@std@@V?$allocator@D@2@@std@@1_N2@Z$4 0043f540 f   ZoomingDemo.obj
 0001:0003e54b       __unwindfunclet$??0SimpleFlashingDragableImageObject@@QAE@HHPAVBaseEngine@@V?$basic_string@DU?$char_traits@D@std@@V?$allocator@D@2@@std@@1_N2@Z$5 0043f54b f   ZoomingDemo.obj
 0001:0003e553       __unwindfunclet$??0SimpleFlashingDragableImageObject@@QAE@HHPAVBaseEngine@@V?$basic_string@DU?$char_traits@D@std@@V?$allocator@D@2@@std@@1_N2@Z$6 0043f553 f   ZoomingDemo.obj
 0001:0003e563       __ehhandler$??0SimpleFlashingDragableImageObject@@QAE@HHPAVBaseEngine@@V?$basic_string@DU?$char_traits@D@std@@V?$allocator@D@2@@std@@1_N2@Z 0043f563 f   ZoomingDemo.obj
 0001:0003e5a0       __unwindfunclet$??0MazeDemoMain@@QAE@XZ$0 0043f5a0 f   MazeDemoMain.obj
 0001:0003e5ad       __ehhandler$??0MazeDemoMain@@QAE@XZ 0043f5ad f   MazeDemoMain.obj
 0001:0003e5ca       __unwindfunclet$?virtInitialiseObjects@MazeDemoMain@@UAEHXZ$0 0043f5ca f   MazeDemoMain.obj
 0001:0003e5d9       __unwindfunclet$?virtInitialiseObjects@MazeDemoMain@@UAEHXZ$1 0043f5d9 f   MazeDemoMain.obj
 0001:0003e5e8       __unwindfunclet$?virtInitialiseObjects@MazeDemoMain@@UAEHXZ$2 0043f5e8 f   MazeDemoMain.obj
 0001:0003e5f7       __unwindfunclet$?virtInitialiseObjects@MazeDemoMain@@UAEHXZ$3 0043f5f7 f   MazeDemoMain.obj
 0001:0003e606       __unwindfunclet$?virtInitialiseObjects@MazeDemoMain@@UAEHXZ$4 0043f606 f   MazeDemoMain.obj
 0001:0003e61a       __ehhandler$?virtInitialiseObjects@MazeDemoMain@@UAEHXZ 0043f61a f   MazeDemoMain.obj
 0001:0003e660       __unwindfunclet$??0MazeDemoObject@@QAE@PAVMazeDemoMain@@HH@Z$0 0043f660 f   MazeDemoObject.obj
 0001:0003e66d       __ehhandler$??0MazeDemoObject@@QAE@PAVMazeDemoMain@@HH@Z 0043f66d f   MazeDemoObject.obj
 0001:0003e6a0       __unwindfunclet$?_Facet_Register@std@@YAXPAV_Facet_base@1@@Z$0 0043f6a0 f   msvcprtd:locale0_implib.obj
 0001:0003e6b0       __ehhandler$?_Facet_Register@std@@YAXPAV_Facet_base@1@@Z 0043f6b0 f   msvcprtd:locale0_implib.obj
 0001:0003e6e0       __ehhandler$??$__std_count_trivial@U_Find_traits_1@?A0x8417fefe@@E@?A0x8417fefe@@YGIPBXQBXE@Z 0043f6e0 f   msvcprtd:vector_algorithms.obj
 0001:0003e710       __ehhandler$??$__std_count_trivial@U_Find_traits_2@?A0x8417fefe@@G@?A0x8417fefe@@YGIPBXQBXG@Z 0043f710 f   msvcprtd:vector_algorithms.obj
 0001:0003e740       __ehhandler$??$__std_count_trivial@U_Find_traits_4@?A0x8417fefe@@I@?A0x8417fefe@@YGIPBXQBXI@Z 0043f740 f   msvcprtd:vector_algorithms.obj
 0001:0003e770       __ehhandler$??$__std_count_trivial@U_Find_traits_8@?A0x8417fefe@@_K@?A0x8417fefe@@YGIPBXQBX_K@Z 0043f770 f   msvcprtd:vector_algorithms.obj
 0001:0003e7a0       __ehhandler$??$__std_find_trivial@U_Find_traits_1@?A0x8417fefe@@E@?A0x8417fefe@@YGPBXPBX0E@Z 0043f7a0 f   msvcprtd:vector_algorithms.obj
 0001:0003e7d0       __ehhandler$??$__std_find_trivial@U_Find_traits_2@?A0x8417fefe@@G@?A0x8417fefe@@YGPBXPBX0G@Z 0043f7d0 f   msvcprtd:vector_algorithms.obj
 0001:0003e800       __ehhandler$??$__std_find_trivial@U_Find_traits_4@?A0x8417fefe@@I@?A0x8417fefe@@YGPBXPBX0I@Z 0043f800 f   msvcprtd:vector_algorithms.obj
 0001:0003e830       __ehhandler$??$__std_find_trivial@U_Find_traits_8@?A0x8417fefe@@_K@?A0x8417fefe@@YGPBXPBX0_K@Z 0043f830 f   msvcprtd:vector_algorithms.obj
 0001:0003e860       __ehhandler$??$__std_find_trivial_unsized@U_Find_traits_1@?A0x8417fefe@@E@?A0x8417fefe@@YGPBXPBXE@Z 0043f860 f   msvcprtd:vector_algorithms.obj
 0001:0003e890       __ehhandler$??$__std_find_trivial_unsized@U_Find_traits_2@?A0x8417fefe@@G@?A0x8417fefe@@YGPBXPBXG@Z 0043f890 f   msvcprtd:vector_algorithms.obj
 0001:0003e8c0       __ehhandler$??$__std_find_trivial_unsized@U_Find_traits_4@?A0x8417fefe@@I@?A0x8417fefe@@YGPBXPBXI@Z 0043f8c0 f   msvcprtd:vector_algorithms.obj
 0001:0003e8f0       __ehhandler$??$__std_find_trivial_unsized@U_Find_traits_8@?A0x8417fefe@@_K@?A0x8417fefe@@YGPBXPBX_K@Z 0043f8f0 f   msvcprtd:vector_algorithms.obj
 0001:0003faa0       ??__F_Fac_tidy_reg@std@@YAXXZ 00440aa0 f   msvcprtd:locale0_implib.obj
 0002:00000104       ?pre_cpp_initializer@@3P6AXXZA 00442104     MSVCRTD:exe_main.obj
 0002:00000208       ?_Fac_tidy_reg$initializer$@std@@3P6AXXZA 00442208     msvcprtd:locale0_implib.obj
 0002:00000514       ?pre_c_initializer@@3P6AHXZA 00442514     MSVCRTD:exe_main.obj
 0002:00000618       ?post_pgo_initializer@@3P6AHXZA 00442618     MSVCRTD:exe_main.obj
 0002:00000c40       $SG100733                  00442c40     Arrow.obj
 0002:00000c54       $SG100734                  00442c54     Arrow.obj
 0002:00000c58       $SG100735                  00442c58     Arrow.obj
 0002:00000cbc       $SG100737                  00442cbc     Arrow.obj
 0002:00000cc0       $SG100736                  00442cc0     Arrow.obj
 0002:00000d84       $SG100738                  00442d84     Arrow.obj
 0002:00000dac       $SG101041                  00442dac     Arrow.obj
 0002:00000dc8       $SG100804                  00442dc8     Arrow.obj
 0002:00000e2c       $SG101042                  00442e2c     Arrow.obj
 0002:00000e30       $SG101043                  00442e30     Arrow.obj
 0002:00000e94       $SG101045                  00442e94     Arrow.obj
 0002:00000e98       $SG101044                  00442e98     Arrow.obj
 0002:00000f60       $SG101046                  00442f60     Arrow.obj
 0002:00000f98       $SG89796                   00442f98     Arrow.obj
 0002:00001ae0       $SG100152                  00443ae0     CircuitTiles.obj
 0002:00001af4       $SG100153                  00443af4     CircuitTiles.obj
 0002:00001af8       $SG100154                  00443af8     CircuitTiles.obj
 0002:00001b5c       $SG100156                  00443b5c     CircuitTiles.obj
 0002:00001b60       $SG100155                  00443b60     CircuitTiles.obj
 0002:00001c24       $SG100157                  00443c24     CircuitTiles.obj
 0002:00001c4c       $SG100460                  00443c4c     CircuitTiles.obj
 0002:00001c68       $SG100223                  00443c68     CircuitTiles.obj
 0002:00001ccc       $SG100461                  00443ccc     CircuitTiles.obj
 0002:00001cd0       $SG100462                  00443cd0     CircuitTiles.obj
 0002:00001d34       $SG100464                  00443d34     CircuitTiles.obj
 0002:00001d38       $SG100463                  00443d38     CircuitTiles.obj
 0002:00001e00       $SG100465                  00443e00     CircuitTiles.obj
 0002:00001ee8       $SG100610                  00443ee8     DraggingDemo.obj
 0002:00001efc       $SG100611                  00443efc     DraggingDemo.obj
 0002:00001f00       $SG100612                  00443f00     DraggingDemo.obj
 0002:00001f64       $SG100614                  00443f64     DraggingDemo.obj
 0002:00001f68       $SG100613                  00443f68     DraggingDemo.obj
 0002:0000202c       $SG100615                  0044402c     DraggingDemo.obj
 0002:00002054       $SG100918                  00444054     DraggingDemo.obj
 0002:00002070       $SG100681                  00444070     DraggingDemo.obj
 0002:000020d4       $SG100919                  004440d4     DraggingDemo.obj
 0002:000020d8       $SG100920                  004440d8     DraggingDemo.obj
 0002:0000213c       $SG100922                  0044413c     DraggingDemo.obj
 0002:00002140       $SG100921                  00444140     DraggingDemo.obj
 0002:00002208       $SG100923                  00444208     DraggingDemo.obj
 0002:00002240       $SG89667                   00444240     DraggingDemo.obj
 0002:0000224c       $SG89669                   0044424c     DraggingDemo.obj
 0002:00002730       $SG155812                  00444730     DrawingSurface.obj
 0002:00002744       $SG155813                  00444744     DrawingSurface.obj
 0002:00002748       $SG155814                  00444748     DrawingSurface.obj
 0002:000027ac       $SG155816                  004447ac     DrawingSurface.obj
 0002:000027b0       $SG155815                  004447b0     DrawingSurface.obj
 0002:00002874       $SG155817                  00444874     DrawingSurface.obj
 0002:0000289c       $SG156120                  0044489c     DrawingSurface.obj
 0002:000028b8       $SG155883                  004448b8     DrawingSurface.obj
 0002:0000291c       $SG156121                  0044491c     DrawingSurface.obj
 0002:00002920       $SG156122                  00444920     DrawingSurface.obj
 0002:00002984       $SG156124                  00444984     DrawingSurface.obj
 0002:00002988       $SG156123                  00444988     DrawingSurface.obj
 0002:00002a50       $SG156125                  00444a50     DrawingSurface.obj
 0002:00002cd8       $SG100276                  00444cd8     Enemy.obj
 0002:00002cec       $SG100277                  00444cec     Enemy.obj
 0002:00002cf0       $SG100278                  00444cf0     Enemy.obj
 0002:00002d54       $SG100280                  00444d54     Enemy.obj
 0002:00002d58       $SG100279                  00444d58     Enemy.obj
 0002:00002e1c       $SG100281                  00444e1c     Enemy.obj
 0002:00002e44       $SG101054                  00444e44     Enemy.obj
 0002:00002e60       $SG100347                  00444e60     Enemy.obj
 0002:00002ec4       $SG101055                  00444ec4     Enemy.obj
 0002:00002ec8       $SG101056                  00444ec8     Enemy.obj
 0002:00002f2c       $SG101058                  00444f2c     Enemy.obj
 0002:00002f30       $SG101057                  00444f30     Enemy.obj
 0002:00002ff8       $SG101059                  00444ff8     Enemy.obj
 0002:00003030       $SG89209                   00445030     Enemy.obj
 0002:0000303c       $SG89211                   0044503c     Enemy.obj
 0002:00003048       $SG89213                   00445048     Enemy.obj
 0002:00003054       $SG89215                   00445054     Enemy.obj
 0002:000031a8       $SG100061                  004451a8     FlashingDemo.obj
 0002:000031bc       $SG100062                  004451bc     FlashingDemo.obj
 0002:000031c0       $SG100063                  004451c0     FlashingDemo.obj
 0002:00003224       $SG100065                  00445224     FlashingDemo.obj
 0002:00003228       $SG100064                  00445228     FlashingDemo.obj
 0002:000032ec       $SG100066                  004452ec     FlashingDemo.obj
 0002:00003314       $SG100369                  00445314     FlashingDemo.obj
 0002:00003330       $SG100132                  00445330     FlashingDemo.obj
 0002:00003394       $SG100370                  00445394     FlashingDemo.obj
 0002:00003398       $SG100371                  00445398     FlashingDemo.obj
 0002:000033fc       $SG100373                  004453fc     FlashingDemo.obj
 0002:00003400       $SG100372                  00445400     FlashingDemo.obj
 0002:000034c8       $SG100374                  004454c8     FlashingDemo.obj
 0002:00003678       $SG100075                  00445678     GameObject.obj
 0002:0000368c       $SG100076                  0044568c     GameObject.obj
 0002:00003690       $SG100077                  00445690     GameObject.obj
 0002:000036f4       $SG100079                  004456f4     GameObject.obj
 0002:000036f8       $SG100078                  004456f8     GameObject.obj
 0002:000037bc       $SG100080                  004457bc     GameObject.obj
 0002:000037e4       $SG100383                  004457e4     GameObject.obj
 0002:00003800       $SG100146                  00445800     GameObject.obj
 0002:00003864       $SG100384                  00445864     GameObject.obj
 0002:00003868       $SG100385                  00445868     GameObject.obj
 0002:000038cc       $SG100387                  004458cc     GameObject.obj
 0002:000038d0       $SG100386                  004458d0     GameObject.obj
 0002:00003998       $SG100388                  00445998     GameObject.obj
 0002:00003a80       $SG100746                  00445a80     ImageMappingDemo.obj
 0002:00003a94       $SG100747                  00445a94     ImageMappingDemo.obj
 0002:00003a98       $SG100748                  00445a98     ImageMappingDemo.obj
 0002:00003afc       $SG100750                  00445afc     ImageMappingDemo.obj
 0002:00003b00       $SG100749                  00445b00     ImageMappingDemo.obj
 0002:00003bc4       $SG100751                  00445bc4     ImageMappingDemo.obj
 0002:00003bec       $SG101054                  00445bec     ImageMappingDemo.obj
 0002:00003c08       $SG100817                  00445c08     ImageMappingDemo.obj
 0002:00003c6c       $SG101055                  00445c6c     ImageMappingDemo.obj
 0002:00003c70       $SG101056                  00445c70     ImageMappingDemo.obj
 0002:00003cd4       $SG101058                  00445cd4     ImageMappingDemo.obj
 0002:00003cd8       $SG101057                  00445cd8     ImageMappingDemo.obj
 0002:00003da0       $SG101059                  00445da0     ImageMappingDemo.obj
 0002:00003dd8       $SG89769                   00445dd8     ImageMappingDemo.obj
 0002:00003de4       $SG89771                   00445de4     ImageMappingDemo.obj
 0002:00003df0       $SG89773                   00445df0     ImageMappingDemo.obj
 0002:00003dfc       $SG89775                   00445dfc     ImageMappingDemo.obj
 0002:00003e08       $SG89777                   00445e08     ImageMappingDemo.obj
 0002:00003f50       $SG106671                  00445f50     MST.obj
 0002:00003f6c       $SG106672                  00445f6c     MST.obj
 0002:00003f70       $SG106673                  00445f70     MST.obj
 0002:00003fd4       $SG106675                  00445fd4     MST.obj
 0002:00003fd8       $SG106674                  00445fd8     MST.obj
 0002:000040a0       $SG106676                  004460a0     MST.obj
 0002:000040d8       $SG106163                  004460d8     MST.obj
 0002:000040ec       $SG106164                  004460ec     MST.obj
 0002:000040f0       $SG106165                  004460f0     MST.obj
 0002:00004154       $SG106167                  00446154     MST.obj
 0002:00004158       $SG106166                  00446158     MST.obj
 0002:0000421c       $SG106168                  0044621c     MST.obj
 0002:00004248       $SG106234                  00446248     MST.obj
 0002:00004a10       $SG100264                  00446a10     NumberTiles.obj
 0002:00004a21       $SG89218                   00446a21     NumberTiles.obj
 0002:00004a24       $SG100265                  00446a24     NumberTiles.obj
 0002:00004a28       $SG100266                  00446a28     NumberTiles.obj
 0002:00004a8c       $SG100268                  00446a8c     NumberTiles.obj
 0002:00004a90       $SG100267                  00446a90     NumberTiles.obj
 0002:00004b54       $SG100269                  00446b54     NumberTiles.obj
 0002:00004b7c       $SG100572                  00446b7c     NumberTiles.obj
 0002:00004b98       $SG100335                  00446b98     NumberTiles.obj
 0002:00004bfc       $SG100573                  00446bfc     NumberTiles.obj
 0002:00004c00       $SG100574                  00446c00     NumberTiles.obj
 0002:00004c64       $SG100576                  00446c64     NumberTiles.obj
 0002:00004c68       $SG100575                  00446c68     NumberTiles.obj
 0002:00004d30       $SG100577                  00446d30     NumberTiles.obj
 0002:00004d68       $SG89220                   00446d68     NumberTiles.obj
 0002:00004d70       $SG89222                   00446d70     NumberTiles.obj
 0002:00004d78       $SG89224                   00446d78     NumberTiles.obj
 0002:00004d80       $SG89226                   00446d80     NumberTiles.obj
 0002:00004d88       $SG89228                   00446d88     NumberTiles.obj
 0002:00004e40       $SG86935                   00446e40     ImageTracking.obj
 0002:00004ea4       $SG87127                   00446ea4     ImageTracking.obj
 0002:00004eb8       $SG87128                   00446eb8     ImageTracking.obj
 0002:00004ebc       $SG87131                   00446ebc     ImageTracking.obj
 0002:00004ec0       $SG87129                   00446ec0     ImageTracking.obj
 0002:00004f28       $SG87130                   00446f28     ImageTracking.obj
 0002:00004fec       $SG87132                   00446fec     ImageTracking.obj
 0002:00005070       $SG90326                   00447070     LoseState.obj
 0002:00005080       $SG90327                   00447080     LoseState.obj
 0002:0000508c       $SG90328                   0044708c     LoseState.obj
 0002:00005098       $SG90329                   00447098     LoseState.obj
 0002:000050a4       $SG90330                   004470a4     LoseState.obj
 0002:000050b0       $SG90331                   004470b0     LoseState.obj
 0002:000050bc       $SG90364                   004470bc     LoseState.obj
 0002:000050c8       $SG90365                   004470c8     LoseState.obj
 0002:000050e8       $SG101300                  004470e8     LoseState.obj
 0002:000050fc       $SG101301                  004470fc     LoseState.obj
 0002:00005100       $SG101302                  00447100     LoseState.obj
 0002:00005164       $SG101304                  00447164     LoseState.obj
 0002:00005168       $SG101303                  00447168     LoseState.obj
 0002:0000522c       $SG101305                  0044722c     LoseState.obj
 0002:00005254       $SG101608                  00447254     LoseState.obj
 0002:00005270       $SG101371                  00447270     LoseState.obj
 0002:000052d4       $SG101609                  004472d4     LoseState.obj
 0002:000052d8       $SG101610                  004472d8     LoseState.obj
 0002:0000533c       $SG101612                  0044733c     LoseState.obj
 0002:00005340       $SG101611                  00447340     LoseState.obj
 0002:00005408       $SG101613                  00447408     LoseState.obj
 0002:000055a0       $SG90561                   004475a0     mainfunction.obj
 0002:000055d0       $SG90562                   004475d0     mainfunction.obj
 0002:000055e8       $SG101501                  004475e8     mainfunction.obj
 0002:000055fc       $SG101502                  004475fc     mainfunction.obj
 0002:00005600       $SG101503                  00447600     mainfunction.obj
 0002:00005664       $SG101505                  00447664     mainfunction.obj
 0002:00005668       $SG101504                  00447668     mainfunction.obj
 0002:0000572c       $SG101506                  0044772c     mainfunction.obj
 0002:00005754       $SG101809                  00447754     mainfunction.obj
 0002:00005770       $SG101572                  00447770     mainfunction.obj
 0002:000057d4       $SG101810                  004477d4     mainfunction.obj
 0002:000057d8       $SG101811                  004477d8     mainfunction.obj
 0002:0000583c       $SG101813                  0044783c     mainfunction.obj
 0002:00005840       $SG101812                  00447840     mainfunction.obj
 0002:00005908       $SG101814                  00447908     mainfunction.obj
 0002:00005a00       $SG155721                  00447a00     BaseEngine.obj
 0002:00005a1c       $SG155722                  00447a1c     BaseEngine.obj
 0002:00005a20       $SG155723                  00447a20     BaseEngine.obj
 0002:00005a84       $SG155725                  00447a84     BaseEngine.obj
 0002:00005a88       $SG155724                  00447a88     BaseEngine.obj
 0002:00005b50       $SG155726                  00447b50     BaseEngine.obj
 0002:00005b88       $SG143964                  00447b88     BaseEngine.obj
 0002:00005bb8       $SG143997                  00447bb8     BaseEngine.obj
 0002:00005bd0       $SG155413                  00447bd0     BaseEngine.obj
 0002:00005be4       $SG155414                  00447be4     BaseEngine.obj
 0002:00005be8       $SG155415                  00447be8     BaseEngine.obj
 0002:00005c4c       $SG155417                  00447c4c     BaseEngine.obj
 0002:00005c50       $SG155416                  00447c50     BaseEngine.obj
 0002:00005d14       $SG155418                  00447d14     BaseEngine.obj
 0002:00005d40       $SG155484                  00447d40     BaseEngine.obj
 0002:00006298       $SG100033                  00448298     DisplayableObject.obj
 0002:000062ac       $SG100034                  004482ac     DisplayableObject.obj
 0002:000062b0       $SG100035                  004482b0     DisplayableObject.obj
 0002:00006314       $SG100037                  00448314     DisplayableObject.obj
 0002:00006318       $SG100036                  00448318     DisplayableObject.obj
 0002:000063dc       $SG100038                  004483dc     DisplayableObject.obj
 0002:00006404       $SG100341                  00448404     DisplayableObject.obj
 0002:00006420       $SG100104                  00448420     DisplayableObject.obj
 0002:00006484       $SG100342                  00448484     DisplayableObject.obj
 0002:00006488       $SG100343                  00448488     DisplayableObject.obj
 0002:000064ec       $SG100345                  004484ec     DisplayableObject.obj
 0002:000064f0       $SG100344                  004484f0     DisplayableObject.obj
 0002:000065b8       $SG100346                  004485b8     DisplayableObject.obj
 0002:000066e0       $SG83417                   004486e0     FontManager.obj
 0002:00006744       $SG83609                   00448744     FontManager.obj
 0002:00006758       $SG83610                   00448758     FontManager.obj
 0002:0000675c       $SG83613                   0044875c     FontManager.obj
 0002:00006760       $SG83611                   00448760     FontManager.obj
 0002:000067c4       $SG75858                   004487c4     FontManager.obj
 0002:000067e0       $SG83612                   004487e0     FontManager.obj
 0002:000068a4       $SG83614                   004488a4     FontManager.obj
 0002:000068cc       $SG75862                   004488cc     FontManager.obj
 0002:00006968       $SG100005                  00448968     PauseSymbol.obj
 0002:0000697c       $SG100006                  0044897c     PauseSymbol.obj
 0002:00006980       $SG100007                  00448980     PauseSymbol.obj
 0002:000069e4       $SG100009                  004489e4     PauseSymbol.obj
 0002:000069e8       $SG100008                  004489e8     PauseSymbol.obj
 0002:00006aac       $SG100010                  00448aac     PauseSymbol.obj
 0002:00006ad4       $SG100313                  00448ad4     PauseSymbol.obj
 0002:00006af0       $SG100076                  00448af0     PauseSymbol.obj
 0002:00006b54       $SG100314                  00448b54     PauseSymbol.obj
 0002:00006b58       $SG100315                  00448b58     PauseSymbol.obj
 0002:00006bbc       $SG100317                  00448bbc     PauseSymbol.obj
 0002:00006bc0       $SG100316                  00448bc0     PauseSymbol.obj
 0002:00006c88       $SG100318                  00448c88     PauseSymbol.obj
 0002:00006cc0       $SG89071                   00448cc0     PauseSymbol.obj
 0002:00006d88       $SG100225                  00448d88     Player.obj
 0002:00006d9c       $SG100226                  00448d9c     Player.obj
 0002:00006da0       $SG100227                  00448da0     Player.obj
 0002:00006e04       $SG100229                  00448e04     Player.obj
 0002:00006e08       $SG100228                  00448e08     Player.obj
 0002:00006ecc       $SG100230                  00448ecc     Player.obj
 0002:00006ef4       $SG100533                  00448ef4     Player.obj
 0002:00006f10       $SG100296                  00448f10     Player.obj
 0002:00006f74       $SG100534                  00448f74     Player.obj
 0002:00006f78       $SG100535                  00448f78     Player.obj
 0002:00006fdc       $SG100537                  00448fdc     Player.obj
 0002:00006fe0       $SG100536                  00448fe0     Player.obj
 0002:000070a8       $SG100538                  004490a8     Player.obj
 0002:000070e0       $SG89166                   004490e0     Player.obj
 0002:000070ec       $SG89168                   004490ec     Player.obj
 0002:000070f8       $SG89170                   004490f8     Player.obj
 0002:00007104       $SG89172                   00449104     Player.obj
 0002:000071c8       $SG90428                   004491c8     Psydp3Engine.obj
 0002:000071cc       $SG90720                   004491cc     Psydp3Engine.obj
 0002:000071dc       $SG102194                  004491dc     Psydp3Engine.obj
 0002:000071f0       $SG102195                  004491f0     Psydp3Engine.obj
 0002:000071f4       $SG102198                  004491f4     Psydp3Engine.obj
 0002:000071f8       $SG102196                  004491f8     Psydp3Engine.obj
 0002:0000725c       $SG102502                  0044925c     Psydp3Engine.obj
 0002:00007278       $SG102197                  00449278     Psydp3Engine.obj
 0002:0000733c       $SG102199                  0044933c     Psydp3Engine.obj
 0002:00007364       $SG102503                  00449364     Psydp3Engine.obj
 0002:00007368       $SG102265                  00449368     Psydp3Engine.obj
 0002:000073cc       $SG102506                  004493cc     Psydp3Engine.obj
 0002:000073d0       $SG102504                  004493d0     Psydp3Engine.obj
 0002:00007438       $SG102505                  00449438     Psydp3Engine.obj
 0002:00007500       $SG102507                  00449500     Psydp3Engine.obj
 0002:00007998       $SG100240                  00449998     Attack.obj
 0002:000079ac       $SG100241                  004499ac     Attack.obj
 0002:000079b0       $SG100242                  004499b0     Attack.obj
 0002:00007a14       $SG100244                  00449a14     Attack.obj
 0002:00007a18       $SG100243                  00449a18     Attack.obj
 0002:00007adc       $SG100245                  00449adc     Attack.obj
 0002:00007b04       $SG101018                  00449b04     Attack.obj
 0002:00007b20       $SG100311                  00449b20     Attack.obj
 0002:00007b84       $SG101019                  00449b84     Attack.obj
 0002:00007b88       $SG101020                  00449b88     Attack.obj
 0002:00007bec       $SG101022                  00449bec     Attack.obj
 0002:00007bf0       $SG101021                  00449bf0     Attack.obj
 0002:00007cb8       $SG101023                  00449cb8     Attack.obj
 0002:00007cf0       $SG89169                   00449cf0     Attack.obj
 0002:00007cfc       $SG89171                   00449cfc     Attack.obj
 0002:00007d08       $SG89173                   00449d08     Attack.obj
 0002:00007d14       $SG89175                   00449d14     Attack.obj
 0002:00007e08       $SG90252                   00449e08     RunningState.obj
 0002:00007e18       $SG90318                   00449e18     RunningState.obj
 0002:00007e24       $SG90327                   00449e24     RunningState.obj
 0002:00007e30       $SG90328                   00449e30     RunningState.obj
 0002:00007e40       $SG101277                  00449e40     RunningState.obj
 0002:00007e54       $SG101278                  00449e54     RunningState.obj
 0002:00007e58       $SG101279                  00449e58     RunningState.obj
 0002:00007ebc       $SG101281                  00449ebc     RunningState.obj
 0002:00007ec0       $SG101280                  00449ec0     RunningState.obj
 0002:00007f84       $SG101282                  00449f84     RunningState.obj
 0002:00007fac       $SG101585                  00449fac     RunningState.obj
 0002:00007fc8       $SG101348                  00449fc8     RunningState.obj
 0002:0000802c       $SG101586                  0044a02c     RunningState.obj
 0002:00008030       $SG101587                  0044a030     RunningState.obj
 0002:00008094       $SG101589                  0044a094     RunningState.obj
 0002:00008098       $SG101588                  0044a098     RunningState.obj
 0002:00008160       $SG101590                  0044a160     RunningState.obj
 0002:000083e8       $SG83934                   0044a3e8     ScrollPoints.obj
 0002:0000844c       $SG84126                   0044a44c     ScrollPoints.obj
 0002:00008460       $SG84127                   0044a460     ScrollPoints.obj
 0002:00008464       $SG84130                   0044a464     ScrollPoints.obj
 0002:00008468       $SG84128                   0044a468     ScrollPoints.obj
 0002:000084d0       $SG84129                   0044a4d0     ScrollPoints.obj
 0002:00008594       $SG84131                   0044a594     ScrollPoints.obj
 0002:00008618       $SG100475                  0044a618     SimpleImage.obj
 0002:0000862c       $SG100476                  0044a62c     SimpleImage.obj
 0002:00008630       $SG100477                  0044a630     SimpleImage.obj
 0002:00008694       $SG100479                  0044a694     SimpleImage.obj
 0002:00008698       $SG100478                  0044a698     SimpleImage.obj
 0002:0000875c       $SG100480                  0044a75c     SimpleImage.obj
 0002:00008784       $SG101253                  0044a784     SimpleImage.obj
 0002:000087a0       $SG100546                  0044a7a0     SimpleImage.obj
 0002:00008804       $SG101254                  0044a804     SimpleImage.obj
 0002:00008808       $SG101255                  0044a808     SimpleImage.obj
 0002:0000886c       $SG101257                  0044a86c     SimpleImage.obj
 0002:00008870       $SG101256                  0044a870     SimpleImage.obj
 0002:00008938       $SG101258                  0044a938     SimpleImage.obj
 0002:00008a30       $SG100339                  0044aa30     SimpleDemo.obj
 0002:00008a44       $SG100340                  0044aa44     SimpleDemo.obj
 0002:00008a48       $SG100341                  0044aa48     SimpleDemo.obj
 0002:00008aac       $SG100343                  0044aaac     SimpleDemo.obj
 0002:00008ab0       $SG100342                  0044aab0     SimpleDemo.obj
 0002:00008b74       $SG100344                  0044ab74     SimpleDemo.obj
 0002:00008b9c       $SG100647                  0044ab9c     SimpleDemo.obj
 0002:00008bb8       $SG100410                  0044abb8     SimpleDemo.obj
 0002:00008c1c       $SG100648                  0044ac1c     SimpleDemo.obj
 0002:00008c20       $SG100649                  0044ac20     SimpleDemo.obj
 0002:00008c84       $SG100651                  0044ac84     SimpleDemo.obj
 0002:00008c88       $SG100650                  0044ac88     SimpleDemo.obj
 0002:00008d50       $SG100652                  0044ad50     SimpleDemo.obj
 0002:00008d88       $SG89380                   0044ad88     SimpleDemo.obj
 0002:00008db8       $SG89381                   0044adb8     SimpleDemo.obj
 0002:00008dd0       $SG89386                   0044add0     SimpleDemo.obj
 0002:00008df8       $SG89387                   0044adf8     SimpleDemo.obj
 0002:00008e10       $SG89389                   0044ae10     SimpleDemo.obj
 0002:00008fa8       $SG100146                  0044afa8     Slider.obj
 0002:00008fbc       $SG100147                  0044afbc     Slider.obj
 0002:00008fc0       $SG100148                  0044afc0     Slider.obj
 0002:00009024       $SG100150                  0044b024     Slider.obj
 0002:00009028       $SG100149                  0044b028     Slider.obj
 0002:000090ec       $SG100151                  0044b0ec     Slider.obj
 0002:00009114       $SG100454                  0044b114     Slider.obj
 0002:00009130       $SG100217                  0044b130     Slider.obj
 0002:00009194       $SG100455                  0044b194     Slider.obj
 0002:00009198       $SG100456                  0044b198     Slider.obj
 0002:000091fc       $SG100458                  0044b1fc     Slider.obj
 0002:00009200       $SG100457                  0044b200     Slider.obj
 0002:000092c8       $SG100459                  0044b2c8     Slider.obj
 0002:000093b0       $SG100028                  0044b3b0     StarfieldDemo.obj
 0002:000093c4       $SG100029                  0044b3c4     StarfieldDemo.obj
 0002:000093c8       $SG100030                  0044b3c8     StarfieldDemo.obj
 0002:0000942c       $SG100032                  0044b42c     StarfieldDemo.obj
 0002:00009430       $SG100031                  0044b430     StarfieldDemo.obj
 0002:000094f4       $SG100033                  0044b4f4     StarfieldDemo.obj
 0002:0000951c       $SG100336                  0044b51c     StarfieldDemo.obj
 0002:00009538       $SG100099                  0044b538     StarfieldDemo.obj
 0002:0000959c       $SG100337                  0044b59c     StarfieldDemo.obj
 0002:000095a0       $SG100338                  0044b5a0     StarfieldDemo.obj
 0002:00009604       $SG100340                  0044b604     StarfieldDemo.obj
 0002:00009608       $SG100339                  0044b608     StarfieldDemo.obj
 0002:000096d0       $SG100341                  0044b6d0     StarfieldDemo.obj
 0002:00009880       $SG90582                   0044b880     StartupState.obj
 0002:00009890       $SG90583                   0044b890     StartupState.obj
 0002:000098a8       $SG90584                   0044b8a8     StartupState.obj
 0002:000098b8       $SG90585                   0044b8b8     StartupState.obj
 0002:000098c4       $SG90827                   0044b8c4     StartupState.obj
 0002:000098d4       $SG90829                   0044b8d4     StartupState.obj
 0002:000098e4       $SG90831                   0044b8e4     StartupState.obj
 0002:000098f0       $SG90842                   0044b8f0     StartupState.obj
 0002:00009904       $SG90843                   0044b904     StartupState.obj
 0002:00009910       $SG103244                  0044b910     StartupState.obj
 0002:00009924       $SG103245                  0044b924     StartupState.obj
 0002:00009928       $SG103246                  0044b928     StartupState.obj
 0002:0000998c       $SG103248                  0044b98c     StartupState.obj
 0002:00009990       $SG103247                  0044b990     StartupState.obj
 0002:00009a54       $SG103249                  0044ba54     StartupState.obj
 0002:00009a7c       $SG103715                  0044ba7c     StartupState.obj
 0002:00009a98       $SG103315                  0044ba98     StartupState.obj
 0002:00009afc       $SG103716                  0044bafc     StartupState.obj
 0002:00009b00       $SG103717                  0044bb00     StartupState.obj
 0002:00009b64       $SG103719                  0044bb64     StartupState.obj
 0002:00009b68       $SG103718                  0044bb68     StartupState.obj
 0002:00009c30       $SG103720                  0044bc30     StartupState.obj
 0002:00009e00       $SG83365                   0044be00     State.obj
 0002:00009e64       $SG83557                   0044be64     State.obj
 0002:00009e78       $SG83558                   0044be78     State.obj
 0002:00009e7c       $SG83561                   0044be7c     State.obj
 0002:00009e80       $SG83559                   0044be80     State.obj
 0002:00009ee8       $SG83560                   0044bee8     State.obj
 0002:00009fac       $SG83562                   0044bfac     State.obj
 0002:0000a030       $SG100142                  0044c030     TileManager.obj
 0002:0000a044       $SG100143                  0044c044     TileManager.obj
 0002:0000a048       $SG100144                  0044c048     TileManager.obj
 0002:0000a0ac       $SG100146                  0044c0ac     TileManager.obj
 0002:0000a0b0       $SG100145                  0044c0b0     TileManager.obj
 0002:0000a174       $SG100147                  0044c174     TileManager.obj
 0002:0000a19c       $SG100450                  0044c19c     TileManager.obj
 0002:0000a1b8       $SG100213                  0044c1b8     TileManager.obj
 0002:0000a21c       $SG100451                  0044c21c     TileManager.obj
 0002:0000a220       $SG100452                  0044c220     TileManager.obj
 0002:0000a284       $SG100454                  0044c284     TileManager.obj
 0002:0000a288       $SG100453                  0044c288     TileManager.obj
 0002:0000a350       $SG100455                  0044c350     TileManager.obj
 0002:0000a438       $SG100462                  0044c438     BouncingBall.obj
 0002:0000a44c       $SG100463                  0044c44c     BouncingBall.obj
 0002:0000a450       $SG100464                  0044c450     BouncingBall.obj
 0002:0000a4b4       $SG100466                  0044c4b4     BouncingBall.obj
 0002:0000a4b8       $SG100465                  0044c4b8     BouncingBall.obj
 0002:0000a57c       $SG100467                  0044c57c     BouncingBall.obj
 0002:0000a5a4       $SG100770                  0044c5a4     BouncingBall.obj
 0002:0000a5c0       $SG100533                  0044c5c0     BouncingBall.obj
 0002:0000a624       $SG100771                  0044c624     BouncingBall.obj
 0002:0000a628       $SG100772                  0044c628     BouncingBall.obj
 0002:0000a68c       $SG100774                  0044c68c     BouncingBall.obj
 0002:0000a690       $SG100773                  0044c690     BouncingBall.obj
 0002:0000a758       $SG100775                  0044c758     BouncingBall.obj
 0002:0000a918       $SG100649                  0044c918     BouncingBallMain.obj
 0002:0000a92c       $SG100650                  0044c92c     BouncingBallMain.obj
 0002:0000a930       $SG100651                  0044c930     BouncingBallMain.obj
 0002:0000a994       $SG100653                  0044c994     BouncingBallMain.obj
 0002:0000a998       $SG100652                  0044c998     BouncingBallMain.obj
 0002:0000aa5c       $SG100654                  0044ca5c     BouncingBallMain.obj
 0002:0000aa84       $SG100957                  0044ca84     BouncingBallMain.obj
 0002:0000aaa0       $SG100720                  0044caa0     BouncingBallMain.obj
 0002:0000ab04       $SG100958                  0044cb04     BouncingBallMain.obj
 0002:0000ab08       $SG100959                  0044cb08     BouncingBallMain.obj
 0002:0000ab6c       $SG100961                  0044cb6c     BouncingBallMain.obj
 0002:0000ab70       $SG100960                  0044cb70     BouncingBallMain.obj
 0002:0000ac38       $SG100962                  0044cc38     BouncingBallMain.obj
 0002:0000ac70       $SG89694                   0044cc70     BouncingBallMain.obj
 0002:0000ac74       $SG89696                   0044cc74     BouncingBallMain.obj
 0002:0000ac78       $SG89698                   0044cc78     BouncingBallMain.obj
 0002:0000ac7c       $SG89702                   0044cc7c     BouncingBallMain.obj
 0002:0000ac94       $SG89703                   0044cc94     BouncingBallMain.obj
 0002:0000ae88       $SG90418                   0044ce88     WinState.obj
 0002:0000ae98       $SG90419                   0044ce98     WinState.obj
 0002:0000aea4       $SG90420                   0044cea4     WinState.obj
 0002:0000aec4       $SG101383                  0044cec4     WinState.obj
 0002:0000aed8       $SG101384                  0044ced8     WinState.obj
 0002:0000aedc       $SG101387                  0044cedc     WinState.obj
 0002:0000aee0       $SG101385                  0044cee0     WinState.obj
 0002:0000af44       $SG101691                  0044cf44     WinState.obj
 0002:0000af60       $SG101386                  0044cf60     WinState.obj
 0002:0000b024       $SG101388                  0044d024     WinState.obj
 0002:0000b04c       $SG101692                  0044d04c     WinState.obj
 0002:0000b050       $SG101454                  0044d050     WinState.obj
 0002:0000b0b4       $SG101695                  0044d0b4     WinState.obj
 0002:0000b0b8       $SG101693                  0044d0b8     WinState.obj
 0002:0000b120       $SG101694                  0044d120     WinState.obj
 0002:0000b1e8       $SG101696                  0044d1e8     WinState.obj
 0002:0000b320       $SG100718                  0044d320     ZoomingDemo.obj
 0002:0000b334       $SG100719                  0044d334     ZoomingDemo.obj
 0002:0000b338       $SG100720                  0044d338     ZoomingDemo.obj
 0002:0000b39c       $SG100722                  0044d39c     ZoomingDemo.obj
 0002:0000b3a0       $SG100721                  0044d3a0     ZoomingDemo.obj
 0002:0000b464       $SG100723                  0044d464     ZoomingDemo.obj
 0002:0000b48c       $SG101496                  0044d48c     ZoomingDemo.obj
 0002:0000b4a8       $SG100789                  0044d4a8     ZoomingDemo.obj
 0002:0000b50c       $SG101497                  0044d50c     ZoomingDemo.obj
 0002:0000b510       $SG101498                  0044d510     ZoomingDemo.obj
 0002:0000b574       $SG101500                  0044d574     ZoomingDemo.obj
 0002:0000b578       $SG101499                  0044d578     ZoomingDemo.obj
 0002:0000b640       $SG101501                  0044d640     ZoomingDemo.obj
 0002:0000b678       $SG89730                   0044d678     ZoomingDemo.obj
 0002:0000b684       $SG89732                   0044d684     ZoomingDemo.obj
 0002:0000b690       $SG89733                   0044d690     ZoomingDemo.obj
 0002:0000b69c       $SG89738                   0044d69c     ZoomingDemo.obj
 0002:0000b6b0       $SG89739                   0044d6b0     ZoomingDemo.obj
 0002:0000b6c8       $SG89741                   0044d6c8     ZoomingDemo.obj
 0002:0000b6d8       $SG89746                   0044d6d8     ZoomingDemo.obj
 0002:0000b6e4       $SG89747                   0044d6e4     ZoomingDemo.obj
 0002:0000b808       $SG83952                   0044d808     ZoomPoints.obj
 0002:0000b86c       $SG84144                   0044d86c     ZoomPoints.obj
 0002:0000b880       $SG84145                   0044d880     ZoomPoints.obj
 0002:0000b884       $SG84148                   0044d884     ZoomPoints.obj
 0002:0000b888       $SG84146                   0044d888     ZoomPoints.obj
 0002:0000b8f0       $SG84147                   0044d8f0     ZoomPoints.obj
 0002:0000b9b4       $SG84149                   0044d9b4     ZoomPoints.obj
 0002:0000ba38       $SG100486                  0044da38     MazeDemoMain.obj
 0002:0000ba4c       $SG100487                  0044da4c     MazeDemoMain.obj
 0002:0000ba50       $SG100488                  0044da50     MazeDemoMain.obj
 0002:0000bab4       $SG100490                  0044dab4     MazeDemoMain.obj
 0002:0000bab8       $SG100489                  0044dab8     MazeDemoMain.obj
 0002:0000bb7c       $SG100491                  0044db7c     MazeDemoMain.obj
 0002:0000bba4       $SG100794                  0044dba4     MazeDemoMain.obj
 0002:0000bbc0       $SG100557                  0044dbc0     MazeDemoMain.obj
 0002:0000bc24       $SG100795                  0044dc24     MazeDemoMain.obj
 0002:0000bc28       $SG100796                  0044dc28     MazeDemoMain.obj
 0002:0000bc8c       $SG100798                  0044dc8c     MazeDemoMain.obj
 0002:0000bc90       $SG100797                  0044dc90     MazeDemoMain.obj
 0002:0000bd58       $SG100799                  0044dd58     MazeDemoMain.obj
 0002:0000bd90       $SG89396                   0044dd90     MazeDemoMain.obj
 0002:0000bda8       $SG89397                   0044dda8     MazeDemoMain.obj
 0002:0000bdc0       $SG89398                   0044ddc0     MazeDemoMain.obj
 0002:0000bdd8       $SG89399                   0044ddd8     MazeDemoMain.obj
 0002:0000bdf0       $SG89400                   0044ddf0     MazeDemoMain.obj
 0002:0000be08       $SG89401                   0044de08     MazeDemoMain.obj
 0002:0000be20       $SG89402                   0044de20     MazeDemoMain.obj
 0002:0000be38       $SG89403                   0044de38     MazeDemoMain.obj
 0002:0000be50       $SG89404                   0044de50     MazeDemoMain.obj
 0002:0000be68       $SG89405                   0044de68     MazeDemoMain.obj
 0002:0000be80       $SG89406                   0044de80     MazeDemoMain.obj
 0002:0000be98       $SG89433                   0044de98     MazeDemoMain.obj
 0002:0000bebc       $SG89435                   0044debc     MazeDemoMain.obj
 0002:0000bec4       $SG89437                   0044dec4     MazeDemoMain.obj
 0002:0000c0b0       $SG100372                  0044e0b0     MazeDemoObject.obj
 0002:0000c0c4       $SG100373                  0044e0c4     MazeDemoObject.obj
 0002:0000c0c8       $SG100374                  0044e0c8     MazeDemoObject.obj
 0002:0000c12c       $SG100376                  0044e12c     MazeDemoObject.obj
 0002:0000c130       $SG100375                  0044e130     MazeDemoObject.obj
 0002:0000c1f4       $SG100377                  0044e1f4     MazeDemoObject.obj
 0002:0000c21c       $SG100680                  0044e21c     MazeDemoObject.obj
 0002:0000c238       $SG100443                  0044e238     MazeDemoObject.obj
 0002:0000c29c       $SG100681                  0044e29c     MazeDemoObject.obj
 0002:0000c2a0       $SG100682                  0044e2a0     MazeDemoObject.obj
 0002:0000c304       $SG100684                  0044e304     MazeDemoObject.obj
 0002:0000c308       $SG100683                  0044e308     MazeDemoObject.obj
 0002:0000c3d0       $SG100685                  0044e3d0     MazeDemoObject.obj
 0002:0000c4f8       $SG100153                  0044e4f8     MazeDemoTileManager.obj
 0002:0000c50c       $SG100154                  0044e50c     MazeDemoTileManager.obj
 0002:0000c510       $SG100155                  0044e510     MazeDemoTileManager.obj
 0002:0000c574       $SG100157                  0044e574     MazeDemoTileManager.obj
 0002:0000c578       $SG100156                  0044e578     MazeDemoTileManager.obj
 0002:0000c63c       $SG100158                  0044e63c     MazeDemoTileManager.obj
 0002:0000c664       $SG100461                  0044e664     MazeDemoTileManager.obj
 0002:0000c680       $SG100224                  0044e680     MazeDemoTileManager.obj
 0002:0000c6e4       $SG100462                  0044e6e4     MazeDemoTileManager.obj
 0002:0000c6e8       $SG100463                  0044e6e8     MazeDemoTileManager.obj
 0002:0000c74c       $SG100465                  0044e74c     MazeDemoTileManager.obj
 0002:0000c750       $SG100464                  0044e750     MazeDemoTileManager.obj
 0002:0000c818       $SG100466                  0044e818     MazeDemoTileManager.obj
 0002:0000ca68       _GS_ExceptionPointers      0044ea68     MSVCRTD:gs_report.obj
 0002:0000f178       __unwindtable$??0?$basic_string@DU?$char_traits@D@std@@V?$allocator@D@2@@std@@QAE@ABV01@@Z 00451178     Arrow.obj
 0002:0000f180       __ehfuncinfo$??0?$basic_string@DU?$char_traits@D@std@@V?$allocator@D@2@@std@@QAE@ABV01@@Z 00451180     Arrow.obj
 0002:0000f1a8       __unwindtable$??0?$basic_string@DU?$char_traits@D@std@@V?$allocator@D@2@@std@@QAE@QBD@Z 004511a8     Arrow.obj
 0002:0000f1b0       __ehfuncinfo$??0?$basic_string@DU?$char_traits@D@std@@V?$allocator@D@2@@std@@QAE@QBD@Z 004511b0     Arrow.obj
 0002:0000f1d8       __ehfuncinfo$??0?$basic_string@DU?$char_traits@D@std@@V?$allocator@D@2@@std@@QAE@$$QAV01@@Z 004511d8     Arrow.obj
 0002:0000f200       __ehfuncinfo$?_Take_contents@?$basic_string@DU?$char_traits@D@std@@V?$allocator@D@2@@std@@AAEXAAV12@@Z 00451200     Arrow.obj
 0002:0000f228       __ehfuncinfo$?_Tidy_deallocate@?$basic_string@DU?$char_traits@D@std@@V?$allocator@D@2@@std@@AAEXXZ 00451228     Arrow.obj
 0002:0000f250       __unwindtable$??0RawImageData@@QAE@V?$basic_string@DU?$char_traits@D@std@@V?$allocator@D@2@@std@@@Z 00451250     Arrow.obj
 0002:0000f258       __ehfuncinfo$??0RawImageData@@QAE@V?$basic_string@DU?$char_traits@D@std@@V?$allocator@D@2@@std@@@Z 00451258     Arrow.obj
 0002:0000f280       __ehfuncinfo$??1RawImageData@@QAE@XZ 00451280     Arrow.obj
 0002:0000f2a8       __unwindtable$?loadImage@RawImageData@@QAE_NV?$basic_string@DU?$char_traits@D@std@@V?$allocator@D@2@@std@@HHHHH_N@Z 004512a8     Arrow.obj
 0002:0000f2b0       __ehfuncinfo$?loadImage@RawImageData@@QAE_NV?$basic_string@DU?$char_traits@D@std@@V?$allocator@D@2@@std@@HHHHH_N@Z 004512b0     Arrow.obj
 0002:0000f2d8       __catchsym$??$?6U?$char_traits@D@std@@@std@@YAAAV?$basic_ostream@DU?$char_traits@D@std@@@0@AAV10@PBD@Z$3 004512d8     Arrow.obj
 0002:0000f2e8       __tryblocktable$??$?6U?$char_traits@D@std@@@std@@YAAAV?$basic_ostream@DU?$char_traits@D@std@@@0@AAV10@PBD@Z 004512e8     Arrow.obj
 0002:0000f2fc       __unwindtable$??$?6U?$char_traits@D@std@@@std@@YAAAV?$basic_ostream@DU?$char_traits@D@std@@@0@AAV10@PBD@Z 004512fc     Arrow.obj
 0002:0000f314       __ehfuncinfo$??$?6U?$char_traits@D@std@@@std@@YAAAV?$basic_ostream@DU?$char_traits@D@std@@@0@AAV10@PBD@Z 00451314     Arrow.obj
 0002:0000f344       __unwindtable$?virtDraw@Arrow@@UAEXXZ 00451344     Arrow.obj
 0002:0000f354       __ehfuncinfo$?virtDraw@Arrow@@UAEXXZ 00451354     Arrow.obj
 0002:0000f380       __unwindtable$?_Alloc_sentinel_and_proxy@?$_Tree@V?$_Tmap_traits@V?$basic_string@DU?$char_traits@D@std@@V?$allocator@D@2@@std@@V?$weak_ptr@VRawImageData@@@2@U?$less@V?$basic_string@DU?$char_traits@D@std@@V?$allocator@D@2@@std@@@2@V?$allocator@U?$pair@$$CBV?$basic_string@DU?$char_traits@D@std@@V?$allocator@D@2@@std@@V?$weak_ptr@VRawImageData@@@2@@std@@@2@$0A@@std@@@std@@IAEXXZ 00451380     Arrow.obj
 0002:0000f388       __ehfuncinfo$?_Alloc_sentinel_and_proxy@?$_Tree@V?$_Tmap_traits@V?$basic_string@DU?$char_traits@D@std@@V?$allocator@D@2@@std@@V?$weak_ptr@VRawImageData@@@2@U?$less@V?$basic_string@DU?$char_traits@D@std@@V?$allocator@D@2@@std@@@2@V?$allocator@U?$pair@$$CBV?$basic_string@DU?$char_traits@D@std@@V?$allocator@D@2@@std@@V?$weak_ptr@VRawImageData@@@2@@std@@@2@$0A@@std@@@std@@IAEXXZ 00451388     Arrow.obj
 0002:0000f3b0       __unwindtable$?_Alloc_sentinel_and_proxy@?$_Tree@V?$_Tmap_traits@V?$basic_string@DU?$char_traits@D@std@@V?$allocator@D@2@@std@@V?$shared_ptr@VRawImageData@@@2@U?$less@V?$basic_string@DU?$char_traits@D@std@@V?$allocator@D@2@@std@@@2@V?$allocator@U?$pair@$$CBV?$basic_string@DU?$char_traits@D@std@@V?$allocator@D@2@@std@@V?$shared_ptr@VRawImageData@@@2@@std@@@2@$0A@@std@@@std@@IAEXXZ 004513b0     Arrow.obj
 0002:0000f3b8       __ehfuncinfo$?_Alloc_sentinel_and_proxy@?$_Tree@V?$_Tmap_traits@V?$basic_string@DU?$char_traits@D@std@@V?$allocator@D@2@@std@@V?$shared_ptr@VRawImageData@@@2@U?$less@V?$basic_string@DU?$char_traits@D@std@@V?$allocator@D@2@@std@@@2@V?$allocator@U?$pair@$$CBV?$basic_string@DU?$char_traits@D@std@@V?$allocator@D@2@@std@@V?$shared_ptr@VRawImageData@@@2@@std@@@2@$0A@@std@@@std@@IAEXXZ 004513b8     Arrow.obj
 0002:0000f3e0       __unwindtable$?get@ImageManager@@SAPAV1@XZ 004513e0     Arrow.obj
 0002:0000f3e8       __ehfuncinfo$?get@ImageManager@@SAPAV1@XZ 004513e8     Arrow.obj
 0002:0000f410       __unwindtable$?loadImage@ImageManager@@SA?AVSimpleImage@@V?$basic_string@DU?$char_traits@D@std@@V?$allocator@D@2@@std@@_N@Z 00451410     Arrow.obj
 0002:0000f420       __ehfuncinfo$?loadImage@ImageManager@@SA?AVSimpleImage@@V?$basic_string@DU?$char_traits@D@std@@V?$allocator@D@2@@std@@_N@Z 00451420     Arrow.obj
 0002:0000f44c       __unwindtable$??0ImageManager@@QAE@XZ 0045144c     Arrow.obj
 0002:0000f454       __ehfuncinfo$??0ImageManager@@QAE@XZ 00451454     Arrow.obj
 0002:0000f47c       __ehfuncinfo$?getImagePtrbyURL@ImageManager@@QAE?AV?$shared_ptr@VRawImageData@@@std@@V?$basic_string@DU?$char_traits@D@std@@V?$allocator@D@2@@3@_N1@Z 0045147c     Arrow.obj
 0002:0000f4a0       __unwindtable$?getImagePtrbyURL@ImageManager@@QAE?AV?$shared_ptr@VRawImageData@@@std@@V?$basic_string@DU?$char_traits@D@std@@V?$allocator@D@2@@3@_N1@Z 004514a0     Arrow.obj
 0002:0000f4d8       __unwindtable$?getImagebyURL@ImageManager@@QAE?AVSimpleImage@@V?$basic_string@DU?$char_traits@D@std@@V?$allocator@D@2@@std@@_N1@Z 004514d8     Arrow.obj
 0002:0000f4e0       __ehfuncinfo$?getImagebyURL@ImageManager@@QAE?AVSimpleImage@@V?$basic_string@DU?$char_traits@D@std@@V?$allocator@D@2@@std@@_N1@Z 004514e0     Arrow.obj
 0002:0000f508       __unwindtable$?loadAsNew@ImageManager@@QAE?AV?$shared_ptr@VRawImageData@@@std@@V?$basic_string@DU?$char_traits@D@std@@V?$allocator@D@2@@3@@Z 00451508     Arrow.obj
 0002:0000f518       __ehfuncinfo$?loadAsNew@ImageManager@@QAE?AV?$shared_ptr@VRawImageData@@@std@@V?$basic_string@DU?$char_traits@D@std@@V?$allocator@D@2@@3@@Z 00451518     Arrow.obj
 0002:0000f544       __unwindtable$??$?0VRawImageData@@$0A@@?$shared_ptr@VRawImageData@@@std@@QAE@PAVRawImageData@@@Z 00451544     Arrow.obj
 0002:0000f554       __ehfuncinfo$??$?0VRawImageData@@$0A@@?$shared_ptr@VRawImageData@@@std@@QAE@PAVRawImageData@@@Z 00451554     Arrow.obj
 0002:0000f580       __unwindtable$??$_Construct@$00PBD@?$basic_string@DU?$char_traits@D@std@@V?$allocator@D@2@@std@@AAEXQBDI@Z 00451580     Arrow.obj
 0002:0000f588       __ehfuncinfo$??$_Construct@$00PBD@?$basic_string@DU?$char_traits@D@std@@V?$allocator@D@2@@std@@AAEXQBDI@Z 00451588     Arrow.obj
 0002:0000f5b0       __unwindtable$??$_Construct@$01PBD@?$basic_string@DU?$char_traits@D@std@@V?$allocator@D@2@@std@@AAEXQBDI@Z 004515b0     Arrow.obj
 0002:0000f5b8       __ehfuncinfo$??$_Construct@$01PBD@?$basic_string@DU?$char_traits@D@std@@V?$allocator@D@2@@std@@AAEXQBDI@Z 004515b8     Arrow.obj
 0002:0000f5e0       __ehfuncinfo$??$_Deallocate@$07$0A@@std@@YAXPAXI@Z 004515e0     Arrow.obj
 0002:0000f608       __ehfuncinfo$??1_Sentry_base@?$basic_ostream@DU?$char_traits@D@std@@@std@@QAE@XZ 00451608     Arrow.obj
 0002:0000f630       __unwindtable$??0sentry@?$basic_ostream@DU?$char_traits@D@std@@@std@@QAE@AAV12@@Z 00451630     Arrow.obj
 0002:0000f638       __ehfuncinfo$??0sentry@?$basic_ostream@DU?$char_traits@D@std@@@std@@QAE@AAV12@@Z 00451638     Arrow.obj
 0002:0000f660       __ehfuncinfo$??1sentry@?$basic_ostream@DU?$char_traits@D@std@@@std@@QAE@XZ 00451660     Arrow.obj
 0002:0000f688       __catchsym$??$_Insert_string@DU?$char_traits@D@std@@I@std@@YAAAV?$basic_ostream@DU?$char_traits@D@std@@@0@AAV10@QBDI@Z$3 00451688     Arrow.obj
 0002:0000f698       __tryblocktable$??$_Insert_string@DU?$char_traits@D@std@@I@std@@YAAAV?$basic_ostream@DU?$char_traits@D@std@@@0@AAV10@QBDI@Z 00451698     Arrow.obj
 0002:0000f6ac       __unwindtable$??$_Insert_string@DU?$char_traits@D@std@@I@std@@YAAAV?$basic_ostream@DU?$char_traits@D@std@@@0@AAV10@QBDI@Z 004516ac     Arrow.obj
 0002:0000f6c4       __ehfuncinfo$??$_Insert_string@DU?$char_traits@D@std@@I@std@@YAAAV?$basic_ostream@DU?$char_traits@D@std@@@0@AAV10@QBDI@Z 004516c4     Arrow.obj
 0002:0000f6f4       __ehfuncinfo$??$_Deallocate_plain@V?$allocator@U_Container_proxy@std@@@std@@@std@@YAXAAV?$allocator@U_Container_proxy@std@@@0@QAU_Container_proxy@0@@Z 004516f4     Arrow.obj
 0002:0000f71c       __ehfuncinfo$??$_Freenode0@V?$allocator@U?$_Tree_node@U?$pair@$$CBV?$basic_string@DU?$char_traits@D@std@@V?$allocator@D@2@@std@@V?$weak_ptr@VRawImageData@@@2@@std@@PAX@std@@@std@@@?$_Tree_node@U?$pair@$$CBV?$basic_string@DU?$char_traits@D@std@@V?$allocator@D@2@@std@@V?$weak_ptr@VRawImageData@@@2@@std@@PAX@std@@SAXAAV?$allocator@U?$_Tree_node@U?$pair@$$CBV?$basic_string@DU?$char_traits@D@std@@V?$allocator@D@2@@std@@V?$weak_ptr@VRawImageData@@@2@@std@@PAX@std@@@1@PAU01@@Z 0045171c     Arrow.obj
 0002:0000f744       __ehfuncinfo$??$_Freenode@V?$allocator@U?$_Tree_node@U?$pair@$$CBV?$basic_string@DU?$char_traits@D@std@@V?$allocator@D@2@@std@@V?$weak_ptr@VRawImageData@@@2@@std@@PAX@std@@@std@@@?$_Tree_node@U?$pair@$$CBV?$basic_string@DU?$char_traits@D@std@@V?$allocator@D@2@@std@@V?$weak_ptr@VRawImageData@@@2@@std@@PAX@std@@SAXAAV?$allocator@U?$_Tree_node@U?$pair@$$CBV?$basic_string@DU?$char_traits@D@std@@V?$allocator@D@2@@std@@V?$weak_ptr@VRawImageData@@@2@@std@@PAX@std@@@1@PAU01@@Z 00451744     Arrow.obj
 0002:0000f76c       __ehfuncinfo$??1?$_Alloc_construct_ptr@V?$allocator@U?$_Tree_node@U?$pair@$$CBV?$basic_string@DU?$char_traits@D@std@@V?$allocator@D@2@@std@@V?$weak_ptr@VRawImageData@@@2@@std@@PAX@std@@@std@@@std@@QAE@XZ 0045176c     Arrow.obj
 0002:0000f794       __unwindtable$??0?$_Tree_temp_node_alloc@V?$allocator@U?$_Tree_node@U?$pair@$$CBV?$basic_string@DU?$char_traits@D@std@@V?$allocator@D@2@@std@@V?$weak_ptr@VRawImageData@@@2@@std@@PAX@std@@@std@@@std@@QAE@AAV?$allocator@U?$_Tree_node@U?$pair@$$CBV?$basic_string@DU?$char_traits@D@std@@V?$allocator@D@2@@std@@V?$weak_ptr@VRawImageData@@@2@@std@@PAX@std@@@1@@Z 00451794     Arrow.obj
 0002:0000f79c       __ehfuncinfo$??0?$_Tree_temp_node_alloc@V?$allocator@U?$_Tree_node@U?$pair@$$CBV?$basic_string@DU?$char_traits@D@std@@V?$allocator@D@2@@std@@V?$weak_ptr@VRawImageData@@@2@@std@@PAX@std@@@std@@@std@@QAE@AAV?$allocator@U?$_Tree_node@U?$pair@$$CBV?$basic_string@DU?$char_traits@D@std@@V?$allocator@D@2@@std@@V?$weak_ptr@VRawImageData@@@2@@std@@PAX@std@@@1@@Z 0045179c     Arrow.obj
 0002:0000f7c4       __ehfuncinfo$??1?$_Tree_temp_node@V?$allocator@U?$_Tree_node@U?$pair@$$CBV?$basic_string@DU?$char_traits@D@std@@V?$allocator@D@2@@std@@V?$weak_ptr@VRawImageData@@@2@@std@@PAX@std@@@std@@@std@@QAE@XZ 004517c4     Arrow.obj
 0002:0000f7ec       __unwindtable$??$?0U?$pair@V?$basic_string@DU?$char_traits@D@std@@V?$allocator@D@2@@std@@V?$weak_ptr@VRawImageData@@@2@@std@@@?$_Tree_temp_node@V?$allocator@U?$_Tree_node@U?$pair@$$CBV?$basic_string@DU?$char_traits@D@std@@V?$allocator@D@2@@std@@V?$weak_ptr@VRawImageData@@@2@@std@@PAX@std@@@std@@@std@@QAE@AAV?$allocator@U?$_Tree_node@U?$pair@$$CBV?$basic_string@DU?$char_traits@D@std@@V?$allocator@D@2@@std@@V?$weak_ptr@VRawImageData@@@2@@std@@PAX@std@@@1@PAU?$_Tree_node@U?$pair@$$CBV?$basic_string@DU?$char_traits@D@std@@V?$allocator@D@2@@std@@V?$weak_ptr@VRawImageData@@@2@@std@@PAX@1@$$QAU?$pair@V?$basic_string@DU?$char_traits@D@std@@V?$allocator@D@2@@std@@V?$weak_ptr@VRawImageData@@@2@@1@@Z 004517ec     Arrow.obj
 0002:0000f7f4       __ehfuncinfo$??$?0U?$pair@V?$basic_string@DU?$char_traits@D@std@@V?$allocator@D@2@@std@@V?$weak_ptr@VRawImageData@@@2@@std@@@?$_Tree_temp_node@V?$allocator@U?$_Tree_node@U?$pair@$$CBV?$basic_string@DU?$char_traits@D@std@@V?$allocator@D@2@@std@@V?$weak_ptr@VRawImageData@@@2@@std@@PAX@std@@@std@@@std@@QAE@AAV?$allocator@U?$_Tree_node@U?$pair@$$CBV?$basic_string@DU?$char_traits@D@std@@V?$allocator@D@2@@std@@V?$weak_ptr@VRawImageData@@@2@@std@@PAX@std@@@1@PAU?$_Tree_node@U?$pair@$$CBV?$basic_string@DU?$char_traits@D@std@@V?$allocator@D@2@@std@@V?$weak_ptr@VRawImageData@@@2@@std@@PAX@1@$$QAU?$pair@V?$basic_string@DU?$char_traits@D@std@@V?$allocator@D@2@@std@@V?$weak_ptr@VRawImageData@@@2@@1@@Z 004517f4     Arrow.obj
 0002:0000f81c       __ehfuncinfo$??1?$_Alloc_construct_ptr@V?$allocator@U?$_Tree_node@U?$pair@$$CBV?$basic_string@DU?$char_traits@D@std@@V?$allocator@D@2@@std@@V?$shared_ptr@VRawImageData@@@2@@std@@PAX@std@@@std@@@std@@QAE@XZ 0045181c     Arrow.obj
 0002:0000f844       __unwindtable$??0?$_Tree_temp_node_alloc@V?$allocator@U?$_Tree_node@U?$pair@$$CBV?$basic_string@DU?$char_traits@D@std@@V?$allocator@D@2@@std@@V?$shared_ptr@VRawImageData@@@2@@std@@PAX@std@@@std@@@std@@QAE@AAV?$allocator@U?$_Tree_node@U?$pair@$$CBV?$basic_string@DU?$char_traits@D@std@@V?$allocator@D@2@@std@@V?$shared_ptr@VRawImageData@@@2@@std@@PAX@std@@@1@@Z 00451844     Arrow.obj
 0002:0000f84c       __ehfuncinfo$??0?$_Tree_temp_node_alloc@V?$allocator@U?$_Tree_node@U?$pair@$$CBV?$basic_string@DU?$char_traits@D@std@@V?$allocator@D@2@@std@@V?$shared_ptr@VRawImageData@@@2@@std@@PAX@std@@@std@@@std@@QAE@AAV?$allocator@U?$_Tree_node@U?$pair@$$CBV?$basic_string@DU?$char_traits@D@std@@V?$allocator@D@2@@std@@V?$shared_ptr@VRawImageData@@@2@@std@@PAX@std@@@1@@Z 0045184c     Arrow.obj
 0002:0000f874       __ehfuncinfo$??1?$_Tree_temp_node@V?$allocator@U?$_Tree_node@U?$pair@$$CBV?$basic_string@DU?$char_traits@D@std@@V?$allocator@D@2@@std@@V?$shared_ptr@VRawImageData@@@2@@std@@PAX@std@@@std@@@std@@QAE@XZ 00451874     Arrow.obj
 0002:0000f89c       __unwindtable$??$?0U?$pair@V?$basic_string@DU?$char_traits@D@std@@V?$allocator@D@2@@std@@V?$shared_ptr@VRawImageData@@@2@@std@@@?$_Tree_temp_node@V?$allocator@U?$_Tree_node@U?$pair@$$CBV?$basic_string@DU?$char_traits@D@std@@V?$allocator@D@2@@std@@V?$shared_ptr@VRawImageData@@@2@@std@@PAX@std@@@std@@@std@@QAE@AAV?$allocator@U?$_Tree_node@U?$pair@$$CBV?$basic_string@DU?$char_traits@D@std@@V?$allocator@D@2@@std@@V?$shared_ptr@VRawImageData@@@2@@std@@PAX@std@@@1@PAU?$_Tree_node@U?$pair@$$CBV?$basic_string@DU?$char_traits@D@std@@V?$allocator@D@2@@std@@V?$shared_ptr@VRawImageData@@@2@@std@@PAX@1@$$QAU?$pair@V?$basic_string@DU?$char_traits@D@std@@V?$allocator@D@2@@std@@V?$shared_ptr@VRawImageData@@@2@@1@@Z 0045189c     Arrow.obj
 0002:0000f8a4       __ehfuncinfo$??$?0U?$pair@V?$basic_string@DU?$char_traits@D@std@@V?$allocator@D@2@@std@@V?$shared_ptr@VRawImageData@@@2@@std@@@?$_Tree_temp_node@V?$allocator@U?$_Tree_node@U?$pair@$$CBV?$basic_string@DU?$char_traits@D@std@@V?$allocator@D@2@@std@@V?$shared_ptr@VRawImageData@@@2@@std@@PAX@std@@@std@@@std@@QAE@AAV?$allocator@U?$_Tree_node@U?$pair@$$CBV?$basic_string@DU?$char_traits@D@std@@V?$allocator@D@2@@std@@V?$shared_ptr@VRawImageData@@@2@@std@@PAX@std@@@1@PAU?$_Tree_node@U?$pair@$$CBV?$basic_string@DU?$char_traits@D@std@@V?$allocator@D@2@@std@@V?$shared_ptr@VRawImageData@@@2@@std@@PAX@1@$$QAU?$pair@V?$basic_string@DU?$char_traits@D@std@@V?$allocator@D@2@@std@@V?$shared_ptr@VRawImageData@@@2@@1@@Z 004518a4     Arrow.obj
 0002:0000f954       __unwindtable$?_Orphan_range_locked@?$vector@PAVDisplayableObject@@V?$allocator@PAVDisplayableObject@@@std@@@std@@ABEXPAPAVDisplayableObject@@0@Z 00451954     DraggingDemo.obj
 0002:0000f95c       __ehfuncinfo$?_Orphan_range_locked@?$vector@PAVDisplayableObject@@V?$allocator@PAVDisplayableObject@@@std@@@std@@ABEXPAPAVDisplayableObject@@0@Z 0045195c     DraggingDemo.obj
 0002:0000f984       __unwindtable$??0DragableObject@@QAE@PAVBaseEngine@@HH_N1@Z 00451984     DraggingDemo.obj
 0002:0000f98c       __ehfuncinfo$??0DragableObject@@QAE@PAVBaseEngine@@HH_N1@Z 0045198c     DraggingDemo.obj
 0002:0000f9b4       __unwindtable$??0DragableObject@@QAE@HHPAVBaseEngine@@HH_N1@Z 004519b4     DraggingDemo.obj
 0002:0000f9bc       __ehfuncinfo$??0DragableObject@@QAE@HHPAVBaseEngine@@HH_N1@Z 004519bc     DraggingDemo.obj
 0002:0000f9e4       __unwindtable$??0DragableImageObject@@QAE@HHPAVBaseEngine@@V?$basic_string@DU?$char_traits@D@std@@V?$allocator@D@2@@std@@_N2@Z 004519e4     DraggingDemo.obj
 0002:0000fa04       __ehfuncinfo$??0DragableImageObject@@QAE@HHPAVBaseEngine@@V?$basic_string@DU?$char_traits@D@std@@V?$allocator@D@2@@std@@_N2@Z 00451a04     DraggingDemo.obj
 0002:0000fa30       __ehfuncinfo$?virtInitialiseObjects@DraggingDemo@@UAEHXZ 00451a30     DraggingDemo.obj
 0002:0000fa54       __unwindtable$?virtInitialiseObjects@DraggingDemo@@UAEHXZ 00451a54     DraggingDemo.obj
 0002:0000fa84       __unwindtable$??0ImageObject@@QAE@HHPAVBaseEngine@@V?$basic_string@DU?$char_traits@D@std@@V?$allocator@D@2@@std@@_N2@Z 00451a84     DraggingDemo.obj
 0002:0000faa4       __ehfuncinfo$??0ImageObject@@QAE@HHPAVBaseEngine@@V?$basic_string@DU?$char_traits@D@std@@V?$allocator@D@2@@std@@_N2@Z 00451aa4     DraggingDemo.obj
 0002:0000fad0       __catchsym$??$_Resize_reallocate@U_Value_init_tag@std@@@?$vector@PAVDisplayableObject@@V?$allocator@PAVDisplayableObject@@@std@@@std@@AAEXIABU_Value_init_tag@1@@Z$2 00451ad0     DraggingDemo.obj
 0002:0000fae0       __unwindtable$??$_Resize_reallocate@U_Value_init_tag@std@@@?$vector@PAVDisplayableObject@@V?$allocator@PAVDisplayableObject@@@std@@@std@@AAEXIABU_Value_init_tag@1@@Z 00451ae0     DraggingDemo.obj
 0002:0000faf0       __tryblocktable$??$_Resize_reallocate@U_Value_init_tag@std@@@?$vector@PAVDisplayableObject@@V?$allocator@PAVDisplayableObject@@@std@@@std@@AAEXIABU_Value_init_tag@1@@Z 00451af0     DraggingDemo.obj
 0002:0000fb04       __ehfuncinfo$??$_Resize_reallocate@U_Value_init_tag@std@@@?$vector@PAVDisplayableObject@@V?$allocator@PAVDisplayableObject@@@std@@@std@@AAEXIABU_Value_init_tag@1@@Z 00451b04     DraggingDemo.obj
 0002:0000fb30       __unwindtable$??$_Uninitialized_value_construct_n@V?$allocator@PAVDisplayableObject@@@std@@@std@@YAPAPAVDisplayableObject@@PAPAV1@IAAV?$allocator@PAVDisplayableObject@@@0@@Z 00451b30     DraggingDemo.obj
 0002:0000fb38       __ehfuncinfo$??$_Uninitialized_value_construct_n@V?$allocator@PAVDisplayableObject@@@std@@@std@@YAPAPAVDisplayableObject@@PAPAV1@IAAV?$allocator@PAVDisplayableObject@@@0@@Z 00451b38     DraggingDemo.obj
 0002:0000fb60       __unwindtable$??$_Uninitialized_move@PAPAVDisplayableObject@@V?$allocator@PAVDisplayableObject@@@std@@@std@@YAPAPAVDisplayableObject@@QAPAV1@0PAPAV1@AAV?$allocator@PAVDisplayableObject@@@0@@Z 00451b60     DraggingDemo.obj
 0002:0000fb68       __ehfuncinfo$??$_Uninitialized_move@PAPAVDisplayableObject@@V?$allocator@PAVDisplayableObject@@@std@@@std@@YAPAPAVDisplayableObject@@QAPAV1@0PAPAV1@AAV?$allocator@PAVDisplayableObject@@@0@@Z 00451b68     DraggingDemo.obj
 0002:0000fb90       __ehfuncinfo$??0?$basic_string@DU?$char_traits@D@std@@V?$allocator@D@2@@std@@QAE@XZ 00451b90     Enemy.obj
 0002:0000fbb8       __unwindtable$??0GameObject@@QAE@HHPAVBaseEngine@@HH_N@Z 00451bb8     Enemy.obj
 0002:0000fbc0       __ehfuncinfo$??0GameObject@@QAE@HHPAVBaseEngine@@HH_N@Z 00451bc0     Enemy.obj
 0002:0000fbe8       __unwindtable$?virtDoUpdate@Enemy@@UAEXH@Z 00451be8     Enemy.obj
 0002:0000fbf0       __unwindtable$?virtDraw@Enemy@@UAEXXZ 00451bf0     Enemy.obj
 0002:0000fbf8       __ehfuncinfo$?virtDoUpdate@Enemy@@UAEXH@Z 00451bf8     Enemy.obj
 0002:0000fc1c       __ehfuncinfo$?virtDraw@Enemy@@UAEXXZ 00451c1c     Enemy.obj
 0002:0000fc48       __unwindtable$??0Attack@@QAE@PAVBaseEngine@@HHH@Z 00451c48     Enemy.obj
 0002:0000fc50       __ehfuncinfo$??0Attack@@QAE@PAVBaseEngine@@HHH@Z 00451c50     Enemy.obj
 0002:0000fc78       __catchsym$??$_Emplace_reallocate@ABQAVDisplayableObject@@@?$vector@PAVDisplayableObject@@V?$allocator@PAVDisplayableObject@@@std@@@std@@AAEPAPAVDisplayableObject@@QAPAV2@ABQAV2@@Z$2 00451c78     Enemy.obj
 0002:0000fc88       __unwindtable$??$_Emplace_reallocate@ABQAVDisplayableObject@@@?$vector@PAVDisplayableObject@@V?$allocator@PAVDisplayableObject@@@std@@@std@@AAEPAPAVDisplayableObject@@QAPAV2@ABQAV2@@Z 00451c88     Enemy.obj
 0002:0000fc98       __tryblocktable$??$_Emplace_reallocate@ABQAVDisplayableObject@@@?$vector@PAVDisplayableObject@@V?$allocator@PAVDisplayableObject@@@std@@@std@@AAEPAPAVDisplayableObject@@QAPAV2@ABQAV2@@Z 00451c98     Enemy.obj
 0002:0000fcac       __ehfuncinfo$??$_Emplace_reallocate@ABQAVDisplayableObject@@@?$vector@PAVDisplayableObject@@V?$allocator@PAVDisplayableObject@@@std@@@std@@AAEPAPAVDisplayableObject@@QAPAV2@ABQAV2@@Z 00451cac     Enemy.obj
 0002:0000fcd8       __unwindtable$??0FlashingDemo@@QAE@XZ 00451cd8     FlashingDemo.obj
 0002:0000fcf0       __ehfuncinfo$??0FlashingDemo@@QAE@XZ 00451cf0     FlashingDemo.obj
 0002:0000fd1c       __ehfuncinfo$?virtInitialiseObjects@ImageMappingDemo@@UAEHXZ 00451d1c     ImageMappingDemo.obj
 0002:0000fd40       __unwindtable$?virtInitialiseObjects@ImageMappingDemo@@UAEHXZ 00451d40     ImageMappingDemo.obj
 0002:0000fd70       __unwindtable$??0MappableImageObject@@QAE@PAVImagePixelMapping@@HHPAVBaseEngine@@V?$basic_string@DU?$char_traits@D@std@@V?$allocator@D@2@@std@@_N3@Z 00451d70     ImageMappingDemo.obj
 0002:0000fd78       __ehfuncinfo$??0MappableImageObject@@QAE@PAVImagePixelMapping@@HHPAVBaseEngine@@V?$basic_string@DU?$char_traits@D@std@@V?$allocator@D@2@@std@@_N3@Z 00451d78     ImageMappingDemo.obj
 0002:0000fda0       __unwindtable$?virtDraw@MST@@UAEXXZ 00451da0     MST.obj
 0002:0000fdb0       __unwindtable$?minimumSpanningTree@@YA?AV?$vector@UEdge@@V?$allocator@UEdge@@@std@@@std@@V?$vector@UNode@@V?$allocator@UNode@@@std@@@2@@Z 00451db0     MST.obj
 0002:0000fdd0       __ehfuncinfo$?minimumSpanningTree@@YA?AV?$vector@UEdge@@V?$allocator@UEdge@@@std@@@std@@V?$vector@UNode@@V?$allocator@UNode@@@std@@@2@@Z 00451dd0     MST.obj
 0002:0000fdf4       __ehfuncinfo$?virtDraw@MST@@UAEXXZ 00451df4     MST.obj
 0002:0000fe24       __unwindtable$??$for_each@V?$_Vector_const_iterator@V?$_Vector_val@U?$_Simple_types@PAVDisplayableObject@@@std@@@std@@@std@@V<lambda_8680d8acf56a2b8556b7ef4ea6c3cac6>@@@std@@YA?AV<lambda_8680d8acf56a2b8556b7ef4ea6c3cac6>@@V?$_Vector_const_iterator@V?$_Vector_val@U?$_Simple_types@PAVDisplayableObject@@@std@@@std@@@0@0V1@@Z 00451e24     MST.obj
 0002:0000fe34       __ehfuncinfo$??$for_each@V?$_Vector_const_iterator@V?$_Vector_val@U?$_Simple_types@PAVDisplayableObject@@@std@@@std@@@std@@V<lambda_8680d8acf56a2b8556b7ef4ea6c3cac6>@@@std@@YA?AV<lambda_8680d8acf56a2b8556b7ef4ea6c3cac6>@@V?$_Vector_const_iterator@V?$_Vector_val@U?$_Simple_types@PAVDisplayableObject@@@std@@@std@@@0@0V1@@Z 00451e34     MST.obj
 0002:0000fe60       __ehfuncinfo$??0?$vector@UEdge@@V?$allocator@UEdge@@@std@@@std@@QAE@XZ 00451e60     MST.obj
 0002:0000fe88       __ehfuncinfo$??0?$vector@UEdge@@V?$allocator@UEdge@@@std@@@std@@QAE@$$QAV01@@Z 00451e88     MST.obj
 0002:0000feb0       __ehfuncinfo$?pop_back@?$vector@UEdge@@V?$allocator@UEdge@@@std@@@std@@QAEXXZ 00451eb0     MST.obj
 0002:0000fed8       __ehfuncinfo$?_Tidy@?$vector@UEdge@@V?$allocator@UEdge@@@std@@@std@@AAEXXZ 00451ed8     MST.obj
 0002:0000ff00       __unwindtable$?_Orphan_range_locked@?$vector@UEdge@@V?$allocator@UEdge@@@std@@@std@@ABEXPAUEdge@@0@Z 00451f00     MST.obj
 0002:0000ff08       __ehfuncinfo$?_Orphan_range_locked@?$vector@UEdge@@V?$allocator@UEdge@@@std@@@std@@ABEXPAUEdge@@0@Z 00451f08     MST.obj
 0002:0000ff30       __ehfuncinfo$??0?$vector@UNode@@V?$allocator@UNode@@@std@@@std@@QAE@XZ 00451f30     MST.obj
 0002:0000ff58       __ehfuncinfo$?_Tidy@?$vector@UNode@@V?$allocator@UNode@@@std@@@std@@AAEXXZ 00451f58     MST.obj
 0002:0000ff80       __unwindtable$?_Orphan_range_locked@?$vector@UNode@@V?$allocator@UNode@@@std@@@std@@ABEXPAUNode@@0@Z 00451f80     MST.obj
 0002:0000ff88       __ehfuncinfo$?_Orphan_range_locked@?$vector@UNode@@V?$allocator@UNode@@@std@@@std@@ABEXPAUNode@@0@Z 00451f88     MST.obj
 0002:0000ffb0       __unwindtable$??0?$_Vb_val@V?$allocator@_N@std@@@std@@QAE@IAB_NABV?$allocator@_N@1@@Z 00451fb0     MST.obj
 0002:0000ffb8       __ehfuncinfo$??0?$_Vb_val@V?$allocator@_N@std@@@std@@QAE@IAB_NABV?$allocator@_N@1@@Z 00451fb8     MST.obj
 0002:0000ffe0       __ehfuncinfo$?erase@?$vector@IV?$allocator@I@std@@@std@@QAE?AV?$_Vector_iterator@V?$_Vector_val@U?$_Simple_types@I@std@@@std@@@2@V?$_Vector_const_iterator@V?$_Vector_val@U?$_Simple_types@I@std@@@std@@@2@0@Z 00451fe0     MST.obj
 0002:00010008       __ehfuncinfo$?_Tidy@?$vector@IV?$allocator@I@std@@@std@@AAEXXZ 00452008     MST.obj
 0002:00010030       __unwindtable$?_Orphan_range_locked@?$vector@IV?$allocator@I@std@@@std@@ABEXPAI0@Z 00452030     MST.obj
 0002:00010038       __ehfuncinfo$?_Orphan_range_locked@?$vector@IV?$allocator@I@std@@@std@@ABEXPAI0@Z 00452038     MST.obj
 0002:00010060       __unwindtable$??0?$vector@_NV?$allocator@_N@std@@@std@@QAE@IAB_NABV?$allocator@_N@1@@Z 00452060     MST.obj
 0002:00010068       __ehfuncinfo$??0?$vector@_NV?$allocator@_N@std@@@std@@QAE@IAB_NABV?$allocator@_N@1@@Z 00452068     MST.obj
 0002:00010090       __unwindtable$??$pop_heap@V?$_Vector_iterator@V?$_Vector_val@U?$_Simple_types@UEdge@@@std@@@std@@@std@@U?$less@UEdge@@@2@@std@@YAXV?$_Vector_iterator@V?$_Vector_val@U?$_Simple_types@UEdge@@@std@@@std@@@0@0U?$less@UEdge@@@0@@Z 00452090     MST.obj
 0002:000100a0       __ehfuncinfo$??$pop_heap@V?$_Vector_iterator@V?$_Vector_val@U?$_Simple_types@UEdge@@@std@@@std@@@std@@U?$less@UEdge@@@2@@std@@YAXV?$_Vector_iterator@V?$_Vector_val@U?$_Simple_types@UEdge@@@std@@@std@@@0@0U?$less@UEdge@@@0@@Z 004520a0     MST.obj
 0002:000100cc       __unwindtable$??$push_heap@V?$_Vector_iterator@V?$_Vector_val@U?$_Simple_types@UEdge@@@std@@@std@@@std@@U?$less@UEdge@@@2@@std@@YAXV?$_Vector_iterator@V?$_Vector_val@U?$_Simple_types@UEdge@@@std@@@std@@@0@0U?$less@UEdge@@@0@@Z 004520cc     MST.obj
 0002:000100dc       __ehfuncinfo$??$push_heap@V?$_Vector_iterator@V?$_Vector_val@U?$_Simple_types@UEdge@@@std@@@std@@@std@@U?$less@UEdge@@@2@@std@@YAXV?$_Vector_iterator@V?$_Vector_val@U?$_Simple_types@UEdge@@@std@@@std@@@0@0U?$less@UEdge@@@0@@Z 004520dc     MST.obj
 0002:00010108       __unwindtable$??$_Construct_n@ABQAUNode@@ABQAU1@@?$vector@UNode@@V?$allocator@UNode@@@std@@@std@@AAEXIABQAUNode@@0@Z 00452108     MST.obj
 0002:00010118       __ehfuncinfo$??$_Construct_n@ABQAUNode@@ABQAU1@@?$vector@UNode@@V?$allocator@UNode@@@std@@@std@@AAEXIABQAUNode@@0@Z 00452118     MST.obj
 0002:00010144       __unwindtable$??$_Construct_n@ABI@?$vector@IV?$allocator@I@std@@@std@@AAEXIABI@Z 00452144     MST.obj
 0002:00010154       __ehfuncinfo$??$_Construct_n@ABI@?$vector@IV?$allocator@I@std@@@std@@AAEXIABI@Z 00452154     MST.obj
 0002:00010180       __catchsym$??$_Emplace_reallocate@ABUNode@@@?$vector@UNode@@V?$allocator@UNode@@@std@@@std@@AAEPAUNode@@QAU2@ABU2@@Z$2 00452180     MST.obj
 0002:00010190       __unwindtable$??$_Emplace_reallocate@ABUNode@@@?$vector@UNode@@V?$allocator@UNode@@@std@@@std@@AAEPAUNode@@QAU2@ABU2@@Z 00452190     MST.obj
 0002:000101a0       __tryblocktable$??$_Emplace_reallocate@ABUNode@@@?$vector@UNode@@V?$allocator@UNode@@@std@@@std@@AAEPAUNode@@QAU2@ABU2@@Z 004521a0     MST.obj
 0002:000101b4       __ehfuncinfo$??$_Emplace_reallocate@ABUNode@@@?$vector@UNode@@V?$allocator@UNode@@@std@@@std@@AAEPAUNode@@QAU2@ABU2@@Z 004521b4     MST.obj
 0002:000101e0       __unwindtable$??$_Uninitialized_copy@PAUNode@@V?$allocator@UNode@@@std@@@std@@YAPAUNode@@QAU1@0PAU1@AAV?$allocator@UNode@@@0@@Z 004521e0     MST.obj
 0002:000101e8       __ehfuncinfo$??$_Uninitialized_copy@PAUNode@@V?$allocator@UNode@@@std@@@std@@YAPAUNode@@QAU1@0PAU1@AAV?$allocator@UNode@@@0@@Z 004521e8     MST.obj
 0002:00010210       __catchsym$??$_Emplace_reallocate@ABUEdge@@@?$vector@UEdge@@V?$allocator@UEdge@@@std@@@std@@AAEPAUEdge@@QAU2@ABU2@@Z$2 00452210     MST.obj
 0002:00010220       __unwindtable$??$_Emplace_reallocate@ABUEdge@@@?$vector@UEdge@@V?$allocator@UEdge@@@std@@@std@@AAEPAUEdge@@QAU2@ABU2@@Z 00452220     MST.obj
 0002:00010230       __tryblocktable$??$_Emplace_reallocate@ABUEdge@@@?$vector@UEdge@@V?$allocator@UEdge@@@std@@@std@@AAEPAUEdge@@QAU2@ABU2@@Z 00452230     MST.obj
 0002:00010244       __ehfuncinfo$??$_Emplace_reallocate@ABUEdge@@@?$vector@UEdge@@V?$allocator@UEdge@@@std@@@std@@AAEPAUEdge@@QAU2@ABU2@@Z 00452244     MST.obj
 0002:00010270       __unwindtable$??$_Uninitialized_fill_n@V?$allocator@I@std@@@std@@YAPAIPAIIABIAAV?$allocator@I@0@@Z 00452270     MST.obj
 0002:00010278       __ehfuncinfo$??$_Uninitialized_fill_n@V?$allocator@I@std@@@std@@YAPAIPAIIABIAAV?$allocator@I@0@@Z 00452278     MST.obj
 0002:000102a0       __unwindtable$??$_Uninitialized_move@PAUNode@@V?$allocator@UNode@@@std@@@std@@YAPAUNode@@QAU1@0PAU1@AAV?$allocator@UNode@@@0@@Z 004522a0     MST.obj
 0002:000102a8       __ehfuncinfo$??$_Uninitialized_move@PAUNode@@V?$allocator@UNode@@@std@@@std@@YAPAUNode@@QAU1@0PAU1@AAV?$allocator@UNode@@@0@@Z 004522a8     MST.obj
 0002:000102d0       __unwindtable$??$_Uninitialized_move@PAUEdge@@V?$allocator@UEdge@@@std@@@std@@YAPAUEdge@@QAU1@0PAU1@AAV?$allocator@UEdge@@@0@@Z 004522d0     MST.obj
 0002:000102d8       __ehfuncinfo$??$_Uninitialized_move@PAUEdge@@V?$allocator@UEdge@@@std@@@std@@YAPAUEdge@@QAU1@0PAU1@AAV?$allocator@UEdge@@@0@@Z 004522d8     MST.obj
 0002:00010300       __unwindtable$?virtDrawTileAt@NumberTiles@@UBEXPAVBaseEngine@@PAVDrawingSurface@@HHHH@Z 00452300     NumberTiles.obj
 0002:00010310       __ehfuncinfo$?virtDrawTileAt@NumberTiles@@UBEXPAVBaseEngine@@PAVDrawingSurface@@HHHH@Z 00452310     NumberTiles.obj
 0002:0001033c       __unwindtable$?virtKeyDown@LoseState@@UAEXH@Z 0045233c     LoseState.obj
 0002:00010344       __unwindtable$?virtSetupBackgroundBuffer@LoseState@@UAEXXZ 00452344     LoseState.obj
 0002:00010354       __ehfuncinfo$??1LoseState@@UAE@XZ 00452354     LoseState.obj
 0002:00010378       __ehfuncinfo$?virtKeyDown@LoseState@@UAEXH@Z 00452378     LoseState.obj
 0002:0001039c       __ehfuncinfo$?virtSetupBackgroundBuffer@LoseState@@UAEXXZ 0045239c     LoseState.obj
 0002:000103d0       __unwindtable$?doProgram@@YAHHQAPAD@Z 004523d0     mainfunction.obj
 0002:000103d8       __ehfuncinfo$?doProgram@@YAHHQAPAD@Z 004523d8     mainfunction.obj
 0002:00010400       __ehfuncinfo$??$_Freenode0@V?$allocator@U?$_Tree_node@U?$pair@$$CBV?$basic_string@DU?$char_traits@D@std@@V?$allocator@D@2@@std@@V?$shared_ptr@VRawImageData@@@2@@std@@PAX@std@@@std@@@?$_Tree_node@U?$pair@$$CBV?$basic_string@DU?$char_traits@D@std@@V?$allocator@D@2@@std@@V?$shared_ptr@VRawImageData@@@2@@std@@PAX@std@@SAXAAV?$allocator@U?$_Tree_node@U?$pair@$$CBV?$basic_string@DU?$char_traits@D@std@@V?$allocator@D@2@@std@@V?$shared_ptr@VRawImageData@@@2@@std@@PAX@std@@@1@PAU01@@Z 00452400     mainfunction.obj
 0002:00010428       __ehfuncinfo$??$_Freenode@V?$allocator@U?$_Tree_node@U?$pair@$$CBV?$basic_string@DU?$char_traits@D@std@@V?$allocator@D@2@@std@@V?$shared_ptr@VRawImageData@@@2@@std@@PAX@std@@@std@@@?$_Tree_node@U?$pair@$$CBV?$basic_string@DU?$char_traits@D@std@@V?$allocator@D@2@@std@@V?$shared_ptr@VRawImageData@@@2@@std@@PAX@std@@SAXAAV?$allocator@U?$_Tree_node@U?$pair@$$CBV?$basic_string@DU?$char_traits@D@std@@V?$allocator@D@2@@std@@V?$shared_ptr@VRawImageData@@@2@@std@@PAX@std@@@1@PAU01@@Z 00452428     mainfunction.obj
 0002:00010450       __ehfuncinfo$??1DisplayableObjectContainer@@UAE@XZ 00452450     BaseEngine.obj
 0002:00010478       __ehfuncinfo$?_Tidy@?$vector@PAVDisplayableObject@@V?$allocator@PAVDisplayableObject@@@std@@@std@@AAEXXZ 00452478     BaseEngine.obj
 0002:000104a0       __unwindtable$?updateAllObjects@BaseEngine@@UAEXH@Z 004524a0     BaseEngine.obj
 0002:000104b0       __unwindtable$?drawAllObjects@BaseEngine@@UAEXXZ 004524b0     BaseEngine.obj
 0002:000104c0       __unwindtable$??0BaseEngine@@QAE@XZ 004524c0     BaseEngine.obj
 0002:000104d8       __ehfuncinfo$?updateAllObjects@BaseEngine@@UAEXH@Z 004524d8     BaseEngine.obj
 0002:000104fc       __ehfuncinfo$?drawAllObjects@BaseEngine@@UAEXXZ 004524fc     BaseEngine.obj
 0002:00010520       __ehfuncinfo$??0BaseEngine@@QAE@XZ 00452520     BaseEngine.obj
 0002:00010554       __unwindtable$??$for_each@V?$_Vector_iterator@V?$_Vector_val@U?$_Simple_types@PAVDisplayableObject@@@std@@@std@@@std@@V<lambda_57ee486f2f872818e4e1ef76732269ef>@@@std@@YA?AV<lambda_57ee486f2f872818e4e1ef76732269ef>@@V?$_Vector_iterator@V?$_Vector_val@U?$_Simple_types@PAVDisplayableObject@@@std@@@std@@@0@0V1@@Z 00452554     BaseEngine.obj
 0002:00010564       __ehfuncinfo$??$for_each@V?$_Vector_iterator@V?$_Vector_val@U?$_Simple_types@PAVDisplayableObject@@@std@@@std@@@std@@V<lambda_57ee486f2f872818e4e1ef76732269ef>@@@std@@YA?AV<lambda_57ee486f2f872818e4e1ef76732269ef>@@V?$_Vector_iterator@V?$_Vector_val@U?$_Simple_types@PAVDisplayableObject@@@std@@@std@@@0@0V1@@Z 00452564     BaseEngine.obj
 0002:00010590       __unwindtable$??$for_each@V?$_Vector_iterator@V?$_Vector_val@U?$_Simple_types@PAVDisplayableObject@@@std@@@std@@@std@@V<lambda_83eb8fcb36b73c451092a4848be40800>@@@std@@YA?AV<lambda_83eb8fcb36b73c451092a4848be40800>@@V?$_Vector_iterator@V?$_Vector_val@U?$_Simple_types@PAVDisplayableObject@@@std@@@std@@@0@0V1@@Z 00452590     BaseEngine.obj
 0002:000105a0       __ehfuncinfo$??$for_each@V?$_Vector_iterator@V?$_Vector_val@U?$_Simple_types@PAVDisplayableObject@@@std@@@std@@@std@@V<lambda_83eb8fcb36b73c451092a4848be40800>@@@std@@YA?AV<lambda_83eb8fcb36b73c451092a4848be40800>@@V?$_Vector_iterator@V?$_Vector_val@U?$_Simple_types@PAVDisplayableObject@@@std@@@std@@@0@0V1@@Z 004525a0     BaseEngine.obj
 0002:000105cc       __unwindtable$??$for_each@V?$_Vector_iterator@V?$_Vector_val@U?$_Simple_types@PAVDisplayableObject@@@std@@@std@@@std@@V<lambda_b68d6ab0d55fd1970844512a3930ef49>@@@std@@YA?AV<lambda_b68d6ab0d55fd1970844512a3930ef49>@@V?$_Vector_iterator@V?$_Vector_val@U?$_Simple_types@PAVDisplayableObject@@@std@@@std@@@0@0V1@@Z 004525cc     BaseEngine.obj
 0002:000105dc       __ehfuncinfo$??$for_each@V?$_Vector_iterator@V?$_Vector_val@U?$_Simple_types@PAVDisplayableObject@@@std@@@std@@@std@@V<lambda_b68d6ab0d55fd1970844512a3930ef49>@@@std@@YA?AV<lambda_b68d6ab0d55fd1970844512a3930ef49>@@V?$_Vector_iterator@V?$_Vector_val@U?$_Simple_types@PAVDisplayableObject@@@std@@@std@@@0@0V1@@Z 004525dc     BaseEngine.obj
 0002:00010608       __unwindtable$??$for_each@V?$_Vector_iterator@V?$_Vector_val@U?$_Simple_types@PAVDisplayableObject@@@std@@@std@@@std@@V<lambda_9a6d32bae543137263d1d545e39fdd7d>@@@std@@YA?AV<lambda_9a6d32bae543137263d1d545e39fdd7d>@@V?$_Vector_iterator@V?$_Vector_val@U?$_Simple_types@PAVDisplayableObject@@@std@@@std@@@0@0V1@@Z 00452608     BaseEngine.obj
 0002:00010618       __ehfuncinfo$??$for_each@V?$_Vector_iterator@V?$_Vector_val@U?$_Simple_types@PAVDisplayableObject@@@std@@@std@@@std@@V<lambda_9a6d32bae543137263d1d545e39fdd7d>@@@std@@YA?AV<lambda_9a6d32bae543137263d1d545e39fdd7d>@@V?$_Vector_iterator@V?$_Vector_val@U?$_Simple_types@PAVDisplayableObject@@@std@@@std@@@0@0V1@@Z 00452618     BaseEngine.obj
 0002:00010644       __unwindtable$??$for_each@V?$_Vector_iterator@V?$_Vector_val@U?$_Simple_types@PAVDisplayableObject@@@std@@@std@@@std@@V<lambda_aaa801efaf28ef4796b623796d655d59>@@@std@@YA?AV<lambda_aaa801efaf28ef4796b623796d655d59>@@V?$_Vector_iterator@V?$_Vector_val@U?$_Simple_types@PAVDisplayableObject@@@std@@@std@@@0@0V1@@Z 00452644     BaseEngine.obj
 0002:00010654       __ehfuncinfo$??$for_each@V?$_Vector_iterator@V?$_Vector_val@U?$_Simple_types@PAVDisplayableObject@@@std@@@std@@@std@@V<lambda_aaa801efaf28ef4796b623796d655d59>@@@std@@YA?AV<lambda_aaa801efaf28ef4796b623796d655d59>@@V?$_Vector_iterator@V?$_Vector_val@U?$_Simple_types@PAVDisplayableObject@@@std@@@std@@@0@0V1@@Z 00452654     BaseEngine.obj
 0002:00010680       __unwindtable$??$_Construct_n@$$V@?$vector@PAVDisplayableObject@@V?$allocator@PAVDisplayableObject@@@std@@@std@@AAEXI@Z 00452680     BaseEngine.obj
 0002:00010690       __ehfuncinfo$??$_Construct_n@$$V@?$vector@PAVDisplayableObject@@V?$allocator@PAVDisplayableObject@@@std@@@std@@AAEXI@Z 00452690     BaseEngine.obj
 0002:000106bc       __unwindtable$?getFont@FontManager@@QAEPAVFont@@PBDH@Z 004526bc     FontManager.obj
 0002:000106c4       __ehfuncinfo$?getFont@FontManager@@QAEPAVFont@@PBDH@Z 004526c4     FontManager.obj
 0002:000106ec       __unwindtable$?virtDraw@Player@@UAEXXZ 004526ec     Player.obj
 0002:000106f4       __ehfuncinfo$?virtDraw@Player@@UAEXXZ 004526f4     Player.obj
 0002:0001071c       __unwindtable$?uploadScore@Psydp3Engine@@QAEXXZ 0045271c     Psydp3Engine.obj
 0002:00010724       __ehfuncinfo$?uploadScore@Psydp3Engine@@QAEXXZ 00452724     Psydp3Engine.obj
 0002:00010748       __ehfuncinfo$??0Psydp3Engine@@QAE@XZ 00452748     Psydp3Engine.obj
 0002:0001076c       __unwindtable$??0Psydp3Engine@@QAE@XZ 0045276c     Psydp3Engine.obj
 0002:000107a0       __unwindtable$??0?$basic_ofstream@DU?$char_traits@D@std@@@std@@QAE@XZ 004527a0     Psydp3Engine.obj
 0002:000107b0       __ehfuncinfo$??0?$basic_ofstream@DU?$char_traits@D@std@@@std@@QAE@XZ 004527b0     Psydp3Engine.obj
 0002:000107dc       __unwindtable$??0?$basic_filebuf@DU?$char_traits@D@std@@@std@@QAE@XZ 004527dc     Psydp3Engine.obj
 0002:000107e4       __ehfuncinfo$??0?$basic_filebuf@DU?$char_traits@D@std@@@std@@QAE@XZ 004527e4     Psydp3Engine.obj
 0002:0001080c       __ehfuncinfo$??1?$basic_filebuf@DU?$char_traits@D@std@@@std@@UAE@XZ 0045280c     Psydp3Engine.obj
 0002:00010834       __unwindtable$?open@?$basic_filebuf@DU?$char_traits@D@std@@@std@@QAEPAV12@PBDHH@Z 00452834     Psydp3Engine.obj
 0002:0001083c       __ehfuncinfo$?open@?$basic_filebuf@DU?$char_traits@D@std@@@std@@QAEPAV12@PBDHH@Z 0045283c     Psydp3Engine.obj
 0002:00010864       __unwindtable$?uflow@?$basic_filebuf@DU?$char_traits@D@std@@@std@@MAEHXZ 00452864     Psydp3Engine.obj
 0002:0001086c       __ehfuncinfo$?uflow@?$basic_filebuf@DU?$char_traits@D@std@@@std@@MAEHXZ 0045286c     Psydp3Engine.obj
 0002:00010894       __unwindtable$??$use_facet@V?$codecvt@DDU_Mbstatet@@@std@@@std@@YAABV?$codecvt@DDU_Mbstatet@@@0@ABVlocale@0@@Z 00452894     Psydp3Engine.obj
 0002:000108a4       __ehfuncinfo$??$use_facet@V?$codecvt@DDU_Mbstatet@@@std@@@std@@YAABV?$codecvt@DDU_Mbstatet@@@0@ABVlocale@0@@Z 004528a4     Psydp3Engine.obj
 0002:00010914       __unwindtable$?virtDraw@Attack@@UAEXXZ 00452914     Attack.obj
 0002:0001091c       __ehfuncinfo$?virtDraw@Attack@@UAEXXZ 0045291c     Attack.obj
 0002:00010944       __ehfuncinfo$?erase@?$vector@PAVDisplayableObject@@V?$allocator@PAVDisplayableObject@@@std@@@std@@QAE?AV?$_Vector_iterator@V?$_Vector_val@U?$_Simple_types@PAVDisplayableObject@@@std@@@std@@@2@V?$_Vector_const_iterator@V?$_Vector_val@U?$_Simple_types@PAVDisplayableObject@@@std@@@std@@@2@@Z 00452944     Attack.obj
 0002:0001096c       __unwindtable$??$find@V?$_Vector_iterator@V?$_Vector_val@U?$_Simple_types@PAVDisplayableObject@@@std@@@std@@@std@@PAVDisplayableObject@@@std@@YA?AV?$_Vector_iterator@V?$_Vector_val@U?$_Simple_types@PAVDisplayableObject@@@std@@@std@@@0@V10@V10@ABQAVDisplayableObject@@@Z 0045296c     Attack.obj
 0002:0001097c       __ehfuncinfo$??$find@V?$_Vector_iterator@V?$_Vector_val@U?$_Simple_types@PAVDisplayableObject@@@std@@@std@@@std@@PAVDisplayableObject@@@std@@YA?AV?$_Vector_iterator@V?$_Vector_val@U?$_Simple_types@PAVDisplayableObject@@@std@@@std@@@0@V10@V10@ABQAVDisplayableObject@@@Z 0045297c     Attack.obj
 0002:000109a8       __unwindtable$?setAllObjectsVisible@DisplayableObjectContainer@@QBEX_N@Z 004529a8     RunningState.obj
 0002:000109b0       __ehfuncinfo$?setAllObjectsVisible@DisplayableObjectContainer@@QBEX_N@Z 004529b0     RunningState.obj
 0002:000109d8       __unwindtable$?virtMainLoopDoBeforeUpdate@RunningState@@UAEXXZ 004529d8     RunningState.obj
 0002:000109e0       __unwindtable$?virtDrawStringsUnderneath@RunningState@@UAEXXZ 004529e0     RunningState.obj
 0002:000109e8       __unwindtable$?virtSetupBackgroundBuffer@RunningState@@UAEXXZ 004529e8     RunningState.obj
 0002:000109f0       __unwindtable$?virtInitialiseObjects@RunningState@@UAEXXZ 004529f0     RunningState.obj
 0002:00010a10       __ehfuncinfo$?virtMainLoopDoBeforeUpdate@RunningState@@UAEXXZ 00452a10     RunningState.obj
 0002:00010a34       __ehfuncinfo$?virtDrawStringsUnderneath@RunningState@@UAEXXZ 00452a34     RunningState.obj
 0002:00010a58       __ehfuncinfo$?virtInitialiseObjects@RunningState@@UAEXXZ 00452a58     RunningState.obj
 0002:00010a7c       __ehfuncinfo$?virtSetupBackgroundBuffer@RunningState@@UAEXXZ 00452a7c     RunningState.obj
 0002:00010ab4       __ehfuncinfo$??0LoseState@@QAE@PAVPsydp3Engine@@@Z 00452ab4     RunningState.obj
 0002:00010ad8       __unwindtable$??0LoseState@@QAE@PAVPsydp3Engine@@@Z 00452ad8     RunningState.obj
 0002:00010b08       __unwindtable$??0Player@@QAE@PAVBaseEngine@@AAH@Z 00452b08     RunningState.obj
 0002:00010b10       __ehfuncinfo$??0Player@@QAE@PAVBaseEngine@@AAH@Z 00452b10     RunningState.obj
 0002:00010b38       __unwindtable$??0Enemy@@QAE@PAVBaseEngine@@AAH@Z 00452b38     RunningState.obj
 0002:00010b40       __ehfuncinfo$??0Enemy@@QAE@PAVBaseEngine@@AAH@Z 00452b40     RunningState.obj
 0002:00010b68       __unwindtable$?virtInitialiseObjects@SimpleDemo@@UAEHXZ 00452b68     SimpleDemo.obj
 0002:00010b78       __ehfuncinfo$?virtInitialiseObjects@SimpleDemo@@UAEHXZ 00452b78     SimpleDemo.obj
 0002:00010ba4       __unwindtable$??0BouncingObject@@QAE@PAVBaseEngine@@HHNNNN@Z 00452ba4     SimpleDemo.obj
 0002:00010bac       __ehfuncinfo$??0BouncingObject@@QAE@PAVBaseEngine@@HHNNNN@Z 00452bac     SimpleDemo.obj
 0002:00010bd4       __unwindtable$??$use_facet@V?$ctype@D@std@@@std@@YAABV?$ctype@D@0@ABVlocale@0@@Z 00452bd4     StartupState.obj
 0002:00010be4       __ehfuncinfo$??$use_facet@V?$ctype@D@std@@@std@@YAABV?$ctype@D@0@ABVlocale@0@@Z 00452be4     StartupState.obj
 0002:00010c10       __unwindtable$?virtInitialiseObjects@StartupState@@UAEXXZ 00452c10     StartupState.obj
 0002:00010c18       __unwindtable$??5@YAAAV?$basic_ifstream@DU?$char_traits@D@std@@@std@@AAV01@AAVNumberTiles@@@Z 00452c18     StartupState.obj
 0002:00010c28       __unwindtable$?virtSetupBackgroundBuffer@StartupState@@UAEXXZ 00452c28     StartupState.obj
 0002:00010c38       __unwindtable$?virtKeyDown@StartupState@@UAEXH@Z 00452c38     StartupState.obj
 0002:00010c58       __ehfuncinfo$??5@YAAAV?$basic_ifstream@DU?$char_traits@D@std@@@std@@AAV01@AAVNumberTiles@@@Z 00452c58     StartupState.obj
 0002:00010c7c       __ehfuncinfo$?virtInitialiseObjects@StartupState@@UAEXXZ 00452c7c     StartupState.obj
 0002:00010ca0       __ehfuncinfo$?virtKeyDown@StartupState@@UAEXH@Z 00452ca0     StartupState.obj
 0002:00010cc4       __ehfuncinfo$?virtSetupBackgroundBuffer@StartupState@@UAEXXZ 00452cc4     StartupState.obj
 0002:00010d00       __unwindtable$??0?$basic_ifstream@DU?$char_traits@D@std@@@std@@QAE@XZ 00452d00     StartupState.obj
 0002:00010d10       __ehfuncinfo$??0?$basic_ifstream@DU?$char_traits@D@std@@@std@@QAE@XZ 00452d10     StartupState.obj
 0002:00010d3c       __ehfuncinfo$??0?$vector@V?$basic_string@DU?$char_traits@D@std@@V?$allocator@D@2@@std@@V?$allocator@V?$basic_string@DU?$char_traits@D@std@@V?$allocator@D@2@@std@@@2@@std@@QAE@XZ 00452d3c     StartupState.obj
 0002:00010d64       __ehfuncinfo$?_Tidy@?$vector@V?$basic_string@DU?$char_traits@D@std@@V?$allocator@D@2@@std@@V?$allocator@V?$basic_string@DU?$char_traits@D@std@@V?$allocator@D@2@@std@@@2@@std@@AAEXXZ 00452d64     StartupState.obj
 0002:00010d8c       __unwindtable$?_Orphan_range_locked@?$vector@V?$basic_string@DU?$char_traits@D@std@@V?$allocator@D@2@@std@@V?$allocator@V?$basic_string@DU?$char_traits@D@std@@V?$allocator@D@2@@std@@@2@@std@@ABEXPAV?$basic_string@DU?$char_traits@D@std@@V?$allocator@D@2@@2@0@Z 00452d8c     StartupState.obj
 0002:00010d94       __ehfuncinfo$?_Orphan_range_locked@?$vector@V?$basic_string@DU?$char_traits@D@std@@V?$allocator@D@2@@std@@V?$allocator@V?$basic_string@DU?$char_traits@D@std@@V?$allocator@D@2@@std@@@2@@std@@ABEXPAV?$basic_string@DU?$char_traits@D@std@@V?$allocator@D@2@@2@0@Z 00452d94     StartupState.obj
 0002:00010dbc       __catchsym$??$?5DU?$char_traits@D@std@@V?$allocator@D@1@@std@@YAAAV?$basic_istream@DU?$char_traits@D@std@@@0@AAV10@AAV?$basic_string@DU?$char_traits@D@std@@V?$allocator@D@2@@0@@Z$4 00452dbc     StartupState.obj
 0002:00010dcc       __tryblocktable$??$?5DU?$char_traits@D@std@@V?$allocator@D@1@@std@@YAAAV?$basic_istream@DU?$char_traits@D@std@@@0@AAV10@AAV?$basic_string@DU?$char_traits@D@std@@V?$allocator@D@2@@0@@Z 00452dcc     StartupState.obj
 0002:00010de0       __unwindtable$??$?5DU?$char_traits@D@std@@V?$allocator@D@1@@std@@YAAAV?$basic_istream@DU?$char_traits@D@std@@@0@AAV10@AAV?$basic_string@DU?$char_traits@D@std@@V?$allocator@D@2@@0@@Z 00452de0     StartupState.obj
 0002:00010e00       __ehfuncinfo$??$?5DU?$char_traits@D@std@@V?$allocator@D@1@@std@@YAAAV?$basic_istream@DU?$char_traits@D@std@@@0@AAV10@AAV?$basic_string@DU?$char_traits@D@std@@V?$allocator@D@2@@0@@Z 00452e00     StartupState.obj
 0002:00010e30       __ehfuncinfo$??$_Destroy_range@V?$allocator@V?$basic_string@DU?$char_traits@D@std@@V?$allocator@D@2@@std@@@std@@@std@@YAXPAV?$basic_string@DU?$char_traits@D@std@@V?$allocator@D@2@@0@QAV10@AAV?$allocator@V?$basic_string@DU?$char_traits@D@std@@V?$allocator@D@2@@std@@@0@@Z 00452e30     StartupState.obj
 0002:00010e58       __ehfuncinfo$??1_Sentry_base@?$basic_istream@DU?$char_traits@D@std@@@std@@QAE@XZ 00452e58     StartupState.obj
 0002:00010e80       __unwindtable$??0sentry@?$basic_istream@DU?$char_traits@D@std@@@std@@QAE@AAV12@_N@Z 00452e80     StartupState.obj
 0002:00010e88       __ehfuncinfo$??0sentry@?$basic_istream@DU?$char_traits@D@std@@@std@@QAE@AAV12@_N@Z 00452e88     StartupState.obj
 0002:00010eb0       __catchsym$??$_Emplace_reallocate@ABV?$basic_string@DU?$char_traits@D@std@@V?$allocator@D@2@@std@@@?$vector@V?$basic_string@DU?$char_traits@D@std@@V?$allocator@D@2@@std@@V?$allocator@V?$basic_string@DU?$char_traits@D@std@@V?$allocator@D@2@@std@@@2@@std@@AAEPAV?$basic_string@DU?$char_traits@D@std@@V?$allocator@D@2@@1@QAV21@ABV21@@Z$2 00452eb0     StartupState.obj
 0002:00010ec0       __unwindtable$??$_Emplace_reallocate@ABV?$basic_string@DU?$char_traits@D@std@@V?$allocator@D@2@@std@@@?$vector@V?$basic_string@DU?$char_traits@D@std@@V?$allocator@D@2@@std@@V?$allocator@V?$basic_string@DU?$char_traits@D@std@@V?$allocator@D@2@@std@@@2@@std@@AAEPAV?$basic_string@DU?$char_traits@D@std@@V?$allocator@D@2@@1@QAV21@ABV21@@Z 00452ec0     StartupState.obj
 0002:00010ed0       __tryblocktable$??$_Emplace_reallocate@ABV?$basic_string@DU?$char_traits@D@std@@V?$allocator@D@2@@std@@@?$vector@V?$basic_string@DU?$char_traits@D@std@@V?$allocator@D@2@@std@@V?$allocator@V?$basic_string@DU?$char_traits@D@std@@V?$allocator@D@2@@std@@@2@@std@@AAEPAV?$basic_string@DU?$char_traits@D@std@@V?$allocator@D@2@@1@QAV21@ABV21@@Z 00452ed0     StartupState.obj
 0002:00010ee4       __ehfuncinfo$??$_Emplace_reallocate@ABV?$basic_string@DU?$char_traits@D@std@@V?$allocator@D@2@@std@@@?$vector@V?$basic_string@DU?$char_traits@D@std@@V?$allocator@D@2@@std@@V?$allocator@V?$basic_string@DU?$char_traits@D@std@@V?$allocator@D@2@@std@@@2@@std@@AAEPAV?$basic_string@DU?$char_traits@D@std@@V?$allocator@D@2@@1@QAV21@ABV21@@Z 00452ee4     StartupState.obj
 0002:00010f10       __unwindtable$??$_Uninitialized_move@PAV?$basic_string@DU?$char_traits@D@std@@V?$allocator@D@2@@std@@V?$allocator@V?$basic_string@DU?$char_traits@D@std@@V?$allocator@D@2@@std@@@2@@std@@YAPAV?$basic_string@DU?$char_traits@D@std@@V?$allocator@D@2@@0@QAV10@0PAV10@AAV?$allocator@V?$basic_string@DU?$char_traits@D@std@@V?$allocator@D@2@@std@@@0@@Z 00452f10     StartupState.obj
 0002:00010f18       __ehfuncinfo$??$_Uninitialized_move@PAV?$basic_string@DU?$char_traits@D@std@@V?$allocator@D@2@@std@@V?$allocator@V?$basic_string@DU?$char_traits@D@std@@V?$allocator@D@2@@std@@@2@@std@@YAPAV?$basic_string@DU?$char_traits@D@std@@V?$allocator@D@2@@0@QAV10@0PAV10@AAV?$allocator@V?$basic_string@DU?$char_traits@D@std@@V?$allocator@D@2@@std@@@0@@Z 00452f18     StartupState.obj
 0002:00010f40       __unwindtable$??0BouncingBall1@@QAE@PAVBouncingBallMain@@HHHHPBDHHPAVTileManager@@@Z 00452f40     BouncingBall.obj
 0002:00010f48       __unwindtable$??0BouncingBall@@QAE@PAVBouncingBallMain@@HHHHPBDHH@Z 00452f48     BouncingBall.obj
 0002:00010f50       __ehfuncinfo$??0BouncingBall1@@QAE@PAVBouncingBallMain@@HHHHPBDHHPAVTileManager@@@Z 00452f50     BouncingBall.obj
 0002:00010f74       __ehfuncinfo$??0BouncingBall@@QAE@PAVBouncingBallMain@@HHHHPBDHH@Z 00452f74     BouncingBall.obj
 0002:00010fa0       __unwindtable$?virtInitialiseObjects@BouncingBallMain@@UAEHXZ 00452fa0     BouncingBallMain.obj
 0002:00010fb8       __ehfuncinfo$?virtInitialiseObjects@BouncingBallMain@@UAEHXZ 00452fb8     BouncingBallMain.obj
 0002:00010fe4       __unwindtable$?virtKeyDown@WinState@@UAEXH@Z 00452fe4     WinState.obj
 0002:00010fec       __unwindtable$?virtSetupBackgroundBuffer@WinState@@UAEXXZ 00452fec     WinState.obj
 0002:00010ff4       __unwindtable$?virtInitialiseObjects@WinState@@UAEXXZ 00452ff4     WinState.obj
 0002:00011014       __ehfuncinfo$?virtInitialiseObjects@WinState@@UAEXXZ 00453014     WinState.obj
 0002:00011038       __ehfuncinfo$?virtKeyDown@WinState@@UAEXH@Z 00453038     WinState.obj
 0002:0001105c       __ehfuncinfo$?virtSetupBackgroundBuffer@WinState@@UAEXXZ 0045305c     WinState.obj
 0002:00011090       __unwindtable$?virtInitialiseObjects@ZoomingDemo@@UAEHXZ 00453090     ZoomingDemo.obj
 0002:000110b0       __ehfuncinfo$?virtInitialiseObjects@ZoomingDemo@@UAEHXZ 004530b0     ZoomingDemo.obj
 0002:000110dc       __ehfuncinfo$??0SimpleFlashingDragableImageObject@@QAE@HHPAVBaseEngine@@V?$basic_string@DU?$char_traits@D@std@@V?$allocator@D@2@@std@@1_N2@Z 004530dc     ZoomingDemo.obj
 0002:00011100       __unwindtable$??0SimpleFlashingDragableImageObject@@QAE@HHPAVBaseEngine@@V?$basic_string@DU?$char_traits@D@std@@V?$allocator@D@2@@std@@1_N2@Z 00453100     ZoomingDemo.obj
 0002:00011144       __unwindtable$??0MazeDemoMain@@QAE@XZ 00453144     MazeDemoMain.obj
 0002:0001114c       __ehfuncinfo$?virtInitialiseObjects@MazeDemoMain@@UAEHXZ 0045314c     MazeDemoMain.obj
 0002:00011170       __ehfuncinfo$??0MazeDemoMain@@QAE@XZ 00453170     MazeDemoMain.obj
 0002:00011194       __unwindtable$?virtInitialiseObjects@MazeDemoMain@@UAEHXZ 00453194     MazeDemoMain.obj
 0002:000111c8       __unwindtable$??0MazeDemoObject@@QAE@PAVMazeDemoMain@@HH@Z 004531c8     MazeDemoObject.obj
 0002:000111d0       __ehfuncinfo$??0MazeDemoObject@@QAE@PAVMazeDemoMain@@HH@Z 004531d0     MazeDemoObject.obj
 0002:000111f8       __unwindtable$?_Facet_Register@std@@YAXPAV_Facet_base@1@@Z 004531f8     msvcprtd:locale0_implib.obj
 0002:00011200       __ehfuncinfo$?_Facet_Register@std@@YAXPAV_Facet_base@1@@Z 00453200     msvcprtd:locale0_implib.obj
 0002:00011228       __ehfuncinfo$??$__std_find_trivial_unsized@U_Find_traits_1@?A0x8417fefe@@E@?A0x8417fefe@@YGPBXPBXE@Z 00453228     msvcprtd:vector_algorithms.obj
 0002:00011250       __ehfuncinfo$??$__std_find_trivial_unsized@U_Find_traits_2@?A0x8417fefe@@G@?A0x8417fefe@@YGPBXPBXG@Z 00453250     msvcprtd:vector_algorithms.obj
 0002:00011278       __ehfuncinfo$??$__std_find_trivial_unsized@U_Find_traits_4@?A0x8417fefe@@I@?A0x8417fefe@@YGPBXPBXI@Z 00453278     msvcprtd:vector_algorithms.obj
 0002:000112a0       __ehfuncinfo$??$__std_find_trivial_unsized@U_Find_traits_8@?A0x8417fefe@@_K@?A0x8417fefe@@YGPBXPBX_K@Z 004532a0     msvcprtd:vector_algorithms.obj
 0002:000112c8       __ehfuncinfo$??$__std_find_trivial@U_Find_traits_1@?A0x8417fefe@@E@?A0x8417fefe@@YGPBXPBX0E@Z 004532c8     msvcprtd:vector_algorithms.obj
 0002:000112f0       __ehfuncinfo$??$__std_find_trivial@U_Find_traits_2@?A0x8417fefe@@G@?A0x8417fefe@@YGPBXPBX0G@Z 004532f0     msvcprtd:vector_algorithms.obj
 0002:00011318       __ehfuncinfo$??$__std_find_trivial@U_Find_traits_4@?A0x8417fefe@@I@?A0x8417fefe@@YGPBXPBX0I@Z 00453318     msvcprtd:vector_algorithms.obj
 0002:00011340       __ehfuncinfo$??$__std_find_trivial@U_Find_traits_8@?A0x8417fefe@@_K@?A0x8417fefe@@YGPBXPBX0_K@Z 00453340     msvcprtd:vector_algorithms.obj
 0002:00011368       __ehfuncinfo$??$__std_count_trivial@U_Find_traits_1@?A0x8417fefe@@E@?A0x8417fefe@@YGIPBXQBXE@Z 00453368     msvcprtd:vector_algorithms.obj
 0002:00011390       __ehfuncinfo$??$__std_count_trivial@U_Find_traits_2@?A0x8417fefe@@G@?A0x8417fefe@@YGIPBXQBXG@Z 00453390     msvcprtd:vector_algorithms.obj
 0002:000113b8       __ehfuncinfo$??$__std_count_trivial@U_Find_traits_4@?A0x8417fefe@@I@?A0x8417fefe@@YGIPBXQBXI@Z 004533b8     msvcprtd:vector_algorithms.obj
 0002:000113e0       __ehfuncinfo$??$__std_count_trivial@U_Find_traits_8@?A0x8417fefe@@_K@?A0x8417fefe@@YGIPBXQBX_K@Z 004533e0     msvcprtd:vector_algorithms.obj
 0002:00011408       __sehtable$?__scrt_common_main_seh@@YAHXZ 00453408     MSVCRTD:exe_main.obj
 0002:00011428       __sehtable$___scrt_is_nonwritable_in_current_image 00453428     MSVCRTD:utility.obj
 0003:00000000       ?firstClick@?1??handleEvent@BaseEngine@@QAE_NPATSDL_Event@@@Z@4_NA 00454000     BaseEngine.obj
 0003:00000004       ?nullMapping@@3VCroppedImagePixelMapping@@A 00454004     SimpleImage.obj
 0003:00000c4c       ?_Fac_head@std@@3PAU_Fac_node@1@A 00454c4c     msvcprtd:locale0_implib.obj
 0003:00000c50       ?_Fac_tidy_reg@std@@3U_Fac_tidy_reg_t@1@B 00454c50     msvcprtd:locale0_implib.obj
 0003:00000c5c       ?is_initialized_as_dll@@3_NA 00454c5c     MSVCRTD:utility.obj
 0003:00000c5d       ?module_local_atexit_table_initialized@@3_NA 00454c5d     MSVCRTD:utility.obj
 0003:00000c60       ?module_local_atexit_table@@3U_onexit_table_t@@A 00454c60     MSVCRTD:utility.obj
 0003:00000c6c       ?module_local_at_quick_exit_table@@3U_onexit_table_t@@A 00454c6c     MSVCRTD:utility.obj
 0003:00000cb0       _GS_ExceptionRecord        00454cb0     MSVCRTD:gs_report.obj
 0003:00000d00       _GS_ContextRecord          00454d00     MSVCRTD:gs_report.obj
 0004:00000b88       .idata$6                   00456b88     SDL2:SDL2.dll
 0004:00000b9e       .idata$6                   00456b9e     SDL2_image:SDL2_image.dll
 0004:00000bfe       .idata$6                   00456bfe     SDL2_ttf:SDL2_ttf.dll
 0004:00001bde       .idata$6                   00457bde     msvcprtd:MSVCP140D.dll
 0004:00001d18       .idata$6                   00457d18     vcruntimed:VCRUNTIME140D.dll
 0004:000020ee       .idata$6                   004580ee     ucrtd:ucrtbased.dll
 0004:00002270       .idata$6                   00458270     kernel32:KERNEL32.dll
 0006:00000170       $R000000                   0045a170     * linker generated manifest res *
